ARM GAS  Build/stm32l4xx_hal_flash_ex.s 			page 1


   1              		.cpu cortex-m3
   2              		.arch armv7-m
   3              		.fpu softvfp
   4              		.eabi_attribute 20, 1
   5              		.eabi_attribute 21, 1
   6              		.eabi_attribute 23, 3
   7              		.eabi_attribute 24, 1
   8              		.eabi_attribute 25, 1
   9              		.eabi_attribute 26, 1
  10              		.eabi_attribute 30, 1
  11              		.eabi_attribute 34, 1
  12              		.eabi_attribute 18, 4
  13              		.file	"stm32l4xx_hal_flash_ex.c"
  14              		.text
  15              	.Ltext0:
  16              		.cfi_sections	.debug_frame
  17              		.file 1 "../Drivers/STM32L4xx_HAL_Driver/Src/stm32l4xx_hal_flash_ex.c"
  18              		.section	.text.FLASH_MassErase,"ax",%progbits
  19              		.align	1
  20              		.syntax unified
  21              		.thumb
  22              		.thumb_func
  24              	FLASH_MassErase:
  25              	.LVL0:
  26              	.LFB78:
   1:../Drivers/STM32L4xx_HAL_Driver/Src/stm32l4xx_hal_flash_ex.c **** /**
   2:../Drivers/STM32L4xx_HAL_Driver/Src/stm32l4xx_hal_flash_ex.c ****   ******************************************************************************
   3:../Drivers/STM32L4xx_HAL_Driver/Src/stm32l4xx_hal_flash_ex.c ****   * @file    stm32l4xx_hal_flash_ex.c
   4:../Drivers/STM32L4xx_HAL_Driver/Src/stm32l4xx_hal_flash_ex.c ****   * @author  MCD Application Team
   5:../Drivers/STM32L4xx_HAL_Driver/Src/stm32l4xx_hal_flash_ex.c ****   * @brief   Extended FLASH HAL module driver.
   6:../Drivers/STM32L4xx_HAL_Driver/Src/stm32l4xx_hal_flash_ex.c ****   *          This file provides firmware functions to manage the following
   7:../Drivers/STM32L4xx_HAL_Driver/Src/stm32l4xx_hal_flash_ex.c ****   *          functionalities of the FLASH extended peripheral:
   8:../Drivers/STM32L4xx_HAL_Driver/Src/stm32l4xx_hal_flash_ex.c ****   *           + Extended programming operations functions
   9:../Drivers/STM32L4xx_HAL_Driver/Src/stm32l4xx_hal_flash_ex.c ****   *
  10:../Drivers/STM32L4xx_HAL_Driver/Src/stm32l4xx_hal_flash_ex.c ****  @verbatim
  11:../Drivers/STM32L4xx_HAL_Driver/Src/stm32l4xx_hal_flash_ex.c ****  ==============================================================================
  12:../Drivers/STM32L4xx_HAL_Driver/Src/stm32l4xx_hal_flash_ex.c ****                    ##### Flash Extended features #####
  13:../Drivers/STM32L4xx_HAL_Driver/Src/stm32l4xx_hal_flash_ex.c ****   ==============================================================================
  14:../Drivers/STM32L4xx_HAL_Driver/Src/stm32l4xx_hal_flash_ex.c **** 
  15:../Drivers/STM32L4xx_HAL_Driver/Src/stm32l4xx_hal_flash_ex.c ****   [..] Comparing to other previous devices, the FLASH interface for STM32L4xx
  16:../Drivers/STM32L4xx_HAL_Driver/Src/stm32l4xx_hal_flash_ex.c ****        devices contains the following additional features
  17:../Drivers/STM32L4xx_HAL_Driver/Src/stm32l4xx_hal_flash_ex.c **** 
  18:../Drivers/STM32L4xx_HAL_Driver/Src/stm32l4xx_hal_flash_ex.c ****        (+) Capacity up to 2 Mbyte with dual bank architecture supporting read-while-write
  19:../Drivers/STM32L4xx_HAL_Driver/Src/stm32l4xx_hal_flash_ex.c ****            capability (RWW)
  20:../Drivers/STM32L4xx_HAL_Driver/Src/stm32l4xx_hal_flash_ex.c ****        (+) Dual bank memory organization
  21:../Drivers/STM32L4xx_HAL_Driver/Src/stm32l4xx_hal_flash_ex.c ****        (+) PCROP protection for all banks
  22:../Drivers/STM32L4xx_HAL_Driver/Src/stm32l4xx_hal_flash_ex.c **** 
  23:../Drivers/STM32L4xx_HAL_Driver/Src/stm32l4xx_hal_flash_ex.c ****                         ##### How to use this driver #####
  24:../Drivers/STM32L4xx_HAL_Driver/Src/stm32l4xx_hal_flash_ex.c ****  ==============================================================================
  25:../Drivers/STM32L4xx_HAL_Driver/Src/stm32l4xx_hal_flash_ex.c ****   [..] This driver provides functions to configure and program the FLASH memory
  26:../Drivers/STM32L4xx_HAL_Driver/Src/stm32l4xx_hal_flash_ex.c ****        of all STM32L4xx devices. It includes
  27:../Drivers/STM32L4xx_HAL_Driver/Src/stm32l4xx_hal_flash_ex.c ****       (#) Flash Memory Erase functions:
  28:../Drivers/STM32L4xx_HAL_Driver/Src/stm32l4xx_hal_flash_ex.c ****            (++) Lock and Unlock the FLASH interface using HAL_FLASH_Unlock() and
  29:../Drivers/STM32L4xx_HAL_Driver/Src/stm32l4xx_hal_flash_ex.c ****                 HAL_FLASH_Lock() functions
  30:../Drivers/STM32L4xx_HAL_Driver/Src/stm32l4xx_hal_flash_ex.c ****            (++) Erase function: Erase page, erase all sectors
  31:../Drivers/STM32L4xx_HAL_Driver/Src/stm32l4xx_hal_flash_ex.c ****            (++) There are two modes of erase :
  32:../Drivers/STM32L4xx_HAL_Driver/Src/stm32l4xx_hal_flash_ex.c ****              (+++) Polling Mode using HAL_FLASHEx_Erase()
ARM GAS  Build/stm32l4xx_hal_flash_ex.s 			page 2


  33:../Drivers/STM32L4xx_HAL_Driver/Src/stm32l4xx_hal_flash_ex.c ****              (+++) Interrupt Mode using HAL_FLASHEx_Erase_IT()
  34:../Drivers/STM32L4xx_HAL_Driver/Src/stm32l4xx_hal_flash_ex.c **** 
  35:../Drivers/STM32L4xx_HAL_Driver/Src/stm32l4xx_hal_flash_ex.c ****       (#) Option Bytes Programming function: Use HAL_FLASHEx_OBProgram() to :
  36:../Drivers/STM32L4xx_HAL_Driver/Src/stm32l4xx_hal_flash_ex.c ****         (++) Set/Reset the write protection
  37:../Drivers/STM32L4xx_HAL_Driver/Src/stm32l4xx_hal_flash_ex.c ****         (++) Set the Read protection Level
  38:../Drivers/STM32L4xx_HAL_Driver/Src/stm32l4xx_hal_flash_ex.c ****         (++) Program the user Option Bytes
  39:../Drivers/STM32L4xx_HAL_Driver/Src/stm32l4xx_hal_flash_ex.c ****         (++) Configure the PCROP protection
  40:../Drivers/STM32L4xx_HAL_Driver/Src/stm32l4xx_hal_flash_ex.c **** 
  41:../Drivers/STM32L4xx_HAL_Driver/Src/stm32l4xx_hal_flash_ex.c ****       (#) Get Option Bytes Configuration function: Use HAL_FLASHEx_OBGetConfig() to :
  42:../Drivers/STM32L4xx_HAL_Driver/Src/stm32l4xx_hal_flash_ex.c ****         (++) Get the value of a write protection area
  43:../Drivers/STM32L4xx_HAL_Driver/Src/stm32l4xx_hal_flash_ex.c ****         (++) Know if the read protection is activated
  44:../Drivers/STM32L4xx_HAL_Driver/Src/stm32l4xx_hal_flash_ex.c ****         (++) Get the value of the user Option Bytes
  45:../Drivers/STM32L4xx_HAL_Driver/Src/stm32l4xx_hal_flash_ex.c ****         (++) Get the value of a PCROP area
  46:../Drivers/STM32L4xx_HAL_Driver/Src/stm32l4xx_hal_flash_ex.c **** 
  47:../Drivers/STM32L4xx_HAL_Driver/Src/stm32l4xx_hal_flash_ex.c ****  @endverbatim
  48:../Drivers/STM32L4xx_HAL_Driver/Src/stm32l4xx_hal_flash_ex.c ****   ******************************************************************************
  49:../Drivers/STM32L4xx_HAL_Driver/Src/stm32l4xx_hal_flash_ex.c ****   * @attention
  50:../Drivers/STM32L4xx_HAL_Driver/Src/stm32l4xx_hal_flash_ex.c ****   *
  51:../Drivers/STM32L4xx_HAL_Driver/Src/stm32l4xx_hal_flash_ex.c ****   * Copyright (c) 2017 STMicroelectronics.
  52:../Drivers/STM32L4xx_HAL_Driver/Src/stm32l4xx_hal_flash_ex.c ****   * All rights reserved.
  53:../Drivers/STM32L4xx_HAL_Driver/Src/stm32l4xx_hal_flash_ex.c ****   *
  54:../Drivers/STM32L4xx_HAL_Driver/Src/stm32l4xx_hal_flash_ex.c ****   * This software is licensed under terms that can be found in the LICENSE file in
  55:../Drivers/STM32L4xx_HAL_Driver/Src/stm32l4xx_hal_flash_ex.c ****   * the root directory of this software component.
  56:../Drivers/STM32L4xx_HAL_Driver/Src/stm32l4xx_hal_flash_ex.c ****   * If no LICENSE file comes with this software, it is provided AS-IS.
  57:../Drivers/STM32L4xx_HAL_Driver/Src/stm32l4xx_hal_flash_ex.c ****   ******************************************************************************
  58:../Drivers/STM32L4xx_HAL_Driver/Src/stm32l4xx_hal_flash_ex.c ****   */
  59:../Drivers/STM32L4xx_HAL_Driver/Src/stm32l4xx_hal_flash_ex.c **** 
  60:../Drivers/STM32L4xx_HAL_Driver/Src/stm32l4xx_hal_flash_ex.c **** /* Includes ------------------------------------------------------------------*/
  61:../Drivers/STM32L4xx_HAL_Driver/Src/stm32l4xx_hal_flash_ex.c **** #include "stm32l4xx_hal.h"
  62:../Drivers/STM32L4xx_HAL_Driver/Src/stm32l4xx_hal_flash_ex.c **** 
  63:../Drivers/STM32L4xx_HAL_Driver/Src/stm32l4xx_hal_flash_ex.c **** /** @addtogroup STM32L4xx_HAL_Driver
  64:../Drivers/STM32L4xx_HAL_Driver/Src/stm32l4xx_hal_flash_ex.c ****   * @{
  65:../Drivers/STM32L4xx_HAL_Driver/Src/stm32l4xx_hal_flash_ex.c ****   */
  66:../Drivers/STM32L4xx_HAL_Driver/Src/stm32l4xx_hal_flash_ex.c **** 
  67:../Drivers/STM32L4xx_HAL_Driver/Src/stm32l4xx_hal_flash_ex.c **** /** @defgroup FLASHEx FLASHEx
  68:../Drivers/STM32L4xx_HAL_Driver/Src/stm32l4xx_hal_flash_ex.c ****   * @brief FLASH Extended HAL module driver
  69:../Drivers/STM32L4xx_HAL_Driver/Src/stm32l4xx_hal_flash_ex.c ****   * @{
  70:../Drivers/STM32L4xx_HAL_Driver/Src/stm32l4xx_hal_flash_ex.c ****   */
  71:../Drivers/STM32L4xx_HAL_Driver/Src/stm32l4xx_hal_flash_ex.c **** 
  72:../Drivers/STM32L4xx_HAL_Driver/Src/stm32l4xx_hal_flash_ex.c **** #ifdef HAL_FLASH_MODULE_ENABLED
  73:../Drivers/STM32L4xx_HAL_Driver/Src/stm32l4xx_hal_flash_ex.c **** 
  74:../Drivers/STM32L4xx_HAL_Driver/Src/stm32l4xx_hal_flash_ex.c **** /* Private typedef -----------------------------------------------------------*/
  75:../Drivers/STM32L4xx_HAL_Driver/Src/stm32l4xx_hal_flash_ex.c **** /* Private define ------------------------------------------------------------*/
  76:../Drivers/STM32L4xx_HAL_Driver/Src/stm32l4xx_hal_flash_ex.c **** /* Private macro -------------------------------------------------------------*/
  77:../Drivers/STM32L4xx_HAL_Driver/Src/stm32l4xx_hal_flash_ex.c **** /* Private variables ---------------------------------------------------------*/
  78:../Drivers/STM32L4xx_HAL_Driver/Src/stm32l4xx_hal_flash_ex.c **** /* Private function prototypes -----------------------------------------------*/
  79:../Drivers/STM32L4xx_HAL_Driver/Src/stm32l4xx_hal_flash_ex.c **** /** @defgroup FLASHEx_Private_Functions FLASHEx Private Functions
  80:../Drivers/STM32L4xx_HAL_Driver/Src/stm32l4xx_hal_flash_ex.c ****  * @{
  81:../Drivers/STM32L4xx_HAL_Driver/Src/stm32l4xx_hal_flash_ex.c ****  */
  82:../Drivers/STM32L4xx_HAL_Driver/Src/stm32l4xx_hal_flash_ex.c **** static void              FLASH_MassErase(uint32_t Banks);
  83:../Drivers/STM32L4xx_HAL_Driver/Src/stm32l4xx_hal_flash_ex.c **** static HAL_StatusTypeDef FLASH_OB_WRPConfig(uint32_t WRPArea, uint32_t WRPStartOffset, uint32_t WRD
  84:../Drivers/STM32L4xx_HAL_Driver/Src/stm32l4xx_hal_flash_ex.c **** static HAL_StatusTypeDef FLASH_OB_RDPConfig(uint32_t RDPLevel);
  85:../Drivers/STM32L4xx_HAL_Driver/Src/stm32l4xx_hal_flash_ex.c **** static HAL_StatusTypeDef FLASH_OB_UserConfig(uint32_t UserType, uint32_t UserConfig);
  86:../Drivers/STM32L4xx_HAL_Driver/Src/stm32l4xx_hal_flash_ex.c **** static HAL_StatusTypeDef FLASH_OB_PCROPConfig(uint32_t PCROPConfig, uint32_t PCROPStartAddr, uint32
  87:../Drivers/STM32L4xx_HAL_Driver/Src/stm32l4xx_hal_flash_ex.c **** static void              FLASH_OB_GetWRP(uint32_t WRPArea, uint32_t * WRPStartOffset, uint32_t * WR
  88:../Drivers/STM32L4xx_HAL_Driver/Src/stm32l4xx_hal_flash_ex.c **** static uint32_t          FLASH_OB_GetRDP(void);
  89:../Drivers/STM32L4xx_HAL_Driver/Src/stm32l4xx_hal_flash_ex.c **** static uint32_t          FLASH_OB_GetUser(void);
ARM GAS  Build/stm32l4xx_hal_flash_ex.s 			page 3


  90:../Drivers/STM32L4xx_HAL_Driver/Src/stm32l4xx_hal_flash_ex.c **** static void              FLASH_OB_GetPCROP(uint32_t * PCROPConfig, uint32_t * PCROPStartAddr, uint3
  91:../Drivers/STM32L4xx_HAL_Driver/Src/stm32l4xx_hal_flash_ex.c **** /**
  92:../Drivers/STM32L4xx_HAL_Driver/Src/stm32l4xx_hal_flash_ex.c ****   * @}
  93:../Drivers/STM32L4xx_HAL_Driver/Src/stm32l4xx_hal_flash_ex.c ****   */
  94:../Drivers/STM32L4xx_HAL_Driver/Src/stm32l4xx_hal_flash_ex.c **** 
  95:../Drivers/STM32L4xx_HAL_Driver/Src/stm32l4xx_hal_flash_ex.c **** /* Exported functions -------------------------------------------------------*/
  96:../Drivers/STM32L4xx_HAL_Driver/Src/stm32l4xx_hal_flash_ex.c **** /** @defgroup FLASHEx_Exported_Functions FLASHEx Exported Functions
  97:../Drivers/STM32L4xx_HAL_Driver/Src/stm32l4xx_hal_flash_ex.c ****   * @{
  98:../Drivers/STM32L4xx_HAL_Driver/Src/stm32l4xx_hal_flash_ex.c ****   */
  99:../Drivers/STM32L4xx_HAL_Driver/Src/stm32l4xx_hal_flash_ex.c **** 
 100:../Drivers/STM32L4xx_HAL_Driver/Src/stm32l4xx_hal_flash_ex.c **** /** @defgroup FLASHEx_Exported_Functions_Group1 Extended IO operation functions
 101:../Drivers/STM32L4xx_HAL_Driver/Src/stm32l4xx_hal_flash_ex.c ****  *  @brief   Extended IO operation functions
 102:../Drivers/STM32L4xx_HAL_Driver/Src/stm32l4xx_hal_flash_ex.c ****  *
 103:../Drivers/STM32L4xx_HAL_Driver/Src/stm32l4xx_hal_flash_ex.c **** @verbatim
 104:../Drivers/STM32L4xx_HAL_Driver/Src/stm32l4xx_hal_flash_ex.c ****  ===============================================================================
 105:../Drivers/STM32L4xx_HAL_Driver/Src/stm32l4xx_hal_flash_ex.c ****                 ##### Extended programming operation functions #####
 106:../Drivers/STM32L4xx_HAL_Driver/Src/stm32l4xx_hal_flash_ex.c ****  ===============================================================================
 107:../Drivers/STM32L4xx_HAL_Driver/Src/stm32l4xx_hal_flash_ex.c ****     [..]
 108:../Drivers/STM32L4xx_HAL_Driver/Src/stm32l4xx_hal_flash_ex.c ****     This subsection provides a set of functions allowing to manage the Extended FLASH
 109:../Drivers/STM32L4xx_HAL_Driver/Src/stm32l4xx_hal_flash_ex.c ****     programming operations Operations.
 110:../Drivers/STM32L4xx_HAL_Driver/Src/stm32l4xx_hal_flash_ex.c **** 
 111:../Drivers/STM32L4xx_HAL_Driver/Src/stm32l4xx_hal_flash_ex.c **** @endverbatim
 112:../Drivers/STM32L4xx_HAL_Driver/Src/stm32l4xx_hal_flash_ex.c ****   * @{
 113:../Drivers/STM32L4xx_HAL_Driver/Src/stm32l4xx_hal_flash_ex.c ****   */
 114:../Drivers/STM32L4xx_HAL_Driver/Src/stm32l4xx_hal_flash_ex.c **** /**
 115:../Drivers/STM32L4xx_HAL_Driver/Src/stm32l4xx_hal_flash_ex.c ****   * @brief  Perform a mass erase or erase the specified FLASH memory pages.
 116:../Drivers/STM32L4xx_HAL_Driver/Src/stm32l4xx_hal_flash_ex.c ****   * @param[in]  pEraseInit: pointer to an FLASH_EraseInitTypeDef structure that
 117:../Drivers/STM32L4xx_HAL_Driver/Src/stm32l4xx_hal_flash_ex.c ****   *         contains the configuration information for the erasing.
 118:../Drivers/STM32L4xx_HAL_Driver/Src/stm32l4xx_hal_flash_ex.c ****   *
 119:../Drivers/STM32L4xx_HAL_Driver/Src/stm32l4xx_hal_flash_ex.c ****   * @param[out]  PageError  : pointer to variable that contains the configuration
 120:../Drivers/STM32L4xx_HAL_Driver/Src/stm32l4xx_hal_flash_ex.c ****   *         information on faulty page in case of error (0xFFFFFFFF means that all
 121:../Drivers/STM32L4xx_HAL_Driver/Src/stm32l4xx_hal_flash_ex.c ****   *         the pages have been correctly erased)
 122:../Drivers/STM32L4xx_HAL_Driver/Src/stm32l4xx_hal_flash_ex.c ****   *
 123:../Drivers/STM32L4xx_HAL_Driver/Src/stm32l4xx_hal_flash_ex.c ****   * @retval HAL Status
 124:../Drivers/STM32L4xx_HAL_Driver/Src/stm32l4xx_hal_flash_ex.c ****   */
 125:../Drivers/STM32L4xx_HAL_Driver/Src/stm32l4xx_hal_flash_ex.c **** HAL_StatusTypeDef HAL_FLASHEx_Erase(FLASH_EraseInitTypeDef *pEraseInit, uint32_t *PageError)
 126:../Drivers/STM32L4xx_HAL_Driver/Src/stm32l4xx_hal_flash_ex.c **** {
 127:../Drivers/STM32L4xx_HAL_Driver/Src/stm32l4xx_hal_flash_ex.c ****   HAL_StatusTypeDef status;
 128:../Drivers/STM32L4xx_HAL_Driver/Src/stm32l4xx_hal_flash_ex.c ****   uint32_t page_index;
 129:../Drivers/STM32L4xx_HAL_Driver/Src/stm32l4xx_hal_flash_ex.c **** 
 130:../Drivers/STM32L4xx_HAL_Driver/Src/stm32l4xx_hal_flash_ex.c ****   /* Process Locked */
 131:../Drivers/STM32L4xx_HAL_Driver/Src/stm32l4xx_hal_flash_ex.c ****   __HAL_LOCK(&pFlash);
 132:../Drivers/STM32L4xx_HAL_Driver/Src/stm32l4xx_hal_flash_ex.c **** 
 133:../Drivers/STM32L4xx_HAL_Driver/Src/stm32l4xx_hal_flash_ex.c ****   /* Check the parameters */
 134:../Drivers/STM32L4xx_HAL_Driver/Src/stm32l4xx_hal_flash_ex.c ****   assert_param(IS_FLASH_TYPEERASE(pEraseInit->TypeErase));
 135:../Drivers/STM32L4xx_HAL_Driver/Src/stm32l4xx_hal_flash_ex.c **** 
 136:../Drivers/STM32L4xx_HAL_Driver/Src/stm32l4xx_hal_flash_ex.c ****   /* Wait for last operation to be completed */
 137:../Drivers/STM32L4xx_HAL_Driver/Src/stm32l4xx_hal_flash_ex.c ****   status = FLASH_WaitForLastOperation((uint32_t)FLASH_TIMEOUT_VALUE);
 138:../Drivers/STM32L4xx_HAL_Driver/Src/stm32l4xx_hal_flash_ex.c **** 
 139:../Drivers/STM32L4xx_HAL_Driver/Src/stm32l4xx_hal_flash_ex.c ****   if (status == HAL_OK)
 140:../Drivers/STM32L4xx_HAL_Driver/Src/stm32l4xx_hal_flash_ex.c ****   {
 141:../Drivers/STM32L4xx_HAL_Driver/Src/stm32l4xx_hal_flash_ex.c ****     pFlash.ErrorCode = HAL_FLASH_ERROR_NONE;
 142:../Drivers/STM32L4xx_HAL_Driver/Src/stm32l4xx_hal_flash_ex.c **** 
 143:../Drivers/STM32L4xx_HAL_Driver/Src/stm32l4xx_hal_flash_ex.c ****     /* Deactivate the cache if they are activated to avoid data misbehavior */
 144:../Drivers/STM32L4xx_HAL_Driver/Src/stm32l4xx_hal_flash_ex.c ****     if(READ_BIT(FLASH->ACR, FLASH_ACR_ICEN) != 0U)
 145:../Drivers/STM32L4xx_HAL_Driver/Src/stm32l4xx_hal_flash_ex.c ****     {
 146:../Drivers/STM32L4xx_HAL_Driver/Src/stm32l4xx_hal_flash_ex.c ****       if(READ_BIT(FLASH->ACR, FLASH_ACR_DCEN) != 0U)
ARM GAS  Build/stm32l4xx_hal_flash_ex.s 			page 4


 147:../Drivers/STM32L4xx_HAL_Driver/Src/stm32l4xx_hal_flash_ex.c ****       {
 148:../Drivers/STM32L4xx_HAL_Driver/Src/stm32l4xx_hal_flash_ex.c ****         /* Disable data cache  */
 149:../Drivers/STM32L4xx_HAL_Driver/Src/stm32l4xx_hal_flash_ex.c ****         __HAL_FLASH_DATA_CACHE_DISABLE();
 150:../Drivers/STM32L4xx_HAL_Driver/Src/stm32l4xx_hal_flash_ex.c ****         pFlash.CacheToReactivate = FLASH_CACHE_ICACHE_DCACHE_ENABLED;
 151:../Drivers/STM32L4xx_HAL_Driver/Src/stm32l4xx_hal_flash_ex.c ****       }
 152:../Drivers/STM32L4xx_HAL_Driver/Src/stm32l4xx_hal_flash_ex.c ****       else
 153:../Drivers/STM32L4xx_HAL_Driver/Src/stm32l4xx_hal_flash_ex.c ****       {
 154:../Drivers/STM32L4xx_HAL_Driver/Src/stm32l4xx_hal_flash_ex.c ****         pFlash.CacheToReactivate = FLASH_CACHE_ICACHE_ENABLED;
 155:../Drivers/STM32L4xx_HAL_Driver/Src/stm32l4xx_hal_flash_ex.c ****       }
 156:../Drivers/STM32L4xx_HAL_Driver/Src/stm32l4xx_hal_flash_ex.c ****     }
 157:../Drivers/STM32L4xx_HAL_Driver/Src/stm32l4xx_hal_flash_ex.c ****     else if(READ_BIT(FLASH->ACR, FLASH_ACR_DCEN) != 0U)
 158:../Drivers/STM32L4xx_HAL_Driver/Src/stm32l4xx_hal_flash_ex.c ****     {
 159:../Drivers/STM32L4xx_HAL_Driver/Src/stm32l4xx_hal_flash_ex.c ****       /* Disable data cache  */
 160:../Drivers/STM32L4xx_HAL_Driver/Src/stm32l4xx_hal_flash_ex.c ****       __HAL_FLASH_DATA_CACHE_DISABLE();
 161:../Drivers/STM32L4xx_HAL_Driver/Src/stm32l4xx_hal_flash_ex.c ****       pFlash.CacheToReactivate = FLASH_CACHE_DCACHE_ENABLED;
 162:../Drivers/STM32L4xx_HAL_Driver/Src/stm32l4xx_hal_flash_ex.c ****     }
 163:../Drivers/STM32L4xx_HAL_Driver/Src/stm32l4xx_hal_flash_ex.c ****     else
 164:../Drivers/STM32L4xx_HAL_Driver/Src/stm32l4xx_hal_flash_ex.c ****     {
 165:../Drivers/STM32L4xx_HAL_Driver/Src/stm32l4xx_hal_flash_ex.c ****       pFlash.CacheToReactivate = FLASH_CACHE_DISABLED;
 166:../Drivers/STM32L4xx_HAL_Driver/Src/stm32l4xx_hal_flash_ex.c ****     }
 167:../Drivers/STM32L4xx_HAL_Driver/Src/stm32l4xx_hal_flash_ex.c **** 
 168:../Drivers/STM32L4xx_HAL_Driver/Src/stm32l4xx_hal_flash_ex.c ****     if (pEraseInit->TypeErase == FLASH_TYPEERASE_MASSERASE)
 169:../Drivers/STM32L4xx_HAL_Driver/Src/stm32l4xx_hal_flash_ex.c ****     {
 170:../Drivers/STM32L4xx_HAL_Driver/Src/stm32l4xx_hal_flash_ex.c ****       /* Mass erase to be done */
 171:../Drivers/STM32L4xx_HAL_Driver/Src/stm32l4xx_hal_flash_ex.c ****       FLASH_MassErase(pEraseInit->Banks);
 172:../Drivers/STM32L4xx_HAL_Driver/Src/stm32l4xx_hal_flash_ex.c **** 
 173:../Drivers/STM32L4xx_HAL_Driver/Src/stm32l4xx_hal_flash_ex.c ****       /* Wait for last operation to be completed */
 174:../Drivers/STM32L4xx_HAL_Driver/Src/stm32l4xx_hal_flash_ex.c ****       status = FLASH_WaitForLastOperation((uint32_t)FLASH_TIMEOUT_VALUE);
 175:../Drivers/STM32L4xx_HAL_Driver/Src/stm32l4xx_hal_flash_ex.c **** 
 176:../Drivers/STM32L4xx_HAL_Driver/Src/stm32l4xx_hal_flash_ex.c **** #if defined (STM32L471xx) || defined (STM32L475xx) || defined (STM32L476xx) || defined (STM32L485xx
 177:../Drivers/STM32L4xx_HAL_Driver/Src/stm32l4xx_hal_flash_ex.c ****     defined (STM32L496xx) || defined (STM32L4A6xx) || \
 178:../Drivers/STM32L4xx_HAL_Driver/Src/stm32l4xx_hal_flash_ex.c ****     defined (STM32L4P5xx) || defined (STM32L4Q5xx) || \
 179:../Drivers/STM32L4xx_HAL_Driver/Src/stm32l4xx_hal_flash_ex.c ****     defined (STM32L4R5xx) || defined (STM32L4R7xx) || defined (STM32L4R9xx) || defined (STM32L4S5xx
 180:../Drivers/STM32L4xx_HAL_Driver/Src/stm32l4xx_hal_flash_ex.c ****       /* If the erase operation is completed, disable the MER1 and MER2 Bits */
 181:../Drivers/STM32L4xx_HAL_Driver/Src/stm32l4xx_hal_flash_ex.c ****       CLEAR_BIT(FLASH->CR, (FLASH_CR_MER1 | FLASH_CR_MER2));
 182:../Drivers/STM32L4xx_HAL_Driver/Src/stm32l4xx_hal_flash_ex.c **** #else
 183:../Drivers/STM32L4xx_HAL_Driver/Src/stm32l4xx_hal_flash_ex.c ****       /* If the erase operation is completed, disable the MER1 Bit */
 184:../Drivers/STM32L4xx_HAL_Driver/Src/stm32l4xx_hal_flash_ex.c ****       CLEAR_BIT(FLASH->CR, (FLASH_CR_MER1));
 185:../Drivers/STM32L4xx_HAL_Driver/Src/stm32l4xx_hal_flash_ex.c **** #endif
 186:../Drivers/STM32L4xx_HAL_Driver/Src/stm32l4xx_hal_flash_ex.c ****     }
 187:../Drivers/STM32L4xx_HAL_Driver/Src/stm32l4xx_hal_flash_ex.c ****     else
 188:../Drivers/STM32L4xx_HAL_Driver/Src/stm32l4xx_hal_flash_ex.c ****     {
 189:../Drivers/STM32L4xx_HAL_Driver/Src/stm32l4xx_hal_flash_ex.c ****       /*Initialization of PageError variable*/
 190:../Drivers/STM32L4xx_HAL_Driver/Src/stm32l4xx_hal_flash_ex.c ****       *PageError = 0xFFFFFFFFU;
 191:../Drivers/STM32L4xx_HAL_Driver/Src/stm32l4xx_hal_flash_ex.c **** 
 192:../Drivers/STM32L4xx_HAL_Driver/Src/stm32l4xx_hal_flash_ex.c ****       for(page_index = pEraseInit->Page; page_index < (pEraseInit->Page + pEraseInit->NbPages); pag
 193:../Drivers/STM32L4xx_HAL_Driver/Src/stm32l4xx_hal_flash_ex.c ****       {
 194:../Drivers/STM32L4xx_HAL_Driver/Src/stm32l4xx_hal_flash_ex.c ****         FLASH_PageErase(page_index, pEraseInit->Banks);
 195:../Drivers/STM32L4xx_HAL_Driver/Src/stm32l4xx_hal_flash_ex.c **** 
 196:../Drivers/STM32L4xx_HAL_Driver/Src/stm32l4xx_hal_flash_ex.c ****         /* Wait for last operation to be completed */
 197:../Drivers/STM32L4xx_HAL_Driver/Src/stm32l4xx_hal_flash_ex.c ****         status = FLASH_WaitForLastOperation((uint32_t)FLASH_TIMEOUT_VALUE);
 198:../Drivers/STM32L4xx_HAL_Driver/Src/stm32l4xx_hal_flash_ex.c **** 
 199:../Drivers/STM32L4xx_HAL_Driver/Src/stm32l4xx_hal_flash_ex.c ****         /* If the erase operation is completed, disable the PER Bit */
 200:../Drivers/STM32L4xx_HAL_Driver/Src/stm32l4xx_hal_flash_ex.c ****         CLEAR_BIT(FLASH->CR, (FLASH_CR_PER | FLASH_CR_PNB));
 201:../Drivers/STM32L4xx_HAL_Driver/Src/stm32l4xx_hal_flash_ex.c **** 
 202:../Drivers/STM32L4xx_HAL_Driver/Src/stm32l4xx_hal_flash_ex.c ****         if (status != HAL_OK)
 203:../Drivers/STM32L4xx_HAL_Driver/Src/stm32l4xx_hal_flash_ex.c ****         {
ARM GAS  Build/stm32l4xx_hal_flash_ex.s 			page 5


 204:../Drivers/STM32L4xx_HAL_Driver/Src/stm32l4xx_hal_flash_ex.c ****           /* In case of error, stop erase procedure and return the faulty address */
 205:../Drivers/STM32L4xx_HAL_Driver/Src/stm32l4xx_hal_flash_ex.c ****           *PageError = page_index;
 206:../Drivers/STM32L4xx_HAL_Driver/Src/stm32l4xx_hal_flash_ex.c ****           break;
 207:../Drivers/STM32L4xx_HAL_Driver/Src/stm32l4xx_hal_flash_ex.c ****         }
 208:../Drivers/STM32L4xx_HAL_Driver/Src/stm32l4xx_hal_flash_ex.c ****       }
 209:../Drivers/STM32L4xx_HAL_Driver/Src/stm32l4xx_hal_flash_ex.c ****     }
 210:../Drivers/STM32L4xx_HAL_Driver/Src/stm32l4xx_hal_flash_ex.c **** 
 211:../Drivers/STM32L4xx_HAL_Driver/Src/stm32l4xx_hal_flash_ex.c ****     /* Flush the caches to be sure of the data consistency */
 212:../Drivers/STM32L4xx_HAL_Driver/Src/stm32l4xx_hal_flash_ex.c ****     FLASH_FlushCaches();
 213:../Drivers/STM32L4xx_HAL_Driver/Src/stm32l4xx_hal_flash_ex.c ****   }
 214:../Drivers/STM32L4xx_HAL_Driver/Src/stm32l4xx_hal_flash_ex.c **** 
 215:../Drivers/STM32L4xx_HAL_Driver/Src/stm32l4xx_hal_flash_ex.c ****   /* Process Unlocked */
 216:../Drivers/STM32L4xx_HAL_Driver/Src/stm32l4xx_hal_flash_ex.c ****   __HAL_UNLOCK(&pFlash);
 217:../Drivers/STM32L4xx_HAL_Driver/Src/stm32l4xx_hal_flash_ex.c **** 
 218:../Drivers/STM32L4xx_HAL_Driver/Src/stm32l4xx_hal_flash_ex.c ****   return status;
 219:../Drivers/STM32L4xx_HAL_Driver/Src/stm32l4xx_hal_flash_ex.c **** }
 220:../Drivers/STM32L4xx_HAL_Driver/Src/stm32l4xx_hal_flash_ex.c **** 
 221:../Drivers/STM32L4xx_HAL_Driver/Src/stm32l4xx_hal_flash_ex.c **** /**
 222:../Drivers/STM32L4xx_HAL_Driver/Src/stm32l4xx_hal_flash_ex.c ****   * @brief  Perform a mass erase or erase the specified FLASH memory pages with interrupt enabled.
 223:../Drivers/STM32L4xx_HAL_Driver/Src/stm32l4xx_hal_flash_ex.c ****   * @param  pEraseInit pointer to an FLASH_EraseInitTypeDef structure that
 224:../Drivers/STM32L4xx_HAL_Driver/Src/stm32l4xx_hal_flash_ex.c ****   *         contains the configuration information for the erasing.
 225:../Drivers/STM32L4xx_HAL_Driver/Src/stm32l4xx_hal_flash_ex.c ****   *
 226:../Drivers/STM32L4xx_HAL_Driver/Src/stm32l4xx_hal_flash_ex.c ****   * @retval HAL Status
 227:../Drivers/STM32L4xx_HAL_Driver/Src/stm32l4xx_hal_flash_ex.c ****   */
 228:../Drivers/STM32L4xx_HAL_Driver/Src/stm32l4xx_hal_flash_ex.c **** HAL_StatusTypeDef HAL_FLASHEx_Erase_IT(FLASH_EraseInitTypeDef *pEraseInit)
 229:../Drivers/STM32L4xx_HAL_Driver/Src/stm32l4xx_hal_flash_ex.c **** {
 230:../Drivers/STM32L4xx_HAL_Driver/Src/stm32l4xx_hal_flash_ex.c ****   HAL_StatusTypeDef status = HAL_OK;
 231:../Drivers/STM32L4xx_HAL_Driver/Src/stm32l4xx_hal_flash_ex.c **** 
 232:../Drivers/STM32L4xx_HAL_Driver/Src/stm32l4xx_hal_flash_ex.c ****   /* Process Locked */
 233:../Drivers/STM32L4xx_HAL_Driver/Src/stm32l4xx_hal_flash_ex.c ****   __HAL_LOCK(&pFlash);
 234:../Drivers/STM32L4xx_HAL_Driver/Src/stm32l4xx_hal_flash_ex.c **** 
 235:../Drivers/STM32L4xx_HAL_Driver/Src/stm32l4xx_hal_flash_ex.c ****   /* Check the parameters */
 236:../Drivers/STM32L4xx_HAL_Driver/Src/stm32l4xx_hal_flash_ex.c ****   assert_param(IS_FLASH_TYPEERASE(pEraseInit->TypeErase));
 237:../Drivers/STM32L4xx_HAL_Driver/Src/stm32l4xx_hal_flash_ex.c **** 
 238:../Drivers/STM32L4xx_HAL_Driver/Src/stm32l4xx_hal_flash_ex.c ****   pFlash.ErrorCode = HAL_FLASH_ERROR_NONE;
 239:../Drivers/STM32L4xx_HAL_Driver/Src/stm32l4xx_hal_flash_ex.c **** 
 240:../Drivers/STM32L4xx_HAL_Driver/Src/stm32l4xx_hal_flash_ex.c ****   /* Deactivate the cache if they are activated to avoid data misbehavior */
 241:../Drivers/STM32L4xx_HAL_Driver/Src/stm32l4xx_hal_flash_ex.c ****   if(READ_BIT(FLASH->ACR, FLASH_ACR_ICEN) != 0U)
 242:../Drivers/STM32L4xx_HAL_Driver/Src/stm32l4xx_hal_flash_ex.c ****   {
 243:../Drivers/STM32L4xx_HAL_Driver/Src/stm32l4xx_hal_flash_ex.c ****     if(READ_BIT(FLASH->ACR, FLASH_ACR_DCEN) != 0U)
 244:../Drivers/STM32L4xx_HAL_Driver/Src/stm32l4xx_hal_flash_ex.c ****     {
 245:../Drivers/STM32L4xx_HAL_Driver/Src/stm32l4xx_hal_flash_ex.c ****       /* Disable data cache  */
 246:../Drivers/STM32L4xx_HAL_Driver/Src/stm32l4xx_hal_flash_ex.c ****       __HAL_FLASH_DATA_CACHE_DISABLE();
 247:../Drivers/STM32L4xx_HAL_Driver/Src/stm32l4xx_hal_flash_ex.c ****       pFlash.CacheToReactivate = FLASH_CACHE_ICACHE_DCACHE_ENABLED;
 248:../Drivers/STM32L4xx_HAL_Driver/Src/stm32l4xx_hal_flash_ex.c ****     }
 249:../Drivers/STM32L4xx_HAL_Driver/Src/stm32l4xx_hal_flash_ex.c ****     else
 250:../Drivers/STM32L4xx_HAL_Driver/Src/stm32l4xx_hal_flash_ex.c ****     {
 251:../Drivers/STM32L4xx_HAL_Driver/Src/stm32l4xx_hal_flash_ex.c ****       pFlash.CacheToReactivate = FLASH_CACHE_ICACHE_ENABLED;
 252:../Drivers/STM32L4xx_HAL_Driver/Src/stm32l4xx_hal_flash_ex.c ****     }
 253:../Drivers/STM32L4xx_HAL_Driver/Src/stm32l4xx_hal_flash_ex.c ****   }
 254:../Drivers/STM32L4xx_HAL_Driver/Src/stm32l4xx_hal_flash_ex.c ****   else if(READ_BIT(FLASH->ACR, FLASH_ACR_DCEN) != 0U)
 255:../Drivers/STM32L4xx_HAL_Driver/Src/stm32l4xx_hal_flash_ex.c ****   {
 256:../Drivers/STM32L4xx_HAL_Driver/Src/stm32l4xx_hal_flash_ex.c ****     /* Disable data cache  */
 257:../Drivers/STM32L4xx_HAL_Driver/Src/stm32l4xx_hal_flash_ex.c ****     __HAL_FLASH_DATA_CACHE_DISABLE();
 258:../Drivers/STM32L4xx_HAL_Driver/Src/stm32l4xx_hal_flash_ex.c ****     pFlash.CacheToReactivate = FLASH_CACHE_DCACHE_ENABLED;
 259:../Drivers/STM32L4xx_HAL_Driver/Src/stm32l4xx_hal_flash_ex.c ****   }
 260:../Drivers/STM32L4xx_HAL_Driver/Src/stm32l4xx_hal_flash_ex.c ****   else
ARM GAS  Build/stm32l4xx_hal_flash_ex.s 			page 6


 261:../Drivers/STM32L4xx_HAL_Driver/Src/stm32l4xx_hal_flash_ex.c ****   {
 262:../Drivers/STM32L4xx_HAL_Driver/Src/stm32l4xx_hal_flash_ex.c ****     pFlash.CacheToReactivate = FLASH_CACHE_DISABLED;
 263:../Drivers/STM32L4xx_HAL_Driver/Src/stm32l4xx_hal_flash_ex.c ****   }
 264:../Drivers/STM32L4xx_HAL_Driver/Src/stm32l4xx_hal_flash_ex.c **** 
 265:../Drivers/STM32L4xx_HAL_Driver/Src/stm32l4xx_hal_flash_ex.c ****   /* Enable End of Operation and Error interrupts */
 266:../Drivers/STM32L4xx_HAL_Driver/Src/stm32l4xx_hal_flash_ex.c ****   __HAL_FLASH_ENABLE_IT(FLASH_IT_EOP | FLASH_IT_OPERR);
 267:../Drivers/STM32L4xx_HAL_Driver/Src/stm32l4xx_hal_flash_ex.c **** 
 268:../Drivers/STM32L4xx_HAL_Driver/Src/stm32l4xx_hal_flash_ex.c ****   pFlash.Bank = pEraseInit->Banks;
 269:../Drivers/STM32L4xx_HAL_Driver/Src/stm32l4xx_hal_flash_ex.c **** 
 270:../Drivers/STM32L4xx_HAL_Driver/Src/stm32l4xx_hal_flash_ex.c ****   if (pEraseInit->TypeErase == FLASH_TYPEERASE_MASSERASE)
 271:../Drivers/STM32L4xx_HAL_Driver/Src/stm32l4xx_hal_flash_ex.c ****   {
 272:../Drivers/STM32L4xx_HAL_Driver/Src/stm32l4xx_hal_flash_ex.c ****     /* Mass erase to be done */
 273:../Drivers/STM32L4xx_HAL_Driver/Src/stm32l4xx_hal_flash_ex.c ****     pFlash.ProcedureOnGoing = FLASH_PROC_MASS_ERASE;
 274:../Drivers/STM32L4xx_HAL_Driver/Src/stm32l4xx_hal_flash_ex.c ****     FLASH_MassErase(pEraseInit->Banks);
 275:../Drivers/STM32L4xx_HAL_Driver/Src/stm32l4xx_hal_flash_ex.c ****   }
 276:../Drivers/STM32L4xx_HAL_Driver/Src/stm32l4xx_hal_flash_ex.c ****   else
 277:../Drivers/STM32L4xx_HAL_Driver/Src/stm32l4xx_hal_flash_ex.c ****   {
 278:../Drivers/STM32L4xx_HAL_Driver/Src/stm32l4xx_hal_flash_ex.c ****     /* Erase by page to be done */
 279:../Drivers/STM32L4xx_HAL_Driver/Src/stm32l4xx_hal_flash_ex.c ****     pFlash.ProcedureOnGoing = FLASH_PROC_PAGE_ERASE;
 280:../Drivers/STM32L4xx_HAL_Driver/Src/stm32l4xx_hal_flash_ex.c ****     pFlash.NbPagesToErase = pEraseInit->NbPages;
 281:../Drivers/STM32L4xx_HAL_Driver/Src/stm32l4xx_hal_flash_ex.c ****     pFlash.Page = pEraseInit->Page;
 282:../Drivers/STM32L4xx_HAL_Driver/Src/stm32l4xx_hal_flash_ex.c **** 
 283:../Drivers/STM32L4xx_HAL_Driver/Src/stm32l4xx_hal_flash_ex.c ****     /*Erase 1st page and wait for IT */
 284:../Drivers/STM32L4xx_HAL_Driver/Src/stm32l4xx_hal_flash_ex.c ****     FLASH_PageErase(pEraseInit->Page, pEraseInit->Banks);
 285:../Drivers/STM32L4xx_HAL_Driver/Src/stm32l4xx_hal_flash_ex.c ****   }
 286:../Drivers/STM32L4xx_HAL_Driver/Src/stm32l4xx_hal_flash_ex.c **** 
 287:../Drivers/STM32L4xx_HAL_Driver/Src/stm32l4xx_hal_flash_ex.c ****   return status;
 288:../Drivers/STM32L4xx_HAL_Driver/Src/stm32l4xx_hal_flash_ex.c **** }
 289:../Drivers/STM32L4xx_HAL_Driver/Src/stm32l4xx_hal_flash_ex.c **** 
 290:../Drivers/STM32L4xx_HAL_Driver/Src/stm32l4xx_hal_flash_ex.c **** /**
 291:../Drivers/STM32L4xx_HAL_Driver/Src/stm32l4xx_hal_flash_ex.c ****   * @brief  Program Option bytes.
 292:../Drivers/STM32L4xx_HAL_Driver/Src/stm32l4xx_hal_flash_ex.c ****   * @param  pOBInit pointer to an FLASH_OBInitStruct structure that
 293:../Drivers/STM32L4xx_HAL_Driver/Src/stm32l4xx_hal_flash_ex.c ****   *         contains the configuration information for the programming.
 294:../Drivers/STM32L4xx_HAL_Driver/Src/stm32l4xx_hal_flash_ex.c ****   *
 295:../Drivers/STM32L4xx_HAL_Driver/Src/stm32l4xx_hal_flash_ex.c ****   * @retval HAL Status
 296:../Drivers/STM32L4xx_HAL_Driver/Src/stm32l4xx_hal_flash_ex.c ****   */
 297:../Drivers/STM32L4xx_HAL_Driver/Src/stm32l4xx_hal_flash_ex.c **** HAL_StatusTypeDef HAL_FLASHEx_OBProgram(FLASH_OBProgramInitTypeDef *pOBInit)
 298:../Drivers/STM32L4xx_HAL_Driver/Src/stm32l4xx_hal_flash_ex.c **** {
 299:../Drivers/STM32L4xx_HAL_Driver/Src/stm32l4xx_hal_flash_ex.c ****   HAL_StatusTypeDef status = HAL_OK;
 300:../Drivers/STM32L4xx_HAL_Driver/Src/stm32l4xx_hal_flash_ex.c **** 
 301:../Drivers/STM32L4xx_HAL_Driver/Src/stm32l4xx_hal_flash_ex.c ****   /* Process Locked */
 302:../Drivers/STM32L4xx_HAL_Driver/Src/stm32l4xx_hal_flash_ex.c ****   __HAL_LOCK(&pFlash);
 303:../Drivers/STM32L4xx_HAL_Driver/Src/stm32l4xx_hal_flash_ex.c **** 
 304:../Drivers/STM32L4xx_HAL_Driver/Src/stm32l4xx_hal_flash_ex.c ****   /* Check the parameters */
 305:../Drivers/STM32L4xx_HAL_Driver/Src/stm32l4xx_hal_flash_ex.c ****   assert_param(IS_OPTIONBYTE(pOBInit->OptionType));
 306:../Drivers/STM32L4xx_HAL_Driver/Src/stm32l4xx_hal_flash_ex.c **** 
 307:../Drivers/STM32L4xx_HAL_Driver/Src/stm32l4xx_hal_flash_ex.c ****   pFlash.ErrorCode = HAL_FLASH_ERROR_NONE;
 308:../Drivers/STM32L4xx_HAL_Driver/Src/stm32l4xx_hal_flash_ex.c **** 
 309:../Drivers/STM32L4xx_HAL_Driver/Src/stm32l4xx_hal_flash_ex.c ****   /* Write protection configuration */
 310:../Drivers/STM32L4xx_HAL_Driver/Src/stm32l4xx_hal_flash_ex.c ****   if((pOBInit->OptionType & OPTIONBYTE_WRP) != 0U)
 311:../Drivers/STM32L4xx_HAL_Driver/Src/stm32l4xx_hal_flash_ex.c ****   {
 312:../Drivers/STM32L4xx_HAL_Driver/Src/stm32l4xx_hal_flash_ex.c ****     /* Configure of Write protection on the selected area */
 313:../Drivers/STM32L4xx_HAL_Driver/Src/stm32l4xx_hal_flash_ex.c ****     if(FLASH_OB_WRPConfig(pOBInit->WRPArea, pOBInit->WRPStartOffset, pOBInit->WRPEndOffset) != HAL_
 314:../Drivers/STM32L4xx_HAL_Driver/Src/stm32l4xx_hal_flash_ex.c ****     {
 315:../Drivers/STM32L4xx_HAL_Driver/Src/stm32l4xx_hal_flash_ex.c ****       status = HAL_ERROR;
 316:../Drivers/STM32L4xx_HAL_Driver/Src/stm32l4xx_hal_flash_ex.c ****     }
 317:../Drivers/STM32L4xx_HAL_Driver/Src/stm32l4xx_hal_flash_ex.c **** 
ARM GAS  Build/stm32l4xx_hal_flash_ex.s 			page 7


 318:../Drivers/STM32L4xx_HAL_Driver/Src/stm32l4xx_hal_flash_ex.c ****   }
 319:../Drivers/STM32L4xx_HAL_Driver/Src/stm32l4xx_hal_flash_ex.c **** 
 320:../Drivers/STM32L4xx_HAL_Driver/Src/stm32l4xx_hal_flash_ex.c ****   /* Read protection configuration */
 321:../Drivers/STM32L4xx_HAL_Driver/Src/stm32l4xx_hal_flash_ex.c ****   if((pOBInit->OptionType & OPTIONBYTE_RDP) != 0U)
 322:../Drivers/STM32L4xx_HAL_Driver/Src/stm32l4xx_hal_flash_ex.c ****   {
 323:../Drivers/STM32L4xx_HAL_Driver/Src/stm32l4xx_hal_flash_ex.c ****     /* Configure the Read protection level */
 324:../Drivers/STM32L4xx_HAL_Driver/Src/stm32l4xx_hal_flash_ex.c ****     if(FLASH_OB_RDPConfig(pOBInit->RDPLevel) != HAL_OK)
 325:../Drivers/STM32L4xx_HAL_Driver/Src/stm32l4xx_hal_flash_ex.c ****     {
 326:../Drivers/STM32L4xx_HAL_Driver/Src/stm32l4xx_hal_flash_ex.c ****       status = HAL_ERROR;
 327:../Drivers/STM32L4xx_HAL_Driver/Src/stm32l4xx_hal_flash_ex.c ****     }
 328:../Drivers/STM32L4xx_HAL_Driver/Src/stm32l4xx_hal_flash_ex.c ****   }
 329:../Drivers/STM32L4xx_HAL_Driver/Src/stm32l4xx_hal_flash_ex.c **** 
 330:../Drivers/STM32L4xx_HAL_Driver/Src/stm32l4xx_hal_flash_ex.c ****   /* User Configuration */
 331:../Drivers/STM32L4xx_HAL_Driver/Src/stm32l4xx_hal_flash_ex.c ****   if((pOBInit->OptionType & OPTIONBYTE_USER) != 0U)
 332:../Drivers/STM32L4xx_HAL_Driver/Src/stm32l4xx_hal_flash_ex.c ****   {
 333:../Drivers/STM32L4xx_HAL_Driver/Src/stm32l4xx_hal_flash_ex.c ****     /* Configure the user option bytes */
 334:../Drivers/STM32L4xx_HAL_Driver/Src/stm32l4xx_hal_flash_ex.c ****     if(FLASH_OB_UserConfig(pOBInit->USERType, pOBInit->USERConfig) != HAL_OK)
 335:../Drivers/STM32L4xx_HAL_Driver/Src/stm32l4xx_hal_flash_ex.c ****     {
 336:../Drivers/STM32L4xx_HAL_Driver/Src/stm32l4xx_hal_flash_ex.c ****       status = HAL_ERROR;
 337:../Drivers/STM32L4xx_HAL_Driver/Src/stm32l4xx_hal_flash_ex.c ****     }
 338:../Drivers/STM32L4xx_HAL_Driver/Src/stm32l4xx_hal_flash_ex.c ****   }
 339:../Drivers/STM32L4xx_HAL_Driver/Src/stm32l4xx_hal_flash_ex.c **** 
 340:../Drivers/STM32L4xx_HAL_Driver/Src/stm32l4xx_hal_flash_ex.c ****   /* PCROP Configuration */
 341:../Drivers/STM32L4xx_HAL_Driver/Src/stm32l4xx_hal_flash_ex.c ****   if((pOBInit->OptionType & OPTIONBYTE_PCROP) != 0U)
 342:../Drivers/STM32L4xx_HAL_Driver/Src/stm32l4xx_hal_flash_ex.c ****   {
 343:../Drivers/STM32L4xx_HAL_Driver/Src/stm32l4xx_hal_flash_ex.c ****     if (pOBInit->PCROPStartAddr != pOBInit->PCROPEndAddr)
 344:../Drivers/STM32L4xx_HAL_Driver/Src/stm32l4xx_hal_flash_ex.c ****     {
 345:../Drivers/STM32L4xx_HAL_Driver/Src/stm32l4xx_hal_flash_ex.c ****       /* Configure the Proprietary code readout protection */
 346:../Drivers/STM32L4xx_HAL_Driver/Src/stm32l4xx_hal_flash_ex.c ****       if(FLASH_OB_PCROPConfig(pOBInit->PCROPConfig, pOBInit->PCROPStartAddr, pOBInit->PCROPEndAddr)
 347:../Drivers/STM32L4xx_HAL_Driver/Src/stm32l4xx_hal_flash_ex.c ****       {
 348:../Drivers/STM32L4xx_HAL_Driver/Src/stm32l4xx_hal_flash_ex.c ****         status = HAL_ERROR;
 349:../Drivers/STM32L4xx_HAL_Driver/Src/stm32l4xx_hal_flash_ex.c ****       }
 350:../Drivers/STM32L4xx_HAL_Driver/Src/stm32l4xx_hal_flash_ex.c ****     }
 351:../Drivers/STM32L4xx_HAL_Driver/Src/stm32l4xx_hal_flash_ex.c ****   }
 352:../Drivers/STM32L4xx_HAL_Driver/Src/stm32l4xx_hal_flash_ex.c **** 
 353:../Drivers/STM32L4xx_HAL_Driver/Src/stm32l4xx_hal_flash_ex.c ****   /* Process Unlocked */
 354:../Drivers/STM32L4xx_HAL_Driver/Src/stm32l4xx_hal_flash_ex.c ****   __HAL_UNLOCK(&pFlash);
 355:../Drivers/STM32L4xx_HAL_Driver/Src/stm32l4xx_hal_flash_ex.c **** 
 356:../Drivers/STM32L4xx_HAL_Driver/Src/stm32l4xx_hal_flash_ex.c ****   return status;
 357:../Drivers/STM32L4xx_HAL_Driver/Src/stm32l4xx_hal_flash_ex.c **** }
 358:../Drivers/STM32L4xx_HAL_Driver/Src/stm32l4xx_hal_flash_ex.c **** 
 359:../Drivers/STM32L4xx_HAL_Driver/Src/stm32l4xx_hal_flash_ex.c **** /**
 360:../Drivers/STM32L4xx_HAL_Driver/Src/stm32l4xx_hal_flash_ex.c ****   * @brief  Get the Option bytes configuration.
 361:../Drivers/STM32L4xx_HAL_Driver/Src/stm32l4xx_hal_flash_ex.c ****   * @param  pOBInit pointer to an FLASH_OBInitStruct structure that contains the
 362:../Drivers/STM32L4xx_HAL_Driver/Src/stm32l4xx_hal_flash_ex.c ****   *                  configuration information.
 363:../Drivers/STM32L4xx_HAL_Driver/Src/stm32l4xx_hal_flash_ex.c ****   * @note   The fields pOBInit->WRPArea and pOBInit->PCROPConfig should indicate
 364:../Drivers/STM32L4xx_HAL_Driver/Src/stm32l4xx_hal_flash_ex.c ****   *         which area is requested for the WRP and PCROP, else no information will be returned
 365:../Drivers/STM32L4xx_HAL_Driver/Src/stm32l4xx_hal_flash_ex.c ****   *
 366:../Drivers/STM32L4xx_HAL_Driver/Src/stm32l4xx_hal_flash_ex.c ****   * @retval None
 367:../Drivers/STM32L4xx_HAL_Driver/Src/stm32l4xx_hal_flash_ex.c ****   */
 368:../Drivers/STM32L4xx_HAL_Driver/Src/stm32l4xx_hal_flash_ex.c **** void HAL_FLASHEx_OBGetConfig(FLASH_OBProgramInitTypeDef *pOBInit)
 369:../Drivers/STM32L4xx_HAL_Driver/Src/stm32l4xx_hal_flash_ex.c **** {
 370:../Drivers/STM32L4xx_HAL_Driver/Src/stm32l4xx_hal_flash_ex.c ****   pOBInit->OptionType = (OPTIONBYTE_RDP | OPTIONBYTE_USER);
 371:../Drivers/STM32L4xx_HAL_Driver/Src/stm32l4xx_hal_flash_ex.c **** 
 372:../Drivers/STM32L4xx_HAL_Driver/Src/stm32l4xx_hal_flash_ex.c **** #if defined (STM32L471xx) || defined (STM32L475xx) || defined (STM32L476xx) || defined (STM32L485xx
 373:../Drivers/STM32L4xx_HAL_Driver/Src/stm32l4xx_hal_flash_ex.c ****     defined (STM32L496xx) || defined (STM32L4A6xx) || \
 374:../Drivers/STM32L4xx_HAL_Driver/Src/stm32l4xx_hal_flash_ex.c ****     defined (STM32L4P5xx) || defined (STM32L4Q5xx) || \
ARM GAS  Build/stm32l4xx_hal_flash_ex.s 			page 8


 375:../Drivers/STM32L4xx_HAL_Driver/Src/stm32l4xx_hal_flash_ex.c ****     defined (STM32L4R5xx) || defined (STM32L4R7xx) || defined (STM32L4R9xx) || defined (STM32L4S5xx
 376:../Drivers/STM32L4xx_HAL_Driver/Src/stm32l4xx_hal_flash_ex.c ****   if((pOBInit->WRPArea == OB_WRPAREA_BANK1_AREAA) || (pOBInit->WRPArea == OB_WRPAREA_BANK1_AREAB) |
 377:../Drivers/STM32L4xx_HAL_Driver/Src/stm32l4xx_hal_flash_ex.c ****      (pOBInit->WRPArea == OB_WRPAREA_BANK2_AREAA) || (pOBInit->WRPArea == OB_WRPAREA_BANK2_AREAB))
 378:../Drivers/STM32L4xx_HAL_Driver/Src/stm32l4xx_hal_flash_ex.c **** #else
 379:../Drivers/STM32L4xx_HAL_Driver/Src/stm32l4xx_hal_flash_ex.c ****   if((pOBInit->WRPArea == OB_WRPAREA_BANK1_AREAA) || (pOBInit->WRPArea == OB_WRPAREA_BANK1_AREAB))
 380:../Drivers/STM32L4xx_HAL_Driver/Src/stm32l4xx_hal_flash_ex.c **** #endif
 381:../Drivers/STM32L4xx_HAL_Driver/Src/stm32l4xx_hal_flash_ex.c ****   {
 382:../Drivers/STM32L4xx_HAL_Driver/Src/stm32l4xx_hal_flash_ex.c ****     pOBInit->OptionType |= OPTIONBYTE_WRP;
 383:../Drivers/STM32L4xx_HAL_Driver/Src/stm32l4xx_hal_flash_ex.c ****     /* Get write protection on the selected area */
 384:../Drivers/STM32L4xx_HAL_Driver/Src/stm32l4xx_hal_flash_ex.c ****     FLASH_OB_GetWRP(pOBInit->WRPArea, &(pOBInit->WRPStartOffset), &(pOBInit->WRPEndOffset));
 385:../Drivers/STM32L4xx_HAL_Driver/Src/stm32l4xx_hal_flash_ex.c ****   }
 386:../Drivers/STM32L4xx_HAL_Driver/Src/stm32l4xx_hal_flash_ex.c **** 
 387:../Drivers/STM32L4xx_HAL_Driver/Src/stm32l4xx_hal_flash_ex.c ****   /* Get Read protection level */
 388:../Drivers/STM32L4xx_HAL_Driver/Src/stm32l4xx_hal_flash_ex.c ****   pOBInit->RDPLevel = FLASH_OB_GetRDP();
 389:../Drivers/STM32L4xx_HAL_Driver/Src/stm32l4xx_hal_flash_ex.c **** 
 390:../Drivers/STM32L4xx_HAL_Driver/Src/stm32l4xx_hal_flash_ex.c ****   /* Get the user option bytes */
 391:../Drivers/STM32L4xx_HAL_Driver/Src/stm32l4xx_hal_flash_ex.c ****   pOBInit->USERConfig = FLASH_OB_GetUser();
 392:../Drivers/STM32L4xx_HAL_Driver/Src/stm32l4xx_hal_flash_ex.c **** 
 393:../Drivers/STM32L4xx_HAL_Driver/Src/stm32l4xx_hal_flash_ex.c **** #if defined (STM32L471xx) || defined (STM32L475xx) || defined (STM32L476xx) || defined (STM32L485xx
 394:../Drivers/STM32L4xx_HAL_Driver/Src/stm32l4xx_hal_flash_ex.c ****     defined (STM32L496xx) || defined (STM32L4A6xx) || \
 395:../Drivers/STM32L4xx_HAL_Driver/Src/stm32l4xx_hal_flash_ex.c ****     defined (STM32L4P5xx) || defined (STM32L4Q5xx) || \
 396:../Drivers/STM32L4xx_HAL_Driver/Src/stm32l4xx_hal_flash_ex.c ****     defined (STM32L4R5xx) || defined (STM32L4R7xx) || defined (STM32L4R9xx) || defined (STM32L4S5xx
 397:../Drivers/STM32L4xx_HAL_Driver/Src/stm32l4xx_hal_flash_ex.c ****   if((pOBInit->PCROPConfig == FLASH_BANK_1) || (pOBInit->PCROPConfig == FLASH_BANK_2))
 398:../Drivers/STM32L4xx_HAL_Driver/Src/stm32l4xx_hal_flash_ex.c **** #else
 399:../Drivers/STM32L4xx_HAL_Driver/Src/stm32l4xx_hal_flash_ex.c ****   if(pOBInit->PCROPConfig == FLASH_BANK_1)
 400:../Drivers/STM32L4xx_HAL_Driver/Src/stm32l4xx_hal_flash_ex.c **** #endif
 401:../Drivers/STM32L4xx_HAL_Driver/Src/stm32l4xx_hal_flash_ex.c ****   {
 402:../Drivers/STM32L4xx_HAL_Driver/Src/stm32l4xx_hal_flash_ex.c ****     pOBInit->OptionType |= OPTIONBYTE_PCROP;
 403:../Drivers/STM32L4xx_HAL_Driver/Src/stm32l4xx_hal_flash_ex.c ****     /* Get the Proprietary code readout protection */
 404:../Drivers/STM32L4xx_HAL_Driver/Src/stm32l4xx_hal_flash_ex.c ****     FLASH_OB_GetPCROP(&(pOBInit->PCROPConfig), &(pOBInit->PCROPStartAddr), &(pOBInit->PCROPEndAddr)
 405:../Drivers/STM32L4xx_HAL_Driver/Src/stm32l4xx_hal_flash_ex.c ****   }
 406:../Drivers/STM32L4xx_HAL_Driver/Src/stm32l4xx_hal_flash_ex.c **** }
 407:../Drivers/STM32L4xx_HAL_Driver/Src/stm32l4xx_hal_flash_ex.c **** 
 408:../Drivers/STM32L4xx_HAL_Driver/Src/stm32l4xx_hal_flash_ex.c **** /**
 409:../Drivers/STM32L4xx_HAL_Driver/Src/stm32l4xx_hal_flash_ex.c ****   * @}
 410:../Drivers/STM32L4xx_HAL_Driver/Src/stm32l4xx_hal_flash_ex.c ****   */
 411:../Drivers/STM32L4xx_HAL_Driver/Src/stm32l4xx_hal_flash_ex.c **** 
 412:../Drivers/STM32L4xx_HAL_Driver/Src/stm32l4xx_hal_flash_ex.c **** #if defined (FLASH_CFGR_LVEN)
 413:../Drivers/STM32L4xx_HAL_Driver/Src/stm32l4xx_hal_flash_ex.c **** /** @defgroup FLASHEx_Exported_Functions_Group2 Extended specific configuration functions
 414:../Drivers/STM32L4xx_HAL_Driver/Src/stm32l4xx_hal_flash_ex.c ****  *  @brief   Extended specific configuration functions
 415:../Drivers/STM32L4xx_HAL_Driver/Src/stm32l4xx_hal_flash_ex.c ****  *
 416:../Drivers/STM32L4xx_HAL_Driver/Src/stm32l4xx_hal_flash_ex.c **** @verbatim
 417:../Drivers/STM32L4xx_HAL_Driver/Src/stm32l4xx_hal_flash_ex.c ****  ===============================================================================
 418:../Drivers/STM32L4xx_HAL_Driver/Src/stm32l4xx_hal_flash_ex.c ****                 ##### Extended specific configuration functions #####
 419:../Drivers/STM32L4xx_HAL_Driver/Src/stm32l4xx_hal_flash_ex.c ****  ===============================================================================
 420:../Drivers/STM32L4xx_HAL_Driver/Src/stm32l4xx_hal_flash_ex.c ****     [..]
 421:../Drivers/STM32L4xx_HAL_Driver/Src/stm32l4xx_hal_flash_ex.c ****     This subsection provides a set of functions allowing to manage the Extended FLASH
 422:../Drivers/STM32L4xx_HAL_Driver/Src/stm32l4xx_hal_flash_ex.c ****     specific configurations.
 423:../Drivers/STM32L4xx_HAL_Driver/Src/stm32l4xx_hal_flash_ex.c **** 
 424:../Drivers/STM32L4xx_HAL_Driver/Src/stm32l4xx_hal_flash_ex.c **** @endverbatim
 425:../Drivers/STM32L4xx_HAL_Driver/Src/stm32l4xx_hal_flash_ex.c ****   * @{
 426:../Drivers/STM32L4xx_HAL_Driver/Src/stm32l4xx_hal_flash_ex.c ****   */
 427:../Drivers/STM32L4xx_HAL_Driver/Src/stm32l4xx_hal_flash_ex.c **** 
 428:../Drivers/STM32L4xx_HAL_Driver/Src/stm32l4xx_hal_flash_ex.c **** /**
 429:../Drivers/STM32L4xx_HAL_Driver/Src/stm32l4xx_hal_flash_ex.c ****   * @brief  Configuration of the LVE pin of the Flash (managed by power controller
 430:../Drivers/STM32L4xx_HAL_Driver/Src/stm32l4xx_hal_flash_ex.c ****   *         or forced to low in order to use an external SMPS)
 431:../Drivers/STM32L4xx_HAL_Driver/Src/stm32l4xx_hal_flash_ex.c ****   * @param  ConfigLVE Configuration of the LVE pin,
ARM GAS  Build/stm32l4xx_hal_flash_ex.s 			page 9


 432:../Drivers/STM32L4xx_HAL_Driver/Src/stm32l4xx_hal_flash_ex.c ****   *              This parameter can be one of the following values:
 433:../Drivers/STM32L4xx_HAL_Driver/Src/stm32l4xx_hal_flash_ex.c ****   *                @arg FLASH_LVE_PIN_CTRL: LVE FLASH pin controlled by power controller
 434:../Drivers/STM32L4xx_HAL_Driver/Src/stm32l4xx_hal_flash_ex.c ****   *                @arg FLASH_LVE_PIN_FORCED: LVE FLASH pin enforced to low (external SMPS used)
 435:../Drivers/STM32L4xx_HAL_Driver/Src/stm32l4xx_hal_flash_ex.c ****   *
 436:../Drivers/STM32L4xx_HAL_Driver/Src/stm32l4xx_hal_flash_ex.c ****   * @note   Before enforcing the LVE pin to low, the SOC should be in low voltage
 437:../Drivers/STM32L4xx_HAL_Driver/Src/stm32l4xx_hal_flash_ex.c ****   *         range 2 and the voltage VDD12 should be higher than 1.08V and SMPS is ON.
 438:../Drivers/STM32L4xx_HAL_Driver/Src/stm32l4xx_hal_flash_ex.c ****   *
 439:../Drivers/STM32L4xx_HAL_Driver/Src/stm32l4xx_hal_flash_ex.c ****   * @retval HAL Status
 440:../Drivers/STM32L4xx_HAL_Driver/Src/stm32l4xx_hal_flash_ex.c ****   */
 441:../Drivers/STM32L4xx_HAL_Driver/Src/stm32l4xx_hal_flash_ex.c **** HAL_StatusTypeDef HAL_FLASHEx_ConfigLVEPin(uint32_t ConfigLVE)
 442:../Drivers/STM32L4xx_HAL_Driver/Src/stm32l4xx_hal_flash_ex.c **** {
 443:../Drivers/STM32L4xx_HAL_Driver/Src/stm32l4xx_hal_flash_ex.c ****   HAL_StatusTypeDef status;
 444:../Drivers/STM32L4xx_HAL_Driver/Src/stm32l4xx_hal_flash_ex.c **** 
 445:../Drivers/STM32L4xx_HAL_Driver/Src/stm32l4xx_hal_flash_ex.c ****   /* Process Locked */
 446:../Drivers/STM32L4xx_HAL_Driver/Src/stm32l4xx_hal_flash_ex.c ****   __HAL_LOCK(&pFlash);
 447:../Drivers/STM32L4xx_HAL_Driver/Src/stm32l4xx_hal_flash_ex.c **** 
 448:../Drivers/STM32L4xx_HAL_Driver/Src/stm32l4xx_hal_flash_ex.c ****   /* Check the parameters */
 449:../Drivers/STM32L4xx_HAL_Driver/Src/stm32l4xx_hal_flash_ex.c ****   assert_param(IS_FLASH_LVE_PIN(ConfigLVE));
 450:../Drivers/STM32L4xx_HAL_Driver/Src/stm32l4xx_hal_flash_ex.c **** 
 451:../Drivers/STM32L4xx_HAL_Driver/Src/stm32l4xx_hal_flash_ex.c ****   /* Wait for last operation to be completed */
 452:../Drivers/STM32L4xx_HAL_Driver/Src/stm32l4xx_hal_flash_ex.c ****   status = FLASH_WaitForLastOperation((uint32_t)FLASH_TIMEOUT_VALUE);
 453:../Drivers/STM32L4xx_HAL_Driver/Src/stm32l4xx_hal_flash_ex.c **** 
 454:../Drivers/STM32L4xx_HAL_Driver/Src/stm32l4xx_hal_flash_ex.c ****   if (status == HAL_OK)
 455:../Drivers/STM32L4xx_HAL_Driver/Src/stm32l4xx_hal_flash_ex.c ****   {
 456:../Drivers/STM32L4xx_HAL_Driver/Src/stm32l4xx_hal_flash_ex.c ****     /* Check that the voltage scaling is range 2 */
 457:../Drivers/STM32L4xx_HAL_Driver/Src/stm32l4xx_hal_flash_ex.c ****     if (HAL_PWREx_GetVoltageRange() == PWR_REGULATOR_VOLTAGE_SCALE2)
 458:../Drivers/STM32L4xx_HAL_Driver/Src/stm32l4xx_hal_flash_ex.c ****     {
 459:../Drivers/STM32L4xx_HAL_Driver/Src/stm32l4xx_hal_flash_ex.c ****       /* Configure the LVEN bit */
 460:../Drivers/STM32L4xx_HAL_Driver/Src/stm32l4xx_hal_flash_ex.c ****       MODIFY_REG(FLASH->CFGR, FLASH_CFGR_LVEN, ConfigLVE);
 461:../Drivers/STM32L4xx_HAL_Driver/Src/stm32l4xx_hal_flash_ex.c **** 
 462:../Drivers/STM32L4xx_HAL_Driver/Src/stm32l4xx_hal_flash_ex.c ****       /* Check that the bit has been correctly configured */
 463:../Drivers/STM32L4xx_HAL_Driver/Src/stm32l4xx_hal_flash_ex.c ****       if (READ_BIT(FLASH->CFGR, FLASH_CFGR_LVEN) != ConfigLVE)
 464:../Drivers/STM32L4xx_HAL_Driver/Src/stm32l4xx_hal_flash_ex.c ****       {
 465:../Drivers/STM32L4xx_HAL_Driver/Src/stm32l4xx_hal_flash_ex.c ****         status = HAL_ERROR;
 466:../Drivers/STM32L4xx_HAL_Driver/Src/stm32l4xx_hal_flash_ex.c ****       }
 467:../Drivers/STM32L4xx_HAL_Driver/Src/stm32l4xx_hal_flash_ex.c ****     }
 468:../Drivers/STM32L4xx_HAL_Driver/Src/stm32l4xx_hal_flash_ex.c ****     else
 469:../Drivers/STM32L4xx_HAL_Driver/Src/stm32l4xx_hal_flash_ex.c ****     {
 470:../Drivers/STM32L4xx_HAL_Driver/Src/stm32l4xx_hal_flash_ex.c ****       /* Not allow to force Flash LVE pin if not in voltage range 2 */
 471:../Drivers/STM32L4xx_HAL_Driver/Src/stm32l4xx_hal_flash_ex.c ****       status = HAL_ERROR;
 472:../Drivers/STM32L4xx_HAL_Driver/Src/stm32l4xx_hal_flash_ex.c ****     }
 473:../Drivers/STM32L4xx_HAL_Driver/Src/stm32l4xx_hal_flash_ex.c ****   }
 474:../Drivers/STM32L4xx_HAL_Driver/Src/stm32l4xx_hal_flash_ex.c **** 
 475:../Drivers/STM32L4xx_HAL_Driver/Src/stm32l4xx_hal_flash_ex.c ****   /* Process Unlocked */
 476:../Drivers/STM32L4xx_HAL_Driver/Src/stm32l4xx_hal_flash_ex.c ****   __HAL_UNLOCK(&pFlash);
 477:../Drivers/STM32L4xx_HAL_Driver/Src/stm32l4xx_hal_flash_ex.c **** 
 478:../Drivers/STM32L4xx_HAL_Driver/Src/stm32l4xx_hal_flash_ex.c ****   return status;
 479:../Drivers/STM32L4xx_HAL_Driver/Src/stm32l4xx_hal_flash_ex.c **** }
 480:../Drivers/STM32L4xx_HAL_Driver/Src/stm32l4xx_hal_flash_ex.c **** 
 481:../Drivers/STM32L4xx_HAL_Driver/Src/stm32l4xx_hal_flash_ex.c **** /**
 482:../Drivers/STM32L4xx_HAL_Driver/Src/stm32l4xx_hal_flash_ex.c ****   * @}
 483:../Drivers/STM32L4xx_HAL_Driver/Src/stm32l4xx_hal_flash_ex.c ****   */
 484:../Drivers/STM32L4xx_HAL_Driver/Src/stm32l4xx_hal_flash_ex.c **** #endif /* FLASH_CFGR_LVEN */
 485:../Drivers/STM32L4xx_HAL_Driver/Src/stm32l4xx_hal_flash_ex.c **** 
 486:../Drivers/STM32L4xx_HAL_Driver/Src/stm32l4xx_hal_flash_ex.c **** /**
 487:../Drivers/STM32L4xx_HAL_Driver/Src/stm32l4xx_hal_flash_ex.c ****   * @}
 488:../Drivers/STM32L4xx_HAL_Driver/Src/stm32l4xx_hal_flash_ex.c ****   */
ARM GAS  Build/stm32l4xx_hal_flash_ex.s 			page 10


 489:../Drivers/STM32L4xx_HAL_Driver/Src/stm32l4xx_hal_flash_ex.c **** 
 490:../Drivers/STM32L4xx_HAL_Driver/Src/stm32l4xx_hal_flash_ex.c **** /* Private functions ---------------------------------------------------------*/
 491:../Drivers/STM32L4xx_HAL_Driver/Src/stm32l4xx_hal_flash_ex.c **** 
 492:../Drivers/STM32L4xx_HAL_Driver/Src/stm32l4xx_hal_flash_ex.c **** /** @addtogroup FLASHEx_Private_Functions
 493:../Drivers/STM32L4xx_HAL_Driver/Src/stm32l4xx_hal_flash_ex.c ****   * @{
 494:../Drivers/STM32L4xx_HAL_Driver/Src/stm32l4xx_hal_flash_ex.c ****   */
 495:../Drivers/STM32L4xx_HAL_Driver/Src/stm32l4xx_hal_flash_ex.c **** /**
 496:../Drivers/STM32L4xx_HAL_Driver/Src/stm32l4xx_hal_flash_ex.c ****   * @brief  Mass erase of FLASH memory.
 497:../Drivers/STM32L4xx_HAL_Driver/Src/stm32l4xx_hal_flash_ex.c ****   * @param  Banks Banks to be erased
 498:../Drivers/STM32L4xx_HAL_Driver/Src/stm32l4xx_hal_flash_ex.c ****   *          This parameter can be one of the following values:
 499:../Drivers/STM32L4xx_HAL_Driver/Src/stm32l4xx_hal_flash_ex.c ****   *            @arg FLASH_BANK_1: Bank1 to be erased
 500:../Drivers/STM32L4xx_HAL_Driver/Src/stm32l4xx_hal_flash_ex.c ****   *            @arg FLASH_BANK_2: Bank2 to be erased
 501:../Drivers/STM32L4xx_HAL_Driver/Src/stm32l4xx_hal_flash_ex.c ****   *            @arg FLASH_BANK_BOTH: Bank1 and Bank2 to be erased
 502:../Drivers/STM32L4xx_HAL_Driver/Src/stm32l4xx_hal_flash_ex.c ****   * @retval None
 503:../Drivers/STM32L4xx_HAL_Driver/Src/stm32l4xx_hal_flash_ex.c ****   */
 504:../Drivers/STM32L4xx_HAL_Driver/Src/stm32l4xx_hal_flash_ex.c **** static void FLASH_MassErase(uint32_t Banks)
 505:../Drivers/STM32L4xx_HAL_Driver/Src/stm32l4xx_hal_flash_ex.c **** {
  27              		.loc 1 505 1 view -0
  28              		.cfi_startproc
  29              		@ args = 0, pretend = 0, frame = 0
  30              		@ frame_needed = 0, uses_anonymous_args = 0
  31              		@ link register save eliminated.
 506:../Drivers/STM32L4xx_HAL_Driver/Src/stm32l4xx_hal_flash_ex.c **** #if defined (STM32L4P5xx) || defined (STM32L4Q5xx) || defined (STM32L4R5xx) || defined (STM32L4R7xx
 507:../Drivers/STM32L4xx_HAL_Driver/Src/stm32l4xx_hal_flash_ex.c ****   if (READ_BIT(FLASH->OPTR, FLASH_OPTR_DBANK) != 0U)
 508:../Drivers/STM32L4xx_HAL_Driver/Src/stm32l4xx_hal_flash_ex.c **** #endif
 509:../Drivers/STM32L4xx_HAL_Driver/Src/stm32l4xx_hal_flash_ex.c ****   {
 510:../Drivers/STM32L4xx_HAL_Driver/Src/stm32l4xx_hal_flash_ex.c ****     /* Check the parameters */
 511:../Drivers/STM32L4xx_HAL_Driver/Src/stm32l4xx_hal_flash_ex.c ****     assert_param(IS_FLASH_BANK(Banks));
  32              		.loc 1 511 5 view .LVU1
 512:../Drivers/STM32L4xx_HAL_Driver/Src/stm32l4xx_hal_flash_ex.c **** 
 513:../Drivers/STM32L4xx_HAL_Driver/Src/stm32l4xx_hal_flash_ex.c ****     /* Set the Mass Erase Bit for the bank 1 if requested */
 514:../Drivers/STM32L4xx_HAL_Driver/Src/stm32l4xx_hal_flash_ex.c ****     if((Banks & FLASH_BANK_1) != 0U)
  33              		.loc 1 514 5 view .LVU2
  34              		.loc 1 514 7 is_stmt 0 view .LVU3
  35 0000 10F0010F 		tst	r0, #1
  36 0004 04D0     		beq	.L2
 515:../Drivers/STM32L4xx_HAL_Driver/Src/stm32l4xx_hal_flash_ex.c ****     {
 516:../Drivers/STM32L4xx_HAL_Driver/Src/stm32l4xx_hal_flash_ex.c ****       SET_BIT(FLASH->CR, FLASH_CR_MER1);
  37              		.loc 1 516 7 is_stmt 1 view .LVU4
  38 0006 094A     		ldr	r2, .L4
  39 0008 5369     		ldr	r3, [r2, #20]
  40 000a 43F00403 		orr	r3, r3, #4
  41 000e 5361     		str	r3, [r2, #20]
  42              	.L2:
 517:../Drivers/STM32L4xx_HAL_Driver/Src/stm32l4xx_hal_flash_ex.c ****     }
 518:../Drivers/STM32L4xx_HAL_Driver/Src/stm32l4xx_hal_flash_ex.c **** 
 519:../Drivers/STM32L4xx_HAL_Driver/Src/stm32l4xx_hal_flash_ex.c **** #if defined (STM32L471xx) || defined (STM32L475xx) || defined (STM32L476xx) || defined (STM32L485xx
 520:../Drivers/STM32L4xx_HAL_Driver/Src/stm32l4xx_hal_flash_ex.c ****     defined (STM32L496xx) || defined (STM32L4A6xx) || \
 521:../Drivers/STM32L4xx_HAL_Driver/Src/stm32l4xx_hal_flash_ex.c ****     defined (STM32L4P5xx) || defined (STM32L4Q5xx) || \
 522:../Drivers/STM32L4xx_HAL_Driver/Src/stm32l4xx_hal_flash_ex.c ****     defined (STM32L4R5xx) || defined (STM32L4R7xx) || defined (STM32L4R9xx) || defined (STM32L4S5xx
 523:../Drivers/STM32L4xx_HAL_Driver/Src/stm32l4xx_hal_flash_ex.c ****     /* Set the Mass Erase Bit for the bank 2 if requested */
 524:../Drivers/STM32L4xx_HAL_Driver/Src/stm32l4xx_hal_flash_ex.c ****     if((Banks & FLASH_BANK_2) != 0U)
  43              		.loc 1 524 5 view .LVU5
  44              		.loc 1 524 7 is_stmt 0 view .LVU6
  45 0010 10F0020F 		tst	r0, #2
  46 0014 04D0     		beq	.L3
 525:../Drivers/STM32L4xx_HAL_Driver/Src/stm32l4xx_hal_flash_ex.c ****     {
ARM GAS  Build/stm32l4xx_hal_flash_ex.s 			page 11


 526:../Drivers/STM32L4xx_HAL_Driver/Src/stm32l4xx_hal_flash_ex.c ****       SET_BIT(FLASH->CR, FLASH_CR_MER2);
  47              		.loc 1 526 7 is_stmt 1 view .LVU7
  48 0016 054A     		ldr	r2, .L4
  49 0018 5369     		ldr	r3, [r2, #20]
  50 001a 43F40043 		orr	r3, r3, #32768
  51 001e 5361     		str	r3, [r2, #20]
  52              	.L3:
 527:../Drivers/STM32L4xx_HAL_Driver/Src/stm32l4xx_hal_flash_ex.c ****     }
 528:../Drivers/STM32L4xx_HAL_Driver/Src/stm32l4xx_hal_flash_ex.c **** #endif
 529:../Drivers/STM32L4xx_HAL_Driver/Src/stm32l4xx_hal_flash_ex.c ****   }
 530:../Drivers/STM32L4xx_HAL_Driver/Src/stm32l4xx_hal_flash_ex.c **** #if defined (STM32L4P5xx) || defined (STM32L4Q5xx) || defined (STM32L4R5xx) || defined (STM32L4R7xx
 531:../Drivers/STM32L4xx_HAL_Driver/Src/stm32l4xx_hal_flash_ex.c ****   else
 532:../Drivers/STM32L4xx_HAL_Driver/Src/stm32l4xx_hal_flash_ex.c ****   {
 533:../Drivers/STM32L4xx_HAL_Driver/Src/stm32l4xx_hal_flash_ex.c ****     SET_BIT(FLASH->CR, (FLASH_CR_MER1 | FLASH_CR_MER2));
 534:../Drivers/STM32L4xx_HAL_Driver/Src/stm32l4xx_hal_flash_ex.c ****   }
 535:../Drivers/STM32L4xx_HAL_Driver/Src/stm32l4xx_hal_flash_ex.c **** #endif
 536:../Drivers/STM32L4xx_HAL_Driver/Src/stm32l4xx_hal_flash_ex.c **** 
 537:../Drivers/STM32L4xx_HAL_Driver/Src/stm32l4xx_hal_flash_ex.c ****   /* Proceed to erase all sectors */
 538:../Drivers/STM32L4xx_HAL_Driver/Src/stm32l4xx_hal_flash_ex.c ****   SET_BIT(FLASH->CR, FLASH_CR_STRT);
  53              		.loc 1 538 3 view .LVU8
  54 0020 024A     		ldr	r2, .L4
  55 0022 5369     		ldr	r3, [r2, #20]
  56 0024 43F48033 		orr	r3, r3, #65536
  57 0028 5361     		str	r3, [r2, #20]
 539:../Drivers/STM32L4xx_HAL_Driver/Src/stm32l4xx_hal_flash_ex.c **** }
  58              		.loc 1 539 1 is_stmt 0 view .LVU9
  59 002a 7047     		bx	lr
  60              	.L5:
  61              		.align	2
  62              	.L4:
  63 002c 00200240 		.word	1073881088
  64              		.cfi_endproc
  65              	.LFE78:
  67              		.section	.text.FLASH_OB_GetWRP,"ax",%progbits
  68              		.align	1
  69              		.syntax unified
  70              		.thumb
  71              		.thumb_func
  73              	FLASH_OB_GetWRP:
  74              	.LVL1:
  75              	.LFB85:
 540:../Drivers/STM32L4xx_HAL_Driver/Src/stm32l4xx_hal_flash_ex.c **** 
 541:../Drivers/STM32L4xx_HAL_Driver/Src/stm32l4xx_hal_flash_ex.c **** /**
 542:../Drivers/STM32L4xx_HAL_Driver/Src/stm32l4xx_hal_flash_ex.c ****   * @brief  Erase the specified FLASH memory page.
 543:../Drivers/STM32L4xx_HAL_Driver/Src/stm32l4xx_hal_flash_ex.c ****   * @param  Page FLASH page to erase
 544:../Drivers/STM32L4xx_HAL_Driver/Src/stm32l4xx_hal_flash_ex.c ****   *         This parameter must be a value between 0 and (max number of pages in the bank - 1)
 545:../Drivers/STM32L4xx_HAL_Driver/Src/stm32l4xx_hal_flash_ex.c ****   * @param  Banks Bank(s) where the page will be erased
 546:../Drivers/STM32L4xx_HAL_Driver/Src/stm32l4xx_hal_flash_ex.c ****   *          This parameter can be one of the following values:
 547:../Drivers/STM32L4xx_HAL_Driver/Src/stm32l4xx_hal_flash_ex.c ****   *            @arg FLASH_BANK_1: Page in bank 1 to be erased
 548:../Drivers/STM32L4xx_HAL_Driver/Src/stm32l4xx_hal_flash_ex.c ****   *            @arg FLASH_BANK_2: Page in bank 2 to be erased
 549:../Drivers/STM32L4xx_HAL_Driver/Src/stm32l4xx_hal_flash_ex.c ****   * @retval None
 550:../Drivers/STM32L4xx_HAL_Driver/Src/stm32l4xx_hal_flash_ex.c ****   */
 551:../Drivers/STM32L4xx_HAL_Driver/Src/stm32l4xx_hal_flash_ex.c **** void FLASH_PageErase(uint32_t Page, uint32_t Banks)
 552:../Drivers/STM32L4xx_HAL_Driver/Src/stm32l4xx_hal_flash_ex.c **** {
 553:../Drivers/STM32L4xx_HAL_Driver/Src/stm32l4xx_hal_flash_ex.c ****   /* Check the parameters */
 554:../Drivers/STM32L4xx_HAL_Driver/Src/stm32l4xx_hal_flash_ex.c ****   assert_param(IS_FLASH_PAGE(Page));
 555:../Drivers/STM32L4xx_HAL_Driver/Src/stm32l4xx_hal_flash_ex.c **** 
ARM GAS  Build/stm32l4xx_hal_flash_ex.s 			page 12


 556:../Drivers/STM32L4xx_HAL_Driver/Src/stm32l4xx_hal_flash_ex.c **** #if defined (STM32L471xx) || defined (STM32L475xx) || defined (STM32L476xx) || defined (STM32L485xx
 557:../Drivers/STM32L4xx_HAL_Driver/Src/stm32l4xx_hal_flash_ex.c ****     defined (STM32L496xx) || defined (STM32L4A6xx) || \
 558:../Drivers/STM32L4xx_HAL_Driver/Src/stm32l4xx_hal_flash_ex.c ****     defined (STM32L4P5xx) || defined (STM32L4Q5xx) || \
 559:../Drivers/STM32L4xx_HAL_Driver/Src/stm32l4xx_hal_flash_ex.c ****     defined (STM32L4R5xx) || defined (STM32L4R7xx) || defined (STM32L4R9xx) || defined (STM32L4S5xx
 560:../Drivers/STM32L4xx_HAL_Driver/Src/stm32l4xx_hal_flash_ex.c **** #if defined (STM32L4P5xx) || defined (STM32L4Q5xx) || defined (STM32L4R5xx) || defined (STM32L4R7xx
 561:../Drivers/STM32L4xx_HAL_Driver/Src/stm32l4xx_hal_flash_ex.c ****   if(READ_BIT(FLASH->OPTR, FLASH_OPTR_DBANK) == 0U)
 562:../Drivers/STM32L4xx_HAL_Driver/Src/stm32l4xx_hal_flash_ex.c ****   {
 563:../Drivers/STM32L4xx_HAL_Driver/Src/stm32l4xx_hal_flash_ex.c ****     CLEAR_BIT(FLASH->CR, FLASH_CR_BKER);
 564:../Drivers/STM32L4xx_HAL_Driver/Src/stm32l4xx_hal_flash_ex.c ****   }
 565:../Drivers/STM32L4xx_HAL_Driver/Src/stm32l4xx_hal_flash_ex.c ****   else
 566:../Drivers/STM32L4xx_HAL_Driver/Src/stm32l4xx_hal_flash_ex.c **** #endif
 567:../Drivers/STM32L4xx_HAL_Driver/Src/stm32l4xx_hal_flash_ex.c ****   {
 568:../Drivers/STM32L4xx_HAL_Driver/Src/stm32l4xx_hal_flash_ex.c ****     assert_param(IS_FLASH_BANK_EXCLUSIVE(Banks));
 569:../Drivers/STM32L4xx_HAL_Driver/Src/stm32l4xx_hal_flash_ex.c **** 
 570:../Drivers/STM32L4xx_HAL_Driver/Src/stm32l4xx_hal_flash_ex.c ****     if((Banks & FLASH_BANK_1) != 0U)
 571:../Drivers/STM32L4xx_HAL_Driver/Src/stm32l4xx_hal_flash_ex.c ****     {
 572:../Drivers/STM32L4xx_HAL_Driver/Src/stm32l4xx_hal_flash_ex.c ****       CLEAR_BIT(FLASH->CR, FLASH_CR_BKER);
 573:../Drivers/STM32L4xx_HAL_Driver/Src/stm32l4xx_hal_flash_ex.c ****     }
 574:../Drivers/STM32L4xx_HAL_Driver/Src/stm32l4xx_hal_flash_ex.c ****     else
 575:../Drivers/STM32L4xx_HAL_Driver/Src/stm32l4xx_hal_flash_ex.c ****     {
 576:../Drivers/STM32L4xx_HAL_Driver/Src/stm32l4xx_hal_flash_ex.c ****       SET_BIT(FLASH->CR, FLASH_CR_BKER);
 577:../Drivers/STM32L4xx_HAL_Driver/Src/stm32l4xx_hal_flash_ex.c ****     }
 578:../Drivers/STM32L4xx_HAL_Driver/Src/stm32l4xx_hal_flash_ex.c ****   }
 579:../Drivers/STM32L4xx_HAL_Driver/Src/stm32l4xx_hal_flash_ex.c **** #else
 580:../Drivers/STM32L4xx_HAL_Driver/Src/stm32l4xx_hal_flash_ex.c ****   /* Prevent unused argument(s) compilation warning */
 581:../Drivers/STM32L4xx_HAL_Driver/Src/stm32l4xx_hal_flash_ex.c ****   UNUSED(Banks);
 582:../Drivers/STM32L4xx_HAL_Driver/Src/stm32l4xx_hal_flash_ex.c **** #endif
 583:../Drivers/STM32L4xx_HAL_Driver/Src/stm32l4xx_hal_flash_ex.c **** 
 584:../Drivers/STM32L4xx_HAL_Driver/Src/stm32l4xx_hal_flash_ex.c ****   /* Proceed to erase the page */
 585:../Drivers/STM32L4xx_HAL_Driver/Src/stm32l4xx_hal_flash_ex.c ****   MODIFY_REG(FLASH->CR, FLASH_CR_PNB, ((Page & 0xFFU) << FLASH_CR_PNB_Pos));
 586:../Drivers/STM32L4xx_HAL_Driver/Src/stm32l4xx_hal_flash_ex.c ****   SET_BIT(FLASH->CR, FLASH_CR_PER);
 587:../Drivers/STM32L4xx_HAL_Driver/Src/stm32l4xx_hal_flash_ex.c ****   SET_BIT(FLASH->CR, FLASH_CR_STRT);
 588:../Drivers/STM32L4xx_HAL_Driver/Src/stm32l4xx_hal_flash_ex.c **** }
 589:../Drivers/STM32L4xx_HAL_Driver/Src/stm32l4xx_hal_flash_ex.c **** 
 590:../Drivers/STM32L4xx_HAL_Driver/Src/stm32l4xx_hal_flash_ex.c **** /**
 591:../Drivers/STM32L4xx_HAL_Driver/Src/stm32l4xx_hal_flash_ex.c ****   * @brief  Flush the instruction and data caches.
 592:../Drivers/STM32L4xx_HAL_Driver/Src/stm32l4xx_hal_flash_ex.c ****   * @retval None
 593:../Drivers/STM32L4xx_HAL_Driver/Src/stm32l4xx_hal_flash_ex.c ****   */
 594:../Drivers/STM32L4xx_HAL_Driver/Src/stm32l4xx_hal_flash_ex.c **** void FLASH_FlushCaches(void)
 595:../Drivers/STM32L4xx_HAL_Driver/Src/stm32l4xx_hal_flash_ex.c **** {
 596:../Drivers/STM32L4xx_HAL_Driver/Src/stm32l4xx_hal_flash_ex.c ****   FLASH_CacheTypeDef cache = pFlash.CacheToReactivate;
 597:../Drivers/STM32L4xx_HAL_Driver/Src/stm32l4xx_hal_flash_ex.c **** 
 598:../Drivers/STM32L4xx_HAL_Driver/Src/stm32l4xx_hal_flash_ex.c ****   /* Flush instruction cache  */
 599:../Drivers/STM32L4xx_HAL_Driver/Src/stm32l4xx_hal_flash_ex.c ****   if((cache == FLASH_CACHE_ICACHE_ENABLED) ||
 600:../Drivers/STM32L4xx_HAL_Driver/Src/stm32l4xx_hal_flash_ex.c ****      (cache == FLASH_CACHE_ICACHE_DCACHE_ENABLED))
 601:../Drivers/STM32L4xx_HAL_Driver/Src/stm32l4xx_hal_flash_ex.c ****   {
 602:../Drivers/STM32L4xx_HAL_Driver/Src/stm32l4xx_hal_flash_ex.c ****     /* Disable instruction cache */
 603:../Drivers/STM32L4xx_HAL_Driver/Src/stm32l4xx_hal_flash_ex.c ****     __HAL_FLASH_INSTRUCTION_CACHE_DISABLE();
 604:../Drivers/STM32L4xx_HAL_Driver/Src/stm32l4xx_hal_flash_ex.c ****     /* Reset instruction cache */
 605:../Drivers/STM32L4xx_HAL_Driver/Src/stm32l4xx_hal_flash_ex.c ****     __HAL_FLASH_INSTRUCTION_CACHE_RESET();
 606:../Drivers/STM32L4xx_HAL_Driver/Src/stm32l4xx_hal_flash_ex.c ****     /* Enable instruction cache */
 607:../Drivers/STM32L4xx_HAL_Driver/Src/stm32l4xx_hal_flash_ex.c ****     __HAL_FLASH_INSTRUCTION_CACHE_ENABLE();
 608:../Drivers/STM32L4xx_HAL_Driver/Src/stm32l4xx_hal_flash_ex.c ****   }
 609:../Drivers/STM32L4xx_HAL_Driver/Src/stm32l4xx_hal_flash_ex.c **** 
 610:../Drivers/STM32L4xx_HAL_Driver/Src/stm32l4xx_hal_flash_ex.c ****   /* Flush data cache */
 611:../Drivers/STM32L4xx_HAL_Driver/Src/stm32l4xx_hal_flash_ex.c ****   if((cache == FLASH_CACHE_DCACHE_ENABLED) ||
 612:../Drivers/STM32L4xx_HAL_Driver/Src/stm32l4xx_hal_flash_ex.c ****      (cache == FLASH_CACHE_ICACHE_DCACHE_ENABLED))
ARM GAS  Build/stm32l4xx_hal_flash_ex.s 			page 13


 613:../Drivers/STM32L4xx_HAL_Driver/Src/stm32l4xx_hal_flash_ex.c ****   {
 614:../Drivers/STM32L4xx_HAL_Driver/Src/stm32l4xx_hal_flash_ex.c ****     /* Reset data cache */
 615:../Drivers/STM32L4xx_HAL_Driver/Src/stm32l4xx_hal_flash_ex.c ****     __HAL_FLASH_DATA_CACHE_RESET();
 616:../Drivers/STM32L4xx_HAL_Driver/Src/stm32l4xx_hal_flash_ex.c ****     /* Enable data cache */
 617:../Drivers/STM32L4xx_HAL_Driver/Src/stm32l4xx_hal_flash_ex.c ****     __HAL_FLASH_DATA_CACHE_ENABLE();
 618:../Drivers/STM32L4xx_HAL_Driver/Src/stm32l4xx_hal_flash_ex.c ****   }
 619:../Drivers/STM32L4xx_HAL_Driver/Src/stm32l4xx_hal_flash_ex.c **** 
 620:../Drivers/STM32L4xx_HAL_Driver/Src/stm32l4xx_hal_flash_ex.c ****   /* Reset internal variable */
 621:../Drivers/STM32L4xx_HAL_Driver/Src/stm32l4xx_hal_flash_ex.c ****   pFlash.CacheToReactivate = FLASH_CACHE_DISABLED;
 622:../Drivers/STM32L4xx_HAL_Driver/Src/stm32l4xx_hal_flash_ex.c **** }
 623:../Drivers/STM32L4xx_HAL_Driver/Src/stm32l4xx_hal_flash_ex.c **** 
 624:../Drivers/STM32L4xx_HAL_Driver/Src/stm32l4xx_hal_flash_ex.c **** /**
 625:../Drivers/STM32L4xx_HAL_Driver/Src/stm32l4xx_hal_flash_ex.c ****   * @brief  Configure the write protection of the desired pages.
 626:../Drivers/STM32L4xx_HAL_Driver/Src/stm32l4xx_hal_flash_ex.c ****   *
 627:../Drivers/STM32L4xx_HAL_Driver/Src/stm32l4xx_hal_flash_ex.c ****   * @note   When the memory read protection level is selected (RDP level = 1),
 628:../Drivers/STM32L4xx_HAL_Driver/Src/stm32l4xx_hal_flash_ex.c ****   *         it is not possible to program or erase Flash memory if the CPU debug
 629:../Drivers/STM32L4xx_HAL_Driver/Src/stm32l4xx_hal_flash_ex.c ****   *         features are connected (JTAG or single wire) or boot code is being
 630:../Drivers/STM32L4xx_HAL_Driver/Src/stm32l4xx_hal_flash_ex.c ****   *         executed from RAM or System flash, even if WRP is not activated.
 631:../Drivers/STM32L4xx_HAL_Driver/Src/stm32l4xx_hal_flash_ex.c ****   * @note   To configure the WRP options, the option lock bit OPTLOCK must be
 632:../Drivers/STM32L4xx_HAL_Driver/Src/stm32l4xx_hal_flash_ex.c ****   *         cleared with the call of the HAL_FLASH_OB_Unlock() function.
 633:../Drivers/STM32L4xx_HAL_Driver/Src/stm32l4xx_hal_flash_ex.c ****   * @note   To validate the WRP options, the option bytes must be reloaded
 634:../Drivers/STM32L4xx_HAL_Driver/Src/stm32l4xx_hal_flash_ex.c ****   *         through the call of the HAL_FLASH_OB_Launch() function.
 635:../Drivers/STM32L4xx_HAL_Driver/Src/stm32l4xx_hal_flash_ex.c ****   *
 636:../Drivers/STM32L4xx_HAL_Driver/Src/stm32l4xx_hal_flash_ex.c ****   * @param  WRPArea specifies the area to be configured.
 637:../Drivers/STM32L4xx_HAL_Driver/Src/stm32l4xx_hal_flash_ex.c ****   *          This parameter can be one of the following values:
 638:../Drivers/STM32L4xx_HAL_Driver/Src/stm32l4xx_hal_flash_ex.c ****   *            @arg OB_WRPAREA_BANK1_AREAA: Flash Bank 1 Area A
 639:../Drivers/STM32L4xx_HAL_Driver/Src/stm32l4xx_hal_flash_ex.c ****   *            @arg OB_WRPAREA_BANK1_AREAB: Flash Bank 1 Area B
 640:../Drivers/STM32L4xx_HAL_Driver/Src/stm32l4xx_hal_flash_ex.c ****   *            @arg OB_WRPAREA_BANK2_AREAA: Flash Bank 2 Area A  (don't apply for STM32L43x/STM32L4
 641:../Drivers/STM32L4xx_HAL_Driver/Src/stm32l4xx_hal_flash_ex.c ****   *            @arg OB_WRPAREA_BANK2_AREAB: Flash Bank 2 Area B  (don't apply for STM32L43x/STM32L4
 642:../Drivers/STM32L4xx_HAL_Driver/Src/stm32l4xx_hal_flash_ex.c ****   *
 643:../Drivers/STM32L4xx_HAL_Driver/Src/stm32l4xx_hal_flash_ex.c ****   * @param  WRPStartOffset specifies the start page of the write protected area
 644:../Drivers/STM32L4xx_HAL_Driver/Src/stm32l4xx_hal_flash_ex.c ****   *          This parameter can be page number between 0 and (max number of pages in the bank - 1)
 645:../Drivers/STM32L4xx_HAL_Driver/Src/stm32l4xx_hal_flash_ex.c ****   *
 646:../Drivers/STM32L4xx_HAL_Driver/Src/stm32l4xx_hal_flash_ex.c ****   * @param  WRDPEndOffset specifies the end page of the write protected area
 647:../Drivers/STM32L4xx_HAL_Driver/Src/stm32l4xx_hal_flash_ex.c ****   *          This parameter can be page number between WRPStartOffset and (max number of pages in t
 648:../Drivers/STM32L4xx_HAL_Driver/Src/stm32l4xx_hal_flash_ex.c ****   *
 649:../Drivers/STM32L4xx_HAL_Driver/Src/stm32l4xx_hal_flash_ex.c ****   * @retval HAL Status
 650:../Drivers/STM32L4xx_HAL_Driver/Src/stm32l4xx_hal_flash_ex.c ****   */
 651:../Drivers/STM32L4xx_HAL_Driver/Src/stm32l4xx_hal_flash_ex.c **** static HAL_StatusTypeDef FLASH_OB_WRPConfig(uint32_t WRPArea, uint32_t WRPStartOffset, uint32_t WRD
 652:../Drivers/STM32L4xx_HAL_Driver/Src/stm32l4xx_hal_flash_ex.c **** {
 653:../Drivers/STM32L4xx_HAL_Driver/Src/stm32l4xx_hal_flash_ex.c ****   HAL_StatusTypeDef status;
 654:../Drivers/STM32L4xx_HAL_Driver/Src/stm32l4xx_hal_flash_ex.c **** 
 655:../Drivers/STM32L4xx_HAL_Driver/Src/stm32l4xx_hal_flash_ex.c ****   /* Check the parameters */
 656:../Drivers/STM32L4xx_HAL_Driver/Src/stm32l4xx_hal_flash_ex.c ****   assert_param(IS_OB_WRPAREA(WRPArea));
 657:../Drivers/STM32L4xx_HAL_Driver/Src/stm32l4xx_hal_flash_ex.c ****   assert_param(IS_FLASH_PAGE(WRPStartOffset));
 658:../Drivers/STM32L4xx_HAL_Driver/Src/stm32l4xx_hal_flash_ex.c ****   assert_param(IS_FLASH_PAGE(WRDPEndOffset));
 659:../Drivers/STM32L4xx_HAL_Driver/Src/stm32l4xx_hal_flash_ex.c **** 
 660:../Drivers/STM32L4xx_HAL_Driver/Src/stm32l4xx_hal_flash_ex.c ****   /* Wait for last operation to be completed */
 661:../Drivers/STM32L4xx_HAL_Driver/Src/stm32l4xx_hal_flash_ex.c ****   status = FLASH_WaitForLastOperation((uint32_t)FLASH_TIMEOUT_VALUE);
 662:../Drivers/STM32L4xx_HAL_Driver/Src/stm32l4xx_hal_flash_ex.c **** 
 663:../Drivers/STM32L4xx_HAL_Driver/Src/stm32l4xx_hal_flash_ex.c ****   if(status == HAL_OK)
 664:../Drivers/STM32L4xx_HAL_Driver/Src/stm32l4xx_hal_flash_ex.c ****   {
 665:../Drivers/STM32L4xx_HAL_Driver/Src/stm32l4xx_hal_flash_ex.c ****     /* Configure the write protected area */
 666:../Drivers/STM32L4xx_HAL_Driver/Src/stm32l4xx_hal_flash_ex.c ****     if(WRPArea == OB_WRPAREA_BANK1_AREAA)
 667:../Drivers/STM32L4xx_HAL_Driver/Src/stm32l4xx_hal_flash_ex.c ****     {
 668:../Drivers/STM32L4xx_HAL_Driver/Src/stm32l4xx_hal_flash_ex.c ****       MODIFY_REG(FLASH->WRP1AR, (FLASH_WRP1AR_WRP1A_STRT | FLASH_WRP1AR_WRP1A_END),
 669:../Drivers/STM32L4xx_HAL_Driver/Src/stm32l4xx_hal_flash_ex.c ****                  (WRPStartOffset | (WRDPEndOffset << 16)));
ARM GAS  Build/stm32l4xx_hal_flash_ex.s 			page 14


 670:../Drivers/STM32L4xx_HAL_Driver/Src/stm32l4xx_hal_flash_ex.c ****     }
 671:../Drivers/STM32L4xx_HAL_Driver/Src/stm32l4xx_hal_flash_ex.c ****     else if(WRPArea == OB_WRPAREA_BANK1_AREAB)
 672:../Drivers/STM32L4xx_HAL_Driver/Src/stm32l4xx_hal_flash_ex.c ****     {
 673:../Drivers/STM32L4xx_HAL_Driver/Src/stm32l4xx_hal_flash_ex.c ****       MODIFY_REG(FLASH->WRP1BR, (FLASH_WRP1BR_WRP1B_STRT | FLASH_WRP1BR_WRP1B_END),
 674:../Drivers/STM32L4xx_HAL_Driver/Src/stm32l4xx_hal_flash_ex.c ****                  (WRPStartOffset | (WRDPEndOffset << 16)));
 675:../Drivers/STM32L4xx_HAL_Driver/Src/stm32l4xx_hal_flash_ex.c ****     }
 676:../Drivers/STM32L4xx_HAL_Driver/Src/stm32l4xx_hal_flash_ex.c **** #if defined (STM32L471xx) || defined (STM32L475xx) || defined (STM32L476xx) || defined (STM32L485xx
 677:../Drivers/STM32L4xx_HAL_Driver/Src/stm32l4xx_hal_flash_ex.c ****     defined (STM32L496xx) || defined (STM32L4A6xx) || \
 678:../Drivers/STM32L4xx_HAL_Driver/Src/stm32l4xx_hal_flash_ex.c ****     defined (STM32L4P5xx) || defined (STM32L4Q5xx) || \
 679:../Drivers/STM32L4xx_HAL_Driver/Src/stm32l4xx_hal_flash_ex.c ****     defined (STM32L4R5xx) || defined (STM32L4R7xx) || defined (STM32L4R9xx) || defined (STM32L4S5xx
 680:../Drivers/STM32L4xx_HAL_Driver/Src/stm32l4xx_hal_flash_ex.c ****     else if(WRPArea == OB_WRPAREA_BANK2_AREAA)
 681:../Drivers/STM32L4xx_HAL_Driver/Src/stm32l4xx_hal_flash_ex.c ****     {
 682:../Drivers/STM32L4xx_HAL_Driver/Src/stm32l4xx_hal_flash_ex.c ****       MODIFY_REG(FLASH->WRP2AR, (FLASH_WRP2AR_WRP2A_STRT | FLASH_WRP2AR_WRP2A_END),
 683:../Drivers/STM32L4xx_HAL_Driver/Src/stm32l4xx_hal_flash_ex.c ****                  (WRPStartOffset | (WRDPEndOffset << 16)));
 684:../Drivers/STM32L4xx_HAL_Driver/Src/stm32l4xx_hal_flash_ex.c ****     }
 685:../Drivers/STM32L4xx_HAL_Driver/Src/stm32l4xx_hal_flash_ex.c ****     else if(WRPArea == OB_WRPAREA_BANK2_AREAB)
 686:../Drivers/STM32L4xx_HAL_Driver/Src/stm32l4xx_hal_flash_ex.c ****     {
 687:../Drivers/STM32L4xx_HAL_Driver/Src/stm32l4xx_hal_flash_ex.c ****       MODIFY_REG(FLASH->WRP2BR, (FLASH_WRP2BR_WRP2B_STRT | FLASH_WRP2BR_WRP2B_END),
 688:../Drivers/STM32L4xx_HAL_Driver/Src/stm32l4xx_hal_flash_ex.c ****                  (WRPStartOffset | (WRDPEndOffset << 16)));
 689:../Drivers/STM32L4xx_HAL_Driver/Src/stm32l4xx_hal_flash_ex.c ****     }
 690:../Drivers/STM32L4xx_HAL_Driver/Src/stm32l4xx_hal_flash_ex.c **** #endif
 691:../Drivers/STM32L4xx_HAL_Driver/Src/stm32l4xx_hal_flash_ex.c ****     else
 692:../Drivers/STM32L4xx_HAL_Driver/Src/stm32l4xx_hal_flash_ex.c ****     {
 693:../Drivers/STM32L4xx_HAL_Driver/Src/stm32l4xx_hal_flash_ex.c ****       /* Nothing to do */
 694:../Drivers/STM32L4xx_HAL_Driver/Src/stm32l4xx_hal_flash_ex.c ****     }
 695:../Drivers/STM32L4xx_HAL_Driver/Src/stm32l4xx_hal_flash_ex.c **** 
 696:../Drivers/STM32L4xx_HAL_Driver/Src/stm32l4xx_hal_flash_ex.c ****     /* Set OPTSTRT Bit */
 697:../Drivers/STM32L4xx_HAL_Driver/Src/stm32l4xx_hal_flash_ex.c ****     SET_BIT(FLASH->CR, FLASH_CR_OPTSTRT);
 698:../Drivers/STM32L4xx_HAL_Driver/Src/stm32l4xx_hal_flash_ex.c **** 
 699:../Drivers/STM32L4xx_HAL_Driver/Src/stm32l4xx_hal_flash_ex.c ****     /* Wait for last operation to be completed */
 700:../Drivers/STM32L4xx_HAL_Driver/Src/stm32l4xx_hal_flash_ex.c ****     status = FLASH_WaitForLastOperation((uint32_t)FLASH_TIMEOUT_VALUE);
 701:../Drivers/STM32L4xx_HAL_Driver/Src/stm32l4xx_hal_flash_ex.c **** 
 702:../Drivers/STM32L4xx_HAL_Driver/Src/stm32l4xx_hal_flash_ex.c ****     /* If the option byte program operation is completed, disable the OPTSTRT Bit */
 703:../Drivers/STM32L4xx_HAL_Driver/Src/stm32l4xx_hal_flash_ex.c ****     CLEAR_BIT(FLASH->CR, FLASH_CR_OPTSTRT);
 704:../Drivers/STM32L4xx_HAL_Driver/Src/stm32l4xx_hal_flash_ex.c ****   }
 705:../Drivers/STM32L4xx_HAL_Driver/Src/stm32l4xx_hal_flash_ex.c **** 
 706:../Drivers/STM32L4xx_HAL_Driver/Src/stm32l4xx_hal_flash_ex.c ****   return status;
 707:../Drivers/STM32L4xx_HAL_Driver/Src/stm32l4xx_hal_flash_ex.c **** }
 708:../Drivers/STM32L4xx_HAL_Driver/Src/stm32l4xx_hal_flash_ex.c **** 
 709:../Drivers/STM32L4xx_HAL_Driver/Src/stm32l4xx_hal_flash_ex.c **** /**
 710:../Drivers/STM32L4xx_HAL_Driver/Src/stm32l4xx_hal_flash_ex.c ****   * @brief  Set the read protection level.
 711:../Drivers/STM32L4xx_HAL_Driver/Src/stm32l4xx_hal_flash_ex.c ****   *
 712:../Drivers/STM32L4xx_HAL_Driver/Src/stm32l4xx_hal_flash_ex.c ****   * @note   To configure the RDP level, the option lock bit OPTLOCK must be
 713:../Drivers/STM32L4xx_HAL_Driver/Src/stm32l4xx_hal_flash_ex.c ****   *         cleared with the call of the HAL_FLASH_OB_Unlock() function.
 714:../Drivers/STM32L4xx_HAL_Driver/Src/stm32l4xx_hal_flash_ex.c ****   * @note   To validate the RDP level, the option bytes must be reloaded
 715:../Drivers/STM32L4xx_HAL_Driver/Src/stm32l4xx_hal_flash_ex.c ****   *         through the call of the HAL_FLASH_OB_Launch() function.
 716:../Drivers/STM32L4xx_HAL_Driver/Src/stm32l4xx_hal_flash_ex.c ****   * @note   !!! Warning : When enabling OB_RDP level 2 it's no more possible
 717:../Drivers/STM32L4xx_HAL_Driver/Src/stm32l4xx_hal_flash_ex.c ****   *         to go back to level 1 or 0 !!!
 718:../Drivers/STM32L4xx_HAL_Driver/Src/stm32l4xx_hal_flash_ex.c ****   *
 719:../Drivers/STM32L4xx_HAL_Driver/Src/stm32l4xx_hal_flash_ex.c ****   * @param  RDPLevel specifies the read protection level.
 720:../Drivers/STM32L4xx_HAL_Driver/Src/stm32l4xx_hal_flash_ex.c ****   *         This parameter can be one of the following values:
 721:../Drivers/STM32L4xx_HAL_Driver/Src/stm32l4xx_hal_flash_ex.c ****   *            @arg OB_RDP_LEVEL_0: No protection
 722:../Drivers/STM32L4xx_HAL_Driver/Src/stm32l4xx_hal_flash_ex.c ****   *            @arg OB_RDP_LEVEL_1: Read protection of the memory
 723:../Drivers/STM32L4xx_HAL_Driver/Src/stm32l4xx_hal_flash_ex.c ****   *            @arg OB_RDP_LEVEL_2: Full chip protection
 724:../Drivers/STM32L4xx_HAL_Driver/Src/stm32l4xx_hal_flash_ex.c ****   *
 725:../Drivers/STM32L4xx_HAL_Driver/Src/stm32l4xx_hal_flash_ex.c ****   * @retval HAL status
 726:../Drivers/STM32L4xx_HAL_Driver/Src/stm32l4xx_hal_flash_ex.c ****   */
ARM GAS  Build/stm32l4xx_hal_flash_ex.s 			page 15


 727:../Drivers/STM32L4xx_HAL_Driver/Src/stm32l4xx_hal_flash_ex.c **** static HAL_StatusTypeDef FLASH_OB_RDPConfig(uint32_t RDPLevel)
 728:../Drivers/STM32L4xx_HAL_Driver/Src/stm32l4xx_hal_flash_ex.c **** {
 729:../Drivers/STM32L4xx_HAL_Driver/Src/stm32l4xx_hal_flash_ex.c ****   HAL_StatusTypeDef status;
 730:../Drivers/STM32L4xx_HAL_Driver/Src/stm32l4xx_hal_flash_ex.c **** 
 731:../Drivers/STM32L4xx_HAL_Driver/Src/stm32l4xx_hal_flash_ex.c ****   /* Check the parameters */
 732:../Drivers/STM32L4xx_HAL_Driver/Src/stm32l4xx_hal_flash_ex.c ****   assert_param(IS_OB_RDP_LEVEL(RDPLevel));
 733:../Drivers/STM32L4xx_HAL_Driver/Src/stm32l4xx_hal_flash_ex.c **** 
 734:../Drivers/STM32L4xx_HAL_Driver/Src/stm32l4xx_hal_flash_ex.c ****   /* Wait for last operation to be completed */
 735:../Drivers/STM32L4xx_HAL_Driver/Src/stm32l4xx_hal_flash_ex.c ****   status = FLASH_WaitForLastOperation((uint32_t)FLASH_TIMEOUT_VALUE);
 736:../Drivers/STM32L4xx_HAL_Driver/Src/stm32l4xx_hal_flash_ex.c **** 
 737:../Drivers/STM32L4xx_HAL_Driver/Src/stm32l4xx_hal_flash_ex.c ****   if(status == HAL_OK)
 738:../Drivers/STM32L4xx_HAL_Driver/Src/stm32l4xx_hal_flash_ex.c ****   {
 739:../Drivers/STM32L4xx_HAL_Driver/Src/stm32l4xx_hal_flash_ex.c ****     /* Configure the RDP level in the option bytes register */
 740:../Drivers/STM32L4xx_HAL_Driver/Src/stm32l4xx_hal_flash_ex.c ****     MODIFY_REG(FLASH->OPTR, FLASH_OPTR_RDP, RDPLevel);
 741:../Drivers/STM32L4xx_HAL_Driver/Src/stm32l4xx_hal_flash_ex.c **** 
 742:../Drivers/STM32L4xx_HAL_Driver/Src/stm32l4xx_hal_flash_ex.c ****     /* Set OPTSTRT Bit */
 743:../Drivers/STM32L4xx_HAL_Driver/Src/stm32l4xx_hal_flash_ex.c ****     SET_BIT(FLASH->CR, FLASH_CR_OPTSTRT);
 744:../Drivers/STM32L4xx_HAL_Driver/Src/stm32l4xx_hal_flash_ex.c **** 
 745:../Drivers/STM32L4xx_HAL_Driver/Src/stm32l4xx_hal_flash_ex.c ****     /* Wait for last operation to be completed */
 746:../Drivers/STM32L4xx_HAL_Driver/Src/stm32l4xx_hal_flash_ex.c ****     status = FLASH_WaitForLastOperation((uint32_t)FLASH_TIMEOUT_VALUE);
 747:../Drivers/STM32L4xx_HAL_Driver/Src/stm32l4xx_hal_flash_ex.c **** 
 748:../Drivers/STM32L4xx_HAL_Driver/Src/stm32l4xx_hal_flash_ex.c ****     /* If the option byte program operation is completed, disable the OPTSTRT Bit */
 749:../Drivers/STM32L4xx_HAL_Driver/Src/stm32l4xx_hal_flash_ex.c ****     CLEAR_BIT(FLASH->CR, FLASH_CR_OPTSTRT);
 750:../Drivers/STM32L4xx_HAL_Driver/Src/stm32l4xx_hal_flash_ex.c ****   }
 751:../Drivers/STM32L4xx_HAL_Driver/Src/stm32l4xx_hal_flash_ex.c **** 
 752:../Drivers/STM32L4xx_HAL_Driver/Src/stm32l4xx_hal_flash_ex.c ****   return status;
 753:../Drivers/STM32L4xx_HAL_Driver/Src/stm32l4xx_hal_flash_ex.c **** }
 754:../Drivers/STM32L4xx_HAL_Driver/Src/stm32l4xx_hal_flash_ex.c **** 
 755:../Drivers/STM32L4xx_HAL_Driver/Src/stm32l4xx_hal_flash_ex.c **** /**
 756:../Drivers/STM32L4xx_HAL_Driver/Src/stm32l4xx_hal_flash_ex.c ****   * @brief  Program the FLASH User Option Byte.
 757:../Drivers/STM32L4xx_HAL_Driver/Src/stm32l4xx_hal_flash_ex.c ****   *
 758:../Drivers/STM32L4xx_HAL_Driver/Src/stm32l4xx_hal_flash_ex.c ****   * @note   To configure the user option bytes, the option lock bit OPTLOCK must
 759:../Drivers/STM32L4xx_HAL_Driver/Src/stm32l4xx_hal_flash_ex.c ****   *         be cleared with the call of the HAL_FLASH_OB_Unlock() function.
 760:../Drivers/STM32L4xx_HAL_Driver/Src/stm32l4xx_hal_flash_ex.c ****   * @note   To validate the user option bytes, the option bytes must be reloaded
 761:../Drivers/STM32L4xx_HAL_Driver/Src/stm32l4xx_hal_flash_ex.c ****   *         through the call of the HAL_FLASH_OB_Launch() function.
 762:../Drivers/STM32L4xx_HAL_Driver/Src/stm32l4xx_hal_flash_ex.c ****   *
 763:../Drivers/STM32L4xx_HAL_Driver/Src/stm32l4xx_hal_flash_ex.c ****   * @param  UserType The FLASH User Option Bytes to be modified
 764:../Drivers/STM32L4xx_HAL_Driver/Src/stm32l4xx_hal_flash_ex.c ****   * @param  UserConfig The FLASH User Option Bytes values:
 765:../Drivers/STM32L4xx_HAL_Driver/Src/stm32l4xx_hal_flash_ex.c ****   *         BOR_LEV(Bit8-10), nRST_STOP(Bit12), nRST_STDBY(Bit13), IWDG_SW(Bit16),
 766:../Drivers/STM32L4xx_HAL_Driver/Src/stm32l4xx_hal_flash_ex.c ****   *         IWDG_STOP(Bit17), IWDG_STDBY(Bit18), WWDG_SW(Bit19), BFB2(Bit20),
 767:../Drivers/STM32L4xx_HAL_Driver/Src/stm32l4xx_hal_flash_ex.c ****   *         DUALBANK(Bit21), nBOOT1(Bit23), SRAM2_PE(Bit24) and SRAM2_RST(Bit25).
 768:../Drivers/STM32L4xx_HAL_Driver/Src/stm32l4xx_hal_flash_ex.c ****   *
 769:../Drivers/STM32L4xx_HAL_Driver/Src/stm32l4xx_hal_flash_ex.c ****   * @retval HAL status
 770:../Drivers/STM32L4xx_HAL_Driver/Src/stm32l4xx_hal_flash_ex.c ****   */
 771:../Drivers/STM32L4xx_HAL_Driver/Src/stm32l4xx_hal_flash_ex.c **** static HAL_StatusTypeDef FLASH_OB_UserConfig(uint32_t UserType, uint32_t UserConfig)
 772:../Drivers/STM32L4xx_HAL_Driver/Src/stm32l4xx_hal_flash_ex.c **** {
 773:../Drivers/STM32L4xx_HAL_Driver/Src/stm32l4xx_hal_flash_ex.c ****   uint32_t optr_reg_val = 0;
 774:../Drivers/STM32L4xx_HAL_Driver/Src/stm32l4xx_hal_flash_ex.c ****   uint32_t optr_reg_mask = 0;
 775:../Drivers/STM32L4xx_HAL_Driver/Src/stm32l4xx_hal_flash_ex.c ****   HAL_StatusTypeDef status;
 776:../Drivers/STM32L4xx_HAL_Driver/Src/stm32l4xx_hal_flash_ex.c **** 
 777:../Drivers/STM32L4xx_HAL_Driver/Src/stm32l4xx_hal_flash_ex.c ****   /* Check the parameters */
 778:../Drivers/STM32L4xx_HAL_Driver/Src/stm32l4xx_hal_flash_ex.c ****   assert_param(IS_OB_USER_TYPE(UserType));
 779:../Drivers/STM32L4xx_HAL_Driver/Src/stm32l4xx_hal_flash_ex.c **** 
 780:../Drivers/STM32L4xx_HAL_Driver/Src/stm32l4xx_hal_flash_ex.c ****   /* Wait for last operation to be completed */
 781:../Drivers/STM32L4xx_HAL_Driver/Src/stm32l4xx_hal_flash_ex.c ****   status = FLASH_WaitForLastOperation((uint32_t)FLASH_TIMEOUT_VALUE);
 782:../Drivers/STM32L4xx_HAL_Driver/Src/stm32l4xx_hal_flash_ex.c **** 
 783:../Drivers/STM32L4xx_HAL_Driver/Src/stm32l4xx_hal_flash_ex.c ****   if(status == HAL_OK)
ARM GAS  Build/stm32l4xx_hal_flash_ex.s 			page 16


 784:../Drivers/STM32L4xx_HAL_Driver/Src/stm32l4xx_hal_flash_ex.c ****   {
 785:../Drivers/STM32L4xx_HAL_Driver/Src/stm32l4xx_hal_flash_ex.c ****     if((UserType & OB_USER_BOR_LEV) != 0U)
 786:../Drivers/STM32L4xx_HAL_Driver/Src/stm32l4xx_hal_flash_ex.c ****     {
 787:../Drivers/STM32L4xx_HAL_Driver/Src/stm32l4xx_hal_flash_ex.c ****       /* BOR level option byte should be modified */
 788:../Drivers/STM32L4xx_HAL_Driver/Src/stm32l4xx_hal_flash_ex.c ****       assert_param(IS_OB_USER_BOR_LEVEL(UserConfig & FLASH_OPTR_BOR_LEV));
 789:../Drivers/STM32L4xx_HAL_Driver/Src/stm32l4xx_hal_flash_ex.c **** 
 790:../Drivers/STM32L4xx_HAL_Driver/Src/stm32l4xx_hal_flash_ex.c ****       /* Set value and mask for BOR level option byte */
 791:../Drivers/STM32L4xx_HAL_Driver/Src/stm32l4xx_hal_flash_ex.c ****       optr_reg_val |= (UserConfig & FLASH_OPTR_BOR_LEV);
 792:../Drivers/STM32L4xx_HAL_Driver/Src/stm32l4xx_hal_flash_ex.c ****       optr_reg_mask |= FLASH_OPTR_BOR_LEV;
 793:../Drivers/STM32L4xx_HAL_Driver/Src/stm32l4xx_hal_flash_ex.c ****     }
 794:../Drivers/STM32L4xx_HAL_Driver/Src/stm32l4xx_hal_flash_ex.c **** 
 795:../Drivers/STM32L4xx_HAL_Driver/Src/stm32l4xx_hal_flash_ex.c ****     if((UserType & OB_USER_nRST_STOP) != 0U)
 796:../Drivers/STM32L4xx_HAL_Driver/Src/stm32l4xx_hal_flash_ex.c ****     {
 797:../Drivers/STM32L4xx_HAL_Driver/Src/stm32l4xx_hal_flash_ex.c ****       /* nRST_STOP option byte should be modified */
 798:../Drivers/STM32L4xx_HAL_Driver/Src/stm32l4xx_hal_flash_ex.c ****       assert_param(IS_OB_USER_STOP(UserConfig & FLASH_OPTR_nRST_STOP));
 799:../Drivers/STM32L4xx_HAL_Driver/Src/stm32l4xx_hal_flash_ex.c **** 
 800:../Drivers/STM32L4xx_HAL_Driver/Src/stm32l4xx_hal_flash_ex.c ****       /* Set value and mask for nRST_STOP option byte */
 801:../Drivers/STM32L4xx_HAL_Driver/Src/stm32l4xx_hal_flash_ex.c ****       optr_reg_val |= (UserConfig & FLASH_OPTR_nRST_STOP);
 802:../Drivers/STM32L4xx_HAL_Driver/Src/stm32l4xx_hal_flash_ex.c ****       optr_reg_mask |= FLASH_OPTR_nRST_STOP;
 803:../Drivers/STM32L4xx_HAL_Driver/Src/stm32l4xx_hal_flash_ex.c ****     }
 804:../Drivers/STM32L4xx_HAL_Driver/Src/stm32l4xx_hal_flash_ex.c **** 
 805:../Drivers/STM32L4xx_HAL_Driver/Src/stm32l4xx_hal_flash_ex.c ****     if((UserType & OB_USER_nRST_STDBY) != 0U)
 806:../Drivers/STM32L4xx_HAL_Driver/Src/stm32l4xx_hal_flash_ex.c ****     {
 807:../Drivers/STM32L4xx_HAL_Driver/Src/stm32l4xx_hal_flash_ex.c ****       /* nRST_STDBY option byte should be modified */
 808:../Drivers/STM32L4xx_HAL_Driver/Src/stm32l4xx_hal_flash_ex.c ****       assert_param(IS_OB_USER_STANDBY(UserConfig & FLASH_OPTR_nRST_STDBY));
 809:../Drivers/STM32L4xx_HAL_Driver/Src/stm32l4xx_hal_flash_ex.c **** 
 810:../Drivers/STM32L4xx_HAL_Driver/Src/stm32l4xx_hal_flash_ex.c ****       /* Set value and mask for nRST_STDBY option byte */
 811:../Drivers/STM32L4xx_HAL_Driver/Src/stm32l4xx_hal_flash_ex.c ****       optr_reg_val |= (UserConfig & FLASH_OPTR_nRST_STDBY);
 812:../Drivers/STM32L4xx_HAL_Driver/Src/stm32l4xx_hal_flash_ex.c ****       optr_reg_mask |= FLASH_OPTR_nRST_STDBY;
 813:../Drivers/STM32L4xx_HAL_Driver/Src/stm32l4xx_hal_flash_ex.c ****     }
 814:../Drivers/STM32L4xx_HAL_Driver/Src/stm32l4xx_hal_flash_ex.c **** 
 815:../Drivers/STM32L4xx_HAL_Driver/Src/stm32l4xx_hal_flash_ex.c ****     if((UserType & OB_USER_nRST_SHDW) != 0U)
 816:../Drivers/STM32L4xx_HAL_Driver/Src/stm32l4xx_hal_flash_ex.c ****     {
 817:../Drivers/STM32L4xx_HAL_Driver/Src/stm32l4xx_hal_flash_ex.c ****       /* nRST_SHDW option byte should be modified */
 818:../Drivers/STM32L4xx_HAL_Driver/Src/stm32l4xx_hal_flash_ex.c ****       assert_param(IS_OB_USER_SHUTDOWN(UserConfig & FLASH_OPTR_nRST_SHDW));
 819:../Drivers/STM32L4xx_HAL_Driver/Src/stm32l4xx_hal_flash_ex.c **** 
 820:../Drivers/STM32L4xx_HAL_Driver/Src/stm32l4xx_hal_flash_ex.c ****       /* Set value and mask for nRST_SHDW option byte */
 821:../Drivers/STM32L4xx_HAL_Driver/Src/stm32l4xx_hal_flash_ex.c ****       optr_reg_val |= (UserConfig & FLASH_OPTR_nRST_SHDW);
 822:../Drivers/STM32L4xx_HAL_Driver/Src/stm32l4xx_hal_flash_ex.c ****       optr_reg_mask |= FLASH_OPTR_nRST_SHDW;
 823:../Drivers/STM32L4xx_HAL_Driver/Src/stm32l4xx_hal_flash_ex.c ****     }
 824:../Drivers/STM32L4xx_HAL_Driver/Src/stm32l4xx_hal_flash_ex.c **** 
 825:../Drivers/STM32L4xx_HAL_Driver/Src/stm32l4xx_hal_flash_ex.c ****     if((UserType & OB_USER_IWDG_SW) != 0U)
 826:../Drivers/STM32L4xx_HAL_Driver/Src/stm32l4xx_hal_flash_ex.c ****     {
 827:../Drivers/STM32L4xx_HAL_Driver/Src/stm32l4xx_hal_flash_ex.c ****       /* IWDG_SW option byte should be modified */
 828:../Drivers/STM32L4xx_HAL_Driver/Src/stm32l4xx_hal_flash_ex.c ****       assert_param(IS_OB_USER_IWDG(UserConfig & FLASH_OPTR_IWDG_SW));
 829:../Drivers/STM32L4xx_HAL_Driver/Src/stm32l4xx_hal_flash_ex.c **** 
 830:../Drivers/STM32L4xx_HAL_Driver/Src/stm32l4xx_hal_flash_ex.c ****       /* Set value and mask for IWDG_SW option byte */
 831:../Drivers/STM32L4xx_HAL_Driver/Src/stm32l4xx_hal_flash_ex.c ****       optr_reg_val |= (UserConfig & FLASH_OPTR_IWDG_SW);
 832:../Drivers/STM32L4xx_HAL_Driver/Src/stm32l4xx_hal_flash_ex.c ****       optr_reg_mask |= FLASH_OPTR_IWDG_SW;
 833:../Drivers/STM32L4xx_HAL_Driver/Src/stm32l4xx_hal_flash_ex.c ****     }
 834:../Drivers/STM32L4xx_HAL_Driver/Src/stm32l4xx_hal_flash_ex.c **** 
 835:../Drivers/STM32L4xx_HAL_Driver/Src/stm32l4xx_hal_flash_ex.c ****     if((UserType & OB_USER_IWDG_STOP) != 0U)
 836:../Drivers/STM32L4xx_HAL_Driver/Src/stm32l4xx_hal_flash_ex.c ****     {
 837:../Drivers/STM32L4xx_HAL_Driver/Src/stm32l4xx_hal_flash_ex.c ****       /* IWDG_STOP option byte should be modified */
 838:../Drivers/STM32L4xx_HAL_Driver/Src/stm32l4xx_hal_flash_ex.c ****       assert_param(IS_OB_USER_IWDG_STOP(UserConfig & FLASH_OPTR_IWDG_STOP));
 839:../Drivers/STM32L4xx_HAL_Driver/Src/stm32l4xx_hal_flash_ex.c **** 
 840:../Drivers/STM32L4xx_HAL_Driver/Src/stm32l4xx_hal_flash_ex.c ****       /* Set value and mask for IWDG_STOP option byte */
ARM GAS  Build/stm32l4xx_hal_flash_ex.s 			page 17


 841:../Drivers/STM32L4xx_HAL_Driver/Src/stm32l4xx_hal_flash_ex.c ****       optr_reg_val |= (UserConfig & FLASH_OPTR_IWDG_STOP);
 842:../Drivers/STM32L4xx_HAL_Driver/Src/stm32l4xx_hal_flash_ex.c ****       optr_reg_mask |= FLASH_OPTR_IWDG_STOP;
 843:../Drivers/STM32L4xx_HAL_Driver/Src/stm32l4xx_hal_flash_ex.c ****     }
 844:../Drivers/STM32L4xx_HAL_Driver/Src/stm32l4xx_hal_flash_ex.c **** 
 845:../Drivers/STM32L4xx_HAL_Driver/Src/stm32l4xx_hal_flash_ex.c ****     if((UserType & OB_USER_IWDG_STDBY) != 0U)
 846:../Drivers/STM32L4xx_HAL_Driver/Src/stm32l4xx_hal_flash_ex.c ****     {
 847:../Drivers/STM32L4xx_HAL_Driver/Src/stm32l4xx_hal_flash_ex.c ****       /* IWDG_STDBY option byte should be modified */
 848:../Drivers/STM32L4xx_HAL_Driver/Src/stm32l4xx_hal_flash_ex.c ****       assert_param(IS_OB_USER_IWDG_STDBY(UserConfig & FLASH_OPTR_IWDG_STDBY));
 849:../Drivers/STM32L4xx_HAL_Driver/Src/stm32l4xx_hal_flash_ex.c **** 
 850:../Drivers/STM32L4xx_HAL_Driver/Src/stm32l4xx_hal_flash_ex.c ****       /* Set value and mask for IWDG_STDBY option byte */
 851:../Drivers/STM32L4xx_HAL_Driver/Src/stm32l4xx_hal_flash_ex.c ****       optr_reg_val |= (UserConfig & FLASH_OPTR_IWDG_STDBY);
 852:../Drivers/STM32L4xx_HAL_Driver/Src/stm32l4xx_hal_flash_ex.c ****       optr_reg_mask |= FLASH_OPTR_IWDG_STDBY;
 853:../Drivers/STM32L4xx_HAL_Driver/Src/stm32l4xx_hal_flash_ex.c ****     }
 854:../Drivers/STM32L4xx_HAL_Driver/Src/stm32l4xx_hal_flash_ex.c **** 
 855:../Drivers/STM32L4xx_HAL_Driver/Src/stm32l4xx_hal_flash_ex.c ****     if((UserType & OB_USER_WWDG_SW) != 0U)
 856:../Drivers/STM32L4xx_HAL_Driver/Src/stm32l4xx_hal_flash_ex.c ****     {
 857:../Drivers/STM32L4xx_HAL_Driver/Src/stm32l4xx_hal_flash_ex.c ****       /* WWDG_SW option byte should be modified */
 858:../Drivers/STM32L4xx_HAL_Driver/Src/stm32l4xx_hal_flash_ex.c ****       assert_param(IS_OB_USER_WWDG(UserConfig & FLASH_OPTR_WWDG_SW));
 859:../Drivers/STM32L4xx_HAL_Driver/Src/stm32l4xx_hal_flash_ex.c **** 
 860:../Drivers/STM32L4xx_HAL_Driver/Src/stm32l4xx_hal_flash_ex.c ****       /* Set value and mask for WWDG_SW option byte */
 861:../Drivers/STM32L4xx_HAL_Driver/Src/stm32l4xx_hal_flash_ex.c ****       optr_reg_val |= (UserConfig & FLASH_OPTR_WWDG_SW);
 862:../Drivers/STM32L4xx_HAL_Driver/Src/stm32l4xx_hal_flash_ex.c ****       optr_reg_mask |= FLASH_OPTR_WWDG_SW;
 863:../Drivers/STM32L4xx_HAL_Driver/Src/stm32l4xx_hal_flash_ex.c ****     }
 864:../Drivers/STM32L4xx_HAL_Driver/Src/stm32l4xx_hal_flash_ex.c **** 
 865:../Drivers/STM32L4xx_HAL_Driver/Src/stm32l4xx_hal_flash_ex.c **** #if defined (STM32L471xx) || defined (STM32L475xx) || defined (STM32L476xx) || defined (STM32L485xx
 866:../Drivers/STM32L4xx_HAL_Driver/Src/stm32l4xx_hal_flash_ex.c ****     defined (STM32L496xx) || defined (STM32L4A6xx) || \
 867:../Drivers/STM32L4xx_HAL_Driver/Src/stm32l4xx_hal_flash_ex.c ****     defined (STM32L4P5xx) || defined (STM32L4Q5xx) || \
 868:../Drivers/STM32L4xx_HAL_Driver/Src/stm32l4xx_hal_flash_ex.c ****     defined (STM32L4R5xx) || defined (STM32L4R7xx) || defined (STM32L4R9xx) || defined (STM32L4S5xx
 869:../Drivers/STM32L4xx_HAL_Driver/Src/stm32l4xx_hal_flash_ex.c ****     if((UserType & OB_USER_BFB2) != 0U)
 870:../Drivers/STM32L4xx_HAL_Driver/Src/stm32l4xx_hal_flash_ex.c ****     {
 871:../Drivers/STM32L4xx_HAL_Driver/Src/stm32l4xx_hal_flash_ex.c ****       /* BFB2 option byte should be modified */
 872:../Drivers/STM32L4xx_HAL_Driver/Src/stm32l4xx_hal_flash_ex.c ****       assert_param(IS_OB_USER_BFB2(UserConfig & FLASH_OPTR_BFB2));
 873:../Drivers/STM32L4xx_HAL_Driver/Src/stm32l4xx_hal_flash_ex.c **** 
 874:../Drivers/STM32L4xx_HAL_Driver/Src/stm32l4xx_hal_flash_ex.c ****       /* Set value and mask for BFB2 option byte */
 875:../Drivers/STM32L4xx_HAL_Driver/Src/stm32l4xx_hal_flash_ex.c ****       optr_reg_val |= (UserConfig & FLASH_OPTR_BFB2);
 876:../Drivers/STM32L4xx_HAL_Driver/Src/stm32l4xx_hal_flash_ex.c ****       optr_reg_mask |= FLASH_OPTR_BFB2;
 877:../Drivers/STM32L4xx_HAL_Driver/Src/stm32l4xx_hal_flash_ex.c ****     }
 878:../Drivers/STM32L4xx_HAL_Driver/Src/stm32l4xx_hal_flash_ex.c **** 
 879:../Drivers/STM32L4xx_HAL_Driver/Src/stm32l4xx_hal_flash_ex.c ****     if((UserType & OB_USER_DUALBANK) != 0U)
 880:../Drivers/STM32L4xx_HAL_Driver/Src/stm32l4xx_hal_flash_ex.c ****     {
 881:../Drivers/STM32L4xx_HAL_Driver/Src/stm32l4xx_hal_flash_ex.c **** #if defined (STM32L4P5xx) || defined (STM32L4Q5xx) || defined (STM32L4R5xx) || defined (STM32L4R7xx
 882:../Drivers/STM32L4xx_HAL_Driver/Src/stm32l4xx_hal_flash_ex.c ****       /* DUALBANK option byte should be modified */
 883:../Drivers/STM32L4xx_HAL_Driver/Src/stm32l4xx_hal_flash_ex.c ****       assert_param(IS_OB_USER_DUALBANK(UserConfig & FLASH_OPTR_DB1M));
 884:../Drivers/STM32L4xx_HAL_Driver/Src/stm32l4xx_hal_flash_ex.c **** 
 885:../Drivers/STM32L4xx_HAL_Driver/Src/stm32l4xx_hal_flash_ex.c ****       /* Set value and mask for DUALBANK option byte */
 886:../Drivers/STM32L4xx_HAL_Driver/Src/stm32l4xx_hal_flash_ex.c ****       optr_reg_val |= (UserConfig & FLASH_OPTR_DB1M);
 887:../Drivers/STM32L4xx_HAL_Driver/Src/stm32l4xx_hal_flash_ex.c ****       optr_reg_mask |= FLASH_OPTR_DB1M;
 888:../Drivers/STM32L4xx_HAL_Driver/Src/stm32l4xx_hal_flash_ex.c **** #else
 889:../Drivers/STM32L4xx_HAL_Driver/Src/stm32l4xx_hal_flash_ex.c ****       /* DUALBANK option byte should be modified */
 890:../Drivers/STM32L4xx_HAL_Driver/Src/stm32l4xx_hal_flash_ex.c ****       assert_param(IS_OB_USER_DUALBANK(UserConfig & FLASH_OPTR_DUALBANK));
 891:../Drivers/STM32L4xx_HAL_Driver/Src/stm32l4xx_hal_flash_ex.c **** 
 892:../Drivers/STM32L4xx_HAL_Driver/Src/stm32l4xx_hal_flash_ex.c ****       /* Set value and mask for DUALBANK option byte */
 893:../Drivers/STM32L4xx_HAL_Driver/Src/stm32l4xx_hal_flash_ex.c ****       optr_reg_val |= (UserConfig & FLASH_OPTR_DUALBANK);
 894:../Drivers/STM32L4xx_HAL_Driver/Src/stm32l4xx_hal_flash_ex.c ****       optr_reg_mask |= FLASH_OPTR_DUALBANK;
 895:../Drivers/STM32L4xx_HAL_Driver/Src/stm32l4xx_hal_flash_ex.c **** #endif
 896:../Drivers/STM32L4xx_HAL_Driver/Src/stm32l4xx_hal_flash_ex.c ****     }
 897:../Drivers/STM32L4xx_HAL_Driver/Src/stm32l4xx_hal_flash_ex.c **** #endif
ARM GAS  Build/stm32l4xx_hal_flash_ex.s 			page 18


 898:../Drivers/STM32L4xx_HAL_Driver/Src/stm32l4xx_hal_flash_ex.c **** 
 899:../Drivers/STM32L4xx_HAL_Driver/Src/stm32l4xx_hal_flash_ex.c ****     if((UserType & OB_USER_nBOOT1) != 0U)
 900:../Drivers/STM32L4xx_HAL_Driver/Src/stm32l4xx_hal_flash_ex.c ****     {
 901:../Drivers/STM32L4xx_HAL_Driver/Src/stm32l4xx_hal_flash_ex.c ****       /* nBOOT1 option byte should be modified */
 902:../Drivers/STM32L4xx_HAL_Driver/Src/stm32l4xx_hal_flash_ex.c ****       assert_param(IS_OB_USER_BOOT1(UserConfig & FLASH_OPTR_nBOOT1));
 903:../Drivers/STM32L4xx_HAL_Driver/Src/stm32l4xx_hal_flash_ex.c **** 
 904:../Drivers/STM32L4xx_HAL_Driver/Src/stm32l4xx_hal_flash_ex.c ****       /* Set value and mask for nBOOT1 option byte */
 905:../Drivers/STM32L4xx_HAL_Driver/Src/stm32l4xx_hal_flash_ex.c ****       optr_reg_val |= (UserConfig & FLASH_OPTR_nBOOT1);
 906:../Drivers/STM32L4xx_HAL_Driver/Src/stm32l4xx_hal_flash_ex.c ****       optr_reg_mask |= FLASH_OPTR_nBOOT1;
 907:../Drivers/STM32L4xx_HAL_Driver/Src/stm32l4xx_hal_flash_ex.c ****     }
 908:../Drivers/STM32L4xx_HAL_Driver/Src/stm32l4xx_hal_flash_ex.c **** 
 909:../Drivers/STM32L4xx_HAL_Driver/Src/stm32l4xx_hal_flash_ex.c ****     if((UserType & OB_USER_SRAM2_PE) != 0U)
 910:../Drivers/STM32L4xx_HAL_Driver/Src/stm32l4xx_hal_flash_ex.c ****     {
 911:../Drivers/STM32L4xx_HAL_Driver/Src/stm32l4xx_hal_flash_ex.c ****       /* SRAM2_PE option byte should be modified */
 912:../Drivers/STM32L4xx_HAL_Driver/Src/stm32l4xx_hal_flash_ex.c ****       assert_param(IS_OB_USER_SRAM2_PARITY(UserConfig & FLASH_OPTR_SRAM2_PE));
 913:../Drivers/STM32L4xx_HAL_Driver/Src/stm32l4xx_hal_flash_ex.c **** 
 914:../Drivers/STM32L4xx_HAL_Driver/Src/stm32l4xx_hal_flash_ex.c ****       /* Set value and mask for SRAM2_PE option byte */
 915:../Drivers/STM32L4xx_HAL_Driver/Src/stm32l4xx_hal_flash_ex.c ****       optr_reg_val |= (UserConfig & FLASH_OPTR_SRAM2_PE);
 916:../Drivers/STM32L4xx_HAL_Driver/Src/stm32l4xx_hal_flash_ex.c ****       optr_reg_mask |= FLASH_OPTR_SRAM2_PE;
 917:../Drivers/STM32L4xx_HAL_Driver/Src/stm32l4xx_hal_flash_ex.c ****     }
 918:../Drivers/STM32L4xx_HAL_Driver/Src/stm32l4xx_hal_flash_ex.c **** 
 919:../Drivers/STM32L4xx_HAL_Driver/Src/stm32l4xx_hal_flash_ex.c ****     if((UserType & OB_USER_SRAM2_RST) != 0U)
 920:../Drivers/STM32L4xx_HAL_Driver/Src/stm32l4xx_hal_flash_ex.c ****     {
 921:../Drivers/STM32L4xx_HAL_Driver/Src/stm32l4xx_hal_flash_ex.c ****       /* SRAM2_RST option byte should be modified */
 922:../Drivers/STM32L4xx_HAL_Driver/Src/stm32l4xx_hal_flash_ex.c ****       assert_param(IS_OB_USER_SRAM2_RST(UserConfig & FLASH_OPTR_SRAM2_RST));
 923:../Drivers/STM32L4xx_HAL_Driver/Src/stm32l4xx_hal_flash_ex.c **** 
 924:../Drivers/STM32L4xx_HAL_Driver/Src/stm32l4xx_hal_flash_ex.c ****       /* Set value and mask for SRAM2_RST option byte */
 925:../Drivers/STM32L4xx_HAL_Driver/Src/stm32l4xx_hal_flash_ex.c ****       optr_reg_val |= (UserConfig & FLASH_OPTR_SRAM2_RST);
 926:../Drivers/STM32L4xx_HAL_Driver/Src/stm32l4xx_hal_flash_ex.c ****       optr_reg_mask |= FLASH_OPTR_SRAM2_RST;
 927:../Drivers/STM32L4xx_HAL_Driver/Src/stm32l4xx_hal_flash_ex.c ****     }
 928:../Drivers/STM32L4xx_HAL_Driver/Src/stm32l4xx_hal_flash_ex.c **** 
 929:../Drivers/STM32L4xx_HAL_Driver/Src/stm32l4xx_hal_flash_ex.c **** #if defined (STM32L412xx) || defined (STM32L422xx) || defined (STM32L431xx) || defined (STM32L432xx
 930:../Drivers/STM32L4xx_HAL_Driver/Src/stm32l4xx_hal_flash_ex.c ****     defined (STM32L442xx) || defined (STM32L443xx) || defined (STM32L451xx) || defined (STM32L452xx
 931:../Drivers/STM32L4xx_HAL_Driver/Src/stm32l4xx_hal_flash_ex.c ****     defined (STM32L496xx) || defined (STM32L4A6xx) || \
 932:../Drivers/STM32L4xx_HAL_Driver/Src/stm32l4xx_hal_flash_ex.c ****     defined (STM32L4P5xx) || defined (STM32L4Q5xx) || \
 933:../Drivers/STM32L4xx_HAL_Driver/Src/stm32l4xx_hal_flash_ex.c ****     defined (STM32L4R5xx) || defined (STM32L4R7xx) || defined (STM32L4R9xx) || defined (STM32L4S5xx
 934:../Drivers/STM32L4xx_HAL_Driver/Src/stm32l4xx_hal_flash_ex.c ****     if((UserType & OB_USER_nSWBOOT0) != 0U)
 935:../Drivers/STM32L4xx_HAL_Driver/Src/stm32l4xx_hal_flash_ex.c ****     {
 936:../Drivers/STM32L4xx_HAL_Driver/Src/stm32l4xx_hal_flash_ex.c ****       /* nSWBOOT0 option byte should be modified */
 937:../Drivers/STM32L4xx_HAL_Driver/Src/stm32l4xx_hal_flash_ex.c ****       assert_param(IS_OB_USER_SWBOOT0(UserConfig & FLASH_OPTR_nSWBOOT0));
 938:../Drivers/STM32L4xx_HAL_Driver/Src/stm32l4xx_hal_flash_ex.c **** 
 939:../Drivers/STM32L4xx_HAL_Driver/Src/stm32l4xx_hal_flash_ex.c ****       /* Set value and mask for nSWBOOT0 option byte */
 940:../Drivers/STM32L4xx_HAL_Driver/Src/stm32l4xx_hal_flash_ex.c ****       optr_reg_val |= (UserConfig & FLASH_OPTR_nSWBOOT0);
 941:../Drivers/STM32L4xx_HAL_Driver/Src/stm32l4xx_hal_flash_ex.c ****       optr_reg_mask |= FLASH_OPTR_nSWBOOT0;
 942:../Drivers/STM32L4xx_HAL_Driver/Src/stm32l4xx_hal_flash_ex.c ****     }
 943:../Drivers/STM32L4xx_HAL_Driver/Src/stm32l4xx_hal_flash_ex.c **** 
 944:../Drivers/STM32L4xx_HAL_Driver/Src/stm32l4xx_hal_flash_ex.c ****     if((UserType & OB_USER_nBOOT0) != 0U)
 945:../Drivers/STM32L4xx_HAL_Driver/Src/stm32l4xx_hal_flash_ex.c ****     {
 946:../Drivers/STM32L4xx_HAL_Driver/Src/stm32l4xx_hal_flash_ex.c ****       /* nBOOT0 option byte should be modified */
 947:../Drivers/STM32L4xx_HAL_Driver/Src/stm32l4xx_hal_flash_ex.c ****       assert_param(IS_OB_USER_BOOT0(UserConfig & FLASH_OPTR_nBOOT0));
 948:../Drivers/STM32L4xx_HAL_Driver/Src/stm32l4xx_hal_flash_ex.c **** 
 949:../Drivers/STM32L4xx_HAL_Driver/Src/stm32l4xx_hal_flash_ex.c ****       /* Set value and mask for nBOOT0 option byte */
 950:../Drivers/STM32L4xx_HAL_Driver/Src/stm32l4xx_hal_flash_ex.c ****       optr_reg_val |= (UserConfig & FLASH_OPTR_nBOOT0);
 951:../Drivers/STM32L4xx_HAL_Driver/Src/stm32l4xx_hal_flash_ex.c ****       optr_reg_mask |= FLASH_OPTR_nBOOT0;
 952:../Drivers/STM32L4xx_HAL_Driver/Src/stm32l4xx_hal_flash_ex.c ****     }
 953:../Drivers/STM32L4xx_HAL_Driver/Src/stm32l4xx_hal_flash_ex.c **** #endif
 954:../Drivers/STM32L4xx_HAL_Driver/Src/stm32l4xx_hal_flash_ex.c **** 
ARM GAS  Build/stm32l4xx_hal_flash_ex.s 			page 19


 955:../Drivers/STM32L4xx_HAL_Driver/Src/stm32l4xx_hal_flash_ex.c ****     /* Configure the option bytes register */
 956:../Drivers/STM32L4xx_HAL_Driver/Src/stm32l4xx_hal_flash_ex.c ****     MODIFY_REG(FLASH->OPTR, optr_reg_mask, optr_reg_val);
 957:../Drivers/STM32L4xx_HAL_Driver/Src/stm32l4xx_hal_flash_ex.c **** 
 958:../Drivers/STM32L4xx_HAL_Driver/Src/stm32l4xx_hal_flash_ex.c ****     /* Set OPTSTRT Bit */
 959:../Drivers/STM32L4xx_HAL_Driver/Src/stm32l4xx_hal_flash_ex.c ****     SET_BIT(FLASH->CR, FLASH_CR_OPTSTRT);
 960:../Drivers/STM32L4xx_HAL_Driver/Src/stm32l4xx_hal_flash_ex.c **** 
 961:../Drivers/STM32L4xx_HAL_Driver/Src/stm32l4xx_hal_flash_ex.c ****     /* Wait for last operation to be completed */
 962:../Drivers/STM32L4xx_HAL_Driver/Src/stm32l4xx_hal_flash_ex.c ****     status = FLASH_WaitForLastOperation((uint32_t)FLASH_TIMEOUT_VALUE);
 963:../Drivers/STM32L4xx_HAL_Driver/Src/stm32l4xx_hal_flash_ex.c **** 
 964:../Drivers/STM32L4xx_HAL_Driver/Src/stm32l4xx_hal_flash_ex.c ****     /* If the option byte program operation is completed, disable the OPTSTRT Bit */
 965:../Drivers/STM32L4xx_HAL_Driver/Src/stm32l4xx_hal_flash_ex.c ****     CLEAR_BIT(FLASH->CR, FLASH_CR_OPTSTRT);
 966:../Drivers/STM32L4xx_HAL_Driver/Src/stm32l4xx_hal_flash_ex.c ****   }
 967:../Drivers/STM32L4xx_HAL_Driver/Src/stm32l4xx_hal_flash_ex.c **** 
 968:../Drivers/STM32L4xx_HAL_Driver/Src/stm32l4xx_hal_flash_ex.c ****   return status;
 969:../Drivers/STM32L4xx_HAL_Driver/Src/stm32l4xx_hal_flash_ex.c **** }
 970:../Drivers/STM32L4xx_HAL_Driver/Src/stm32l4xx_hal_flash_ex.c **** 
 971:../Drivers/STM32L4xx_HAL_Driver/Src/stm32l4xx_hal_flash_ex.c **** /**
 972:../Drivers/STM32L4xx_HAL_Driver/Src/stm32l4xx_hal_flash_ex.c ****   * @brief  Configure the Proprietary code readout protection of the desired addresses.
 973:../Drivers/STM32L4xx_HAL_Driver/Src/stm32l4xx_hal_flash_ex.c ****   *
 974:../Drivers/STM32L4xx_HAL_Driver/Src/stm32l4xx_hal_flash_ex.c ****   * @note   To configure the PCROP options, the option lock bit OPTLOCK must be
 975:../Drivers/STM32L4xx_HAL_Driver/Src/stm32l4xx_hal_flash_ex.c ****   *         cleared with the call of the HAL_FLASH_OB_Unlock() function.
 976:../Drivers/STM32L4xx_HAL_Driver/Src/stm32l4xx_hal_flash_ex.c ****   * @note   To validate the PCROP options, the option bytes must be reloaded
 977:../Drivers/STM32L4xx_HAL_Driver/Src/stm32l4xx_hal_flash_ex.c ****   *         through the call of the HAL_FLASH_OB_Launch() function.
 978:../Drivers/STM32L4xx_HAL_Driver/Src/stm32l4xx_hal_flash_ex.c ****   *
 979:../Drivers/STM32L4xx_HAL_Driver/Src/stm32l4xx_hal_flash_ex.c ****   * @param  PCROPConfig specifies the configuration (Bank to be configured and PCROP_RDP option).
 980:../Drivers/STM32L4xx_HAL_Driver/Src/stm32l4xx_hal_flash_ex.c ****   *          This parameter must be a combination of FLASH_BANK_1 or FLASH_BANK_2
 981:../Drivers/STM32L4xx_HAL_Driver/Src/stm32l4xx_hal_flash_ex.c ****   *          with OB_PCROP_RDP_NOT_ERASE or OB_PCROP_RDP_ERASE
 982:../Drivers/STM32L4xx_HAL_Driver/Src/stm32l4xx_hal_flash_ex.c ****   *
 983:../Drivers/STM32L4xx_HAL_Driver/Src/stm32l4xx_hal_flash_ex.c ****   * @param  PCROPStartAddr specifies the start address of the Proprietary code readout protection
 984:../Drivers/STM32L4xx_HAL_Driver/Src/stm32l4xx_hal_flash_ex.c ****   *          This parameter can be an address between begin and end of the bank
 985:../Drivers/STM32L4xx_HAL_Driver/Src/stm32l4xx_hal_flash_ex.c ****   *
 986:../Drivers/STM32L4xx_HAL_Driver/Src/stm32l4xx_hal_flash_ex.c ****   * @param  PCROPEndAddr specifies the end address of the Proprietary code readout protection
 987:../Drivers/STM32L4xx_HAL_Driver/Src/stm32l4xx_hal_flash_ex.c ****   *          This parameter can be an address between PCROPStartAddr and end of the bank
 988:../Drivers/STM32L4xx_HAL_Driver/Src/stm32l4xx_hal_flash_ex.c ****   *
 989:../Drivers/STM32L4xx_HAL_Driver/Src/stm32l4xx_hal_flash_ex.c ****   * @retval HAL Status
 990:../Drivers/STM32L4xx_HAL_Driver/Src/stm32l4xx_hal_flash_ex.c ****   */
 991:../Drivers/STM32L4xx_HAL_Driver/Src/stm32l4xx_hal_flash_ex.c **** static HAL_StatusTypeDef FLASH_OB_PCROPConfig(uint32_t PCROPConfig, uint32_t PCROPStartAddr, uint32
 992:../Drivers/STM32L4xx_HAL_Driver/Src/stm32l4xx_hal_flash_ex.c **** {
 993:../Drivers/STM32L4xx_HAL_Driver/Src/stm32l4xx_hal_flash_ex.c ****   HAL_StatusTypeDef status;
 994:../Drivers/STM32L4xx_HAL_Driver/Src/stm32l4xx_hal_flash_ex.c ****   uint32_t reg_value;
 995:../Drivers/STM32L4xx_HAL_Driver/Src/stm32l4xx_hal_flash_ex.c ****   uint32_t bank1_addr;
 996:../Drivers/STM32L4xx_HAL_Driver/Src/stm32l4xx_hal_flash_ex.c **** #if defined (STM32L471xx) || defined (STM32L475xx) || defined (STM32L476xx) || defined (STM32L485xx
 997:../Drivers/STM32L4xx_HAL_Driver/Src/stm32l4xx_hal_flash_ex.c ****     defined (STM32L496xx) || defined (STM32L4A6xx) || \
 998:../Drivers/STM32L4xx_HAL_Driver/Src/stm32l4xx_hal_flash_ex.c ****     defined (STM32L4P5xx) || defined (STM32L4Q5xx) || \
 999:../Drivers/STM32L4xx_HAL_Driver/Src/stm32l4xx_hal_flash_ex.c ****     defined (STM32L4R5xx) || defined (STM32L4R7xx) || defined (STM32L4R9xx) || defined (STM32L4S5xx
1000:../Drivers/STM32L4xx_HAL_Driver/Src/stm32l4xx_hal_flash_ex.c ****   uint32_t bank2_addr;
1001:../Drivers/STM32L4xx_HAL_Driver/Src/stm32l4xx_hal_flash_ex.c **** #endif
1002:../Drivers/STM32L4xx_HAL_Driver/Src/stm32l4xx_hal_flash_ex.c **** 
1003:../Drivers/STM32L4xx_HAL_Driver/Src/stm32l4xx_hal_flash_ex.c ****   /* Check the parameters */
1004:../Drivers/STM32L4xx_HAL_Driver/Src/stm32l4xx_hal_flash_ex.c ****   assert_param(IS_FLASH_BANK_EXCLUSIVE(PCROPConfig & FLASH_BANK_BOTH));
1005:../Drivers/STM32L4xx_HAL_Driver/Src/stm32l4xx_hal_flash_ex.c ****   assert_param(IS_OB_PCROP_RDP(PCROPConfig & FLASH_PCROP1ER_PCROP_RDP));
1006:../Drivers/STM32L4xx_HAL_Driver/Src/stm32l4xx_hal_flash_ex.c ****   assert_param(IS_FLASH_MAIN_MEM_ADDRESS(PCROPStartAddr));
1007:../Drivers/STM32L4xx_HAL_Driver/Src/stm32l4xx_hal_flash_ex.c ****   assert_param(IS_FLASH_MAIN_MEM_ADDRESS(PCROPEndAddr));
1008:../Drivers/STM32L4xx_HAL_Driver/Src/stm32l4xx_hal_flash_ex.c **** 
1009:../Drivers/STM32L4xx_HAL_Driver/Src/stm32l4xx_hal_flash_ex.c ****   /* Wait for last operation to be completed */
1010:../Drivers/STM32L4xx_HAL_Driver/Src/stm32l4xx_hal_flash_ex.c ****   status = FLASH_WaitForLastOperation((uint32_t)FLASH_TIMEOUT_VALUE);
1011:../Drivers/STM32L4xx_HAL_Driver/Src/stm32l4xx_hal_flash_ex.c **** 
ARM GAS  Build/stm32l4xx_hal_flash_ex.s 			page 20


1012:../Drivers/STM32L4xx_HAL_Driver/Src/stm32l4xx_hal_flash_ex.c ****   if(status == HAL_OK)
1013:../Drivers/STM32L4xx_HAL_Driver/Src/stm32l4xx_hal_flash_ex.c ****   {
1014:../Drivers/STM32L4xx_HAL_Driver/Src/stm32l4xx_hal_flash_ex.c **** #if defined (STM32L471xx) || defined (STM32L475xx) || defined (STM32L476xx) || defined (STM32L485xx
1015:../Drivers/STM32L4xx_HAL_Driver/Src/stm32l4xx_hal_flash_ex.c ****     defined (STM32L496xx) || defined (STM32L4A6xx) || \
1016:../Drivers/STM32L4xx_HAL_Driver/Src/stm32l4xx_hal_flash_ex.c ****     defined (STM32L4P5xx) || defined (STM32L4Q5xx) || \
1017:../Drivers/STM32L4xx_HAL_Driver/Src/stm32l4xx_hal_flash_ex.c ****     defined (STM32L4R5xx) || defined (STM32L4R7xx) || defined (STM32L4R9xx) || defined (STM32L4S5xx
1018:../Drivers/STM32L4xx_HAL_Driver/Src/stm32l4xx_hal_flash_ex.c ****     /* Get the information about the bank swapping */
1019:../Drivers/STM32L4xx_HAL_Driver/Src/stm32l4xx_hal_flash_ex.c ****     if (READ_BIT(SYSCFG->MEMRMP, SYSCFG_MEMRMP_FB_MODE) == 0U)
1020:../Drivers/STM32L4xx_HAL_Driver/Src/stm32l4xx_hal_flash_ex.c ****     {
1021:../Drivers/STM32L4xx_HAL_Driver/Src/stm32l4xx_hal_flash_ex.c ****       bank1_addr = FLASH_BASE;
1022:../Drivers/STM32L4xx_HAL_Driver/Src/stm32l4xx_hal_flash_ex.c ****       bank2_addr = FLASH_BASE + FLASH_BANK_SIZE;
1023:../Drivers/STM32L4xx_HAL_Driver/Src/stm32l4xx_hal_flash_ex.c ****     }
1024:../Drivers/STM32L4xx_HAL_Driver/Src/stm32l4xx_hal_flash_ex.c ****     else
1025:../Drivers/STM32L4xx_HAL_Driver/Src/stm32l4xx_hal_flash_ex.c ****     {
1026:../Drivers/STM32L4xx_HAL_Driver/Src/stm32l4xx_hal_flash_ex.c ****       bank1_addr = FLASH_BASE + FLASH_BANK_SIZE;
1027:../Drivers/STM32L4xx_HAL_Driver/Src/stm32l4xx_hal_flash_ex.c ****       bank2_addr = FLASH_BASE;
1028:../Drivers/STM32L4xx_HAL_Driver/Src/stm32l4xx_hal_flash_ex.c ****     }
1029:../Drivers/STM32L4xx_HAL_Driver/Src/stm32l4xx_hal_flash_ex.c **** #else
1030:../Drivers/STM32L4xx_HAL_Driver/Src/stm32l4xx_hal_flash_ex.c ****     bank1_addr = FLASH_BASE;
1031:../Drivers/STM32L4xx_HAL_Driver/Src/stm32l4xx_hal_flash_ex.c **** #endif
1032:../Drivers/STM32L4xx_HAL_Driver/Src/stm32l4xx_hal_flash_ex.c **** 
1033:../Drivers/STM32L4xx_HAL_Driver/Src/stm32l4xx_hal_flash_ex.c **** #if defined (STM32L4P5xx) || defined (STM32L4Q5xx) || defined (STM32L4R5xx) || defined (STM32L4R7xx
1034:../Drivers/STM32L4xx_HAL_Driver/Src/stm32l4xx_hal_flash_ex.c ****     if (READ_BIT(FLASH->OPTR, FLASH_OPTR_DBANK) == 0U)
1035:../Drivers/STM32L4xx_HAL_Driver/Src/stm32l4xx_hal_flash_ex.c ****     {
1036:../Drivers/STM32L4xx_HAL_Driver/Src/stm32l4xx_hal_flash_ex.c ****       /* Configure the Proprietary code readout protection */
1037:../Drivers/STM32L4xx_HAL_Driver/Src/stm32l4xx_hal_flash_ex.c ****       if((PCROPConfig & FLASH_BANK_BOTH) == FLASH_BANK_1)
1038:../Drivers/STM32L4xx_HAL_Driver/Src/stm32l4xx_hal_flash_ex.c ****       {
1039:../Drivers/STM32L4xx_HAL_Driver/Src/stm32l4xx_hal_flash_ex.c ****         reg_value = ((PCROPStartAddr - FLASH_BASE) >> 4);
1040:../Drivers/STM32L4xx_HAL_Driver/Src/stm32l4xx_hal_flash_ex.c ****         MODIFY_REG(FLASH->PCROP1SR, FLASH_PCROP1SR_PCROP1_STRT, reg_value);
1041:../Drivers/STM32L4xx_HAL_Driver/Src/stm32l4xx_hal_flash_ex.c **** 
1042:../Drivers/STM32L4xx_HAL_Driver/Src/stm32l4xx_hal_flash_ex.c ****         reg_value = ((PCROPEndAddr - FLASH_BASE) >> 4);
1043:../Drivers/STM32L4xx_HAL_Driver/Src/stm32l4xx_hal_flash_ex.c ****         MODIFY_REG(FLASH->PCROP1ER, FLASH_PCROP1ER_PCROP1_END, reg_value);
1044:../Drivers/STM32L4xx_HAL_Driver/Src/stm32l4xx_hal_flash_ex.c ****       }
1045:../Drivers/STM32L4xx_HAL_Driver/Src/stm32l4xx_hal_flash_ex.c ****       else if((PCROPConfig & FLASH_BANK_BOTH) == FLASH_BANK_2)
1046:../Drivers/STM32L4xx_HAL_Driver/Src/stm32l4xx_hal_flash_ex.c ****       {
1047:../Drivers/STM32L4xx_HAL_Driver/Src/stm32l4xx_hal_flash_ex.c ****         reg_value = ((PCROPStartAddr - FLASH_BASE) >> 4);
1048:../Drivers/STM32L4xx_HAL_Driver/Src/stm32l4xx_hal_flash_ex.c ****         MODIFY_REG(FLASH->PCROP2SR, FLASH_PCROP2SR_PCROP2_STRT, reg_value);
1049:../Drivers/STM32L4xx_HAL_Driver/Src/stm32l4xx_hal_flash_ex.c **** 
1050:../Drivers/STM32L4xx_HAL_Driver/Src/stm32l4xx_hal_flash_ex.c ****         reg_value = ((PCROPEndAddr - FLASH_BASE) >> 4);
1051:../Drivers/STM32L4xx_HAL_Driver/Src/stm32l4xx_hal_flash_ex.c ****         MODIFY_REG(FLASH->PCROP2ER, FLASH_PCROP2ER_PCROP2_END, reg_value);
1052:../Drivers/STM32L4xx_HAL_Driver/Src/stm32l4xx_hal_flash_ex.c ****       }
1053:../Drivers/STM32L4xx_HAL_Driver/Src/stm32l4xx_hal_flash_ex.c ****       else
1054:../Drivers/STM32L4xx_HAL_Driver/Src/stm32l4xx_hal_flash_ex.c ****       {
1055:../Drivers/STM32L4xx_HAL_Driver/Src/stm32l4xx_hal_flash_ex.c ****         /* Nothing to do */
1056:../Drivers/STM32L4xx_HAL_Driver/Src/stm32l4xx_hal_flash_ex.c ****       }
1057:../Drivers/STM32L4xx_HAL_Driver/Src/stm32l4xx_hal_flash_ex.c ****     }
1058:../Drivers/STM32L4xx_HAL_Driver/Src/stm32l4xx_hal_flash_ex.c ****     else
1059:../Drivers/STM32L4xx_HAL_Driver/Src/stm32l4xx_hal_flash_ex.c **** #endif
1060:../Drivers/STM32L4xx_HAL_Driver/Src/stm32l4xx_hal_flash_ex.c ****     {
1061:../Drivers/STM32L4xx_HAL_Driver/Src/stm32l4xx_hal_flash_ex.c ****       /* Configure the Proprietary code readout protection */
1062:../Drivers/STM32L4xx_HAL_Driver/Src/stm32l4xx_hal_flash_ex.c ****       if((PCROPConfig & FLASH_BANK_BOTH) == FLASH_BANK_1)
1063:../Drivers/STM32L4xx_HAL_Driver/Src/stm32l4xx_hal_flash_ex.c ****       {
1064:../Drivers/STM32L4xx_HAL_Driver/Src/stm32l4xx_hal_flash_ex.c ****         reg_value = ((PCROPStartAddr - bank1_addr) >> 3);
1065:../Drivers/STM32L4xx_HAL_Driver/Src/stm32l4xx_hal_flash_ex.c ****         MODIFY_REG(FLASH->PCROP1SR, FLASH_PCROP1SR_PCROP1_STRT, reg_value);
1066:../Drivers/STM32L4xx_HAL_Driver/Src/stm32l4xx_hal_flash_ex.c **** 
1067:../Drivers/STM32L4xx_HAL_Driver/Src/stm32l4xx_hal_flash_ex.c ****         reg_value = ((PCROPEndAddr - bank1_addr) >> 3);
1068:../Drivers/STM32L4xx_HAL_Driver/Src/stm32l4xx_hal_flash_ex.c ****         MODIFY_REG(FLASH->PCROP1ER, FLASH_PCROP1ER_PCROP1_END, reg_value);
ARM GAS  Build/stm32l4xx_hal_flash_ex.s 			page 21


1069:../Drivers/STM32L4xx_HAL_Driver/Src/stm32l4xx_hal_flash_ex.c ****       }
1070:../Drivers/STM32L4xx_HAL_Driver/Src/stm32l4xx_hal_flash_ex.c **** #if defined (STM32L471xx) || defined (STM32L475xx) || defined (STM32L476xx) || defined (STM32L485xx
1071:../Drivers/STM32L4xx_HAL_Driver/Src/stm32l4xx_hal_flash_ex.c ****     defined (STM32L496xx) || defined (STM32L4A6xx) || \
1072:../Drivers/STM32L4xx_HAL_Driver/Src/stm32l4xx_hal_flash_ex.c ****     defined (STM32L4P5xx) || defined (STM32L4Q5xx) || \
1073:../Drivers/STM32L4xx_HAL_Driver/Src/stm32l4xx_hal_flash_ex.c ****     defined (STM32L4R5xx) || defined (STM32L4R7xx) || defined (STM32L4R9xx) || defined (STM32L4S5xx
1074:../Drivers/STM32L4xx_HAL_Driver/Src/stm32l4xx_hal_flash_ex.c ****       else if((PCROPConfig & FLASH_BANK_BOTH) == FLASH_BANK_2)
1075:../Drivers/STM32L4xx_HAL_Driver/Src/stm32l4xx_hal_flash_ex.c ****       {
1076:../Drivers/STM32L4xx_HAL_Driver/Src/stm32l4xx_hal_flash_ex.c ****         reg_value = ((PCROPStartAddr - bank2_addr) >> 3);
1077:../Drivers/STM32L4xx_HAL_Driver/Src/stm32l4xx_hal_flash_ex.c ****         MODIFY_REG(FLASH->PCROP2SR, FLASH_PCROP2SR_PCROP2_STRT, reg_value);
1078:../Drivers/STM32L4xx_HAL_Driver/Src/stm32l4xx_hal_flash_ex.c **** 
1079:../Drivers/STM32L4xx_HAL_Driver/Src/stm32l4xx_hal_flash_ex.c ****         reg_value = ((PCROPEndAddr - bank2_addr) >> 3);
1080:../Drivers/STM32L4xx_HAL_Driver/Src/stm32l4xx_hal_flash_ex.c ****         MODIFY_REG(FLASH->PCROP2ER, FLASH_PCROP2ER_PCROP2_END, reg_value);
1081:../Drivers/STM32L4xx_HAL_Driver/Src/stm32l4xx_hal_flash_ex.c ****       }
1082:../Drivers/STM32L4xx_HAL_Driver/Src/stm32l4xx_hal_flash_ex.c **** #endif
1083:../Drivers/STM32L4xx_HAL_Driver/Src/stm32l4xx_hal_flash_ex.c ****       else
1084:../Drivers/STM32L4xx_HAL_Driver/Src/stm32l4xx_hal_flash_ex.c ****       {
1085:../Drivers/STM32L4xx_HAL_Driver/Src/stm32l4xx_hal_flash_ex.c ****         /* Nothing to do */
1086:../Drivers/STM32L4xx_HAL_Driver/Src/stm32l4xx_hal_flash_ex.c ****       }
1087:../Drivers/STM32L4xx_HAL_Driver/Src/stm32l4xx_hal_flash_ex.c ****     }
1088:../Drivers/STM32L4xx_HAL_Driver/Src/stm32l4xx_hal_flash_ex.c **** 
1089:../Drivers/STM32L4xx_HAL_Driver/Src/stm32l4xx_hal_flash_ex.c ****     MODIFY_REG(FLASH->PCROP1ER, FLASH_PCROP1ER_PCROP_RDP, (PCROPConfig & FLASH_PCROP1ER_PCROP_RDP))
1090:../Drivers/STM32L4xx_HAL_Driver/Src/stm32l4xx_hal_flash_ex.c **** 
1091:../Drivers/STM32L4xx_HAL_Driver/Src/stm32l4xx_hal_flash_ex.c ****     /* Set OPTSTRT Bit */
1092:../Drivers/STM32L4xx_HAL_Driver/Src/stm32l4xx_hal_flash_ex.c ****     SET_BIT(FLASH->CR, FLASH_CR_OPTSTRT);
1093:../Drivers/STM32L4xx_HAL_Driver/Src/stm32l4xx_hal_flash_ex.c **** 
1094:../Drivers/STM32L4xx_HAL_Driver/Src/stm32l4xx_hal_flash_ex.c ****     /* Wait for last operation to be completed */
1095:../Drivers/STM32L4xx_HAL_Driver/Src/stm32l4xx_hal_flash_ex.c ****     status = FLASH_WaitForLastOperation((uint32_t)FLASH_TIMEOUT_VALUE);
1096:../Drivers/STM32L4xx_HAL_Driver/Src/stm32l4xx_hal_flash_ex.c **** 
1097:../Drivers/STM32L4xx_HAL_Driver/Src/stm32l4xx_hal_flash_ex.c ****     /* If the option byte program operation is completed, disable the OPTSTRT Bit */
1098:../Drivers/STM32L4xx_HAL_Driver/Src/stm32l4xx_hal_flash_ex.c ****     CLEAR_BIT(FLASH->CR, FLASH_CR_OPTSTRT);
1099:../Drivers/STM32L4xx_HAL_Driver/Src/stm32l4xx_hal_flash_ex.c ****   }
1100:../Drivers/STM32L4xx_HAL_Driver/Src/stm32l4xx_hal_flash_ex.c **** 
1101:../Drivers/STM32L4xx_HAL_Driver/Src/stm32l4xx_hal_flash_ex.c ****   return status;
1102:../Drivers/STM32L4xx_HAL_Driver/Src/stm32l4xx_hal_flash_ex.c **** }
1103:../Drivers/STM32L4xx_HAL_Driver/Src/stm32l4xx_hal_flash_ex.c **** 
1104:../Drivers/STM32L4xx_HAL_Driver/Src/stm32l4xx_hal_flash_ex.c **** /**
1105:../Drivers/STM32L4xx_HAL_Driver/Src/stm32l4xx_hal_flash_ex.c ****   * @brief  Return the FLASH Write Protection Option Bytes value.
1106:../Drivers/STM32L4xx_HAL_Driver/Src/stm32l4xx_hal_flash_ex.c ****   *
1107:../Drivers/STM32L4xx_HAL_Driver/Src/stm32l4xx_hal_flash_ex.c ****   * @param[in]  WRPArea: specifies the area to be returned.
1108:../Drivers/STM32L4xx_HAL_Driver/Src/stm32l4xx_hal_flash_ex.c ****   *          This parameter can be one of the following values:
1109:../Drivers/STM32L4xx_HAL_Driver/Src/stm32l4xx_hal_flash_ex.c ****   *            @arg OB_WRPAREA_BANK1_AREAA: Flash Bank 1 Area A
1110:../Drivers/STM32L4xx_HAL_Driver/Src/stm32l4xx_hal_flash_ex.c ****   *            @arg OB_WRPAREA_BANK1_AREAB: Flash Bank 1 Area B
1111:../Drivers/STM32L4xx_HAL_Driver/Src/stm32l4xx_hal_flash_ex.c ****   *            @arg OB_WRPAREA_BANK2_AREAA: Flash Bank 2 Area A (don't apply to STM32L43x/STM32L44x
1112:../Drivers/STM32L4xx_HAL_Driver/Src/stm32l4xx_hal_flash_ex.c ****   *            @arg OB_WRPAREA_BANK2_AREAB: Flash Bank 2 Area B (don't apply to STM32L43x/STM32L44x
1113:../Drivers/STM32L4xx_HAL_Driver/Src/stm32l4xx_hal_flash_ex.c ****   *
1114:../Drivers/STM32L4xx_HAL_Driver/Src/stm32l4xx_hal_flash_ex.c ****   * @param[out]  WRPStartOffset: specifies the address where to copied the start page
1115:../Drivers/STM32L4xx_HAL_Driver/Src/stm32l4xx_hal_flash_ex.c ****   *                         of the write protected area
1116:../Drivers/STM32L4xx_HAL_Driver/Src/stm32l4xx_hal_flash_ex.c ****   *
1117:../Drivers/STM32L4xx_HAL_Driver/Src/stm32l4xx_hal_flash_ex.c ****   * @param[out]  WRDPEndOffset: specifies the address where to copied the end page of
1118:../Drivers/STM32L4xx_HAL_Driver/Src/stm32l4xx_hal_flash_ex.c ****   *                        the write protected area
1119:../Drivers/STM32L4xx_HAL_Driver/Src/stm32l4xx_hal_flash_ex.c ****   *
1120:../Drivers/STM32L4xx_HAL_Driver/Src/stm32l4xx_hal_flash_ex.c ****   * @retval None
1121:../Drivers/STM32L4xx_HAL_Driver/Src/stm32l4xx_hal_flash_ex.c ****   */
1122:../Drivers/STM32L4xx_HAL_Driver/Src/stm32l4xx_hal_flash_ex.c **** static void FLASH_OB_GetWRP(uint32_t WRPArea, uint32_t * WRPStartOffset, uint32_t * WRDPEndOffset)
1123:../Drivers/STM32L4xx_HAL_Driver/Src/stm32l4xx_hal_flash_ex.c **** {
  76              		.loc 1 1123 1 is_stmt 1 view -0
  77              		.cfi_startproc
ARM GAS  Build/stm32l4xx_hal_flash_ex.s 			page 22


  78              		@ args = 0, pretend = 0, frame = 0
  79              		@ frame_needed = 0, uses_anonymous_args = 0
  80              		@ link register save eliminated.
1124:../Drivers/STM32L4xx_HAL_Driver/Src/stm32l4xx_hal_flash_ex.c ****   /* Get the configuration of the write protected area */
1125:../Drivers/STM32L4xx_HAL_Driver/Src/stm32l4xx_hal_flash_ex.c ****   if(WRPArea == OB_WRPAREA_BANK1_AREAA)
  81              		.loc 1 1125 3 view .LVU11
  82 0000 0428     		cmp	r0, #4
  83 0002 27D8     		bhi	.L6
  84 0004 DFE800F0 		tbb	[pc, r0]
  85              	.L9:
  86 0008 03       		.byte	(.L12-.L9)/2
  87 0009 0C       		.byte	(.L11-.L9)/2
  88 000a 15       		.byte	(.L10-.L9)/2
  89 000b 26       		.byte	(.L6-.L9)/2
  90 000c 1E       		.byte	(.L8-.L9)/2
  91 000d 00       		.p2align 1
  92              	.L12:
1126:../Drivers/STM32L4xx_HAL_Driver/Src/stm32l4xx_hal_flash_ex.c ****   {
1127:../Drivers/STM32L4xx_HAL_Driver/Src/stm32l4xx_hal_flash_ex.c ****     *WRPStartOffset = READ_BIT(FLASH->WRP1AR, FLASH_WRP1AR_WRP1A_STRT);
  93              		.loc 1 1127 5 view .LVU12
  94              		.loc 1 1127 23 is_stmt 0 view .LVU13
  95 000e 1248     		ldr	r0, .L14
  96              	.LVL2:
  97              		.loc 1 1127 23 view .LVU14
  98 0010 C36A     		ldr	r3, [r0, #44]
  99 0012 DBB2     		uxtb	r3, r3
 100              		.loc 1 1127 21 view .LVU15
 101 0014 0B60     		str	r3, [r1]
1128:../Drivers/STM32L4xx_HAL_Driver/Src/stm32l4xx_hal_flash_ex.c ****     *WRDPEndOffset = (READ_BIT(FLASH->WRP1AR, FLASH_WRP1AR_WRP1A_END) >> 16);
 102              		.loc 1 1128 5 is_stmt 1 view .LVU16
 103              		.loc 1 1128 23 is_stmt 0 view .LVU17
 104 0016 C36A     		ldr	r3, [r0, #44]
 105              		.loc 1 1128 71 view .LVU18
 106 0018 C3F30743 		ubfx	r3, r3, #16, #8
 107              		.loc 1 1128 20 view .LVU19
 108 001c 1360     		str	r3, [r2]
 109 001e 7047     		bx	lr
 110              	.LVL3:
 111              	.L11:
1129:../Drivers/STM32L4xx_HAL_Driver/Src/stm32l4xx_hal_flash_ex.c ****   }
1130:../Drivers/STM32L4xx_HAL_Driver/Src/stm32l4xx_hal_flash_ex.c ****   else if(WRPArea == OB_WRPAREA_BANK1_AREAB)
1131:../Drivers/STM32L4xx_HAL_Driver/Src/stm32l4xx_hal_flash_ex.c ****   {
1132:../Drivers/STM32L4xx_HAL_Driver/Src/stm32l4xx_hal_flash_ex.c ****     *WRPStartOffset = READ_BIT(FLASH->WRP1BR, FLASH_WRP1BR_WRP1B_STRT);
 112              		.loc 1 1132 5 is_stmt 1 view .LVU20
 113              		.loc 1 1132 23 is_stmt 0 view .LVU21
 114 0020 0D48     		ldr	r0, .L14
 115              	.LVL4:
 116              		.loc 1 1132 23 view .LVU22
 117 0022 036B     		ldr	r3, [r0, #48]
 118 0024 DBB2     		uxtb	r3, r3
 119              		.loc 1 1132 21 view .LVU23
 120 0026 0B60     		str	r3, [r1]
1133:../Drivers/STM32L4xx_HAL_Driver/Src/stm32l4xx_hal_flash_ex.c ****     *WRDPEndOffset = (READ_BIT(FLASH->WRP1BR, FLASH_WRP1BR_WRP1B_END) >> 16);
 121              		.loc 1 1133 5 is_stmt 1 view .LVU24
 122              		.loc 1 1133 23 is_stmt 0 view .LVU25
 123 0028 036B     		ldr	r3, [r0, #48]
 124              		.loc 1 1133 71 view .LVU26
ARM GAS  Build/stm32l4xx_hal_flash_ex.s 			page 23


 125 002a C3F30743 		ubfx	r3, r3, #16, #8
 126              		.loc 1 1133 20 view .LVU27
 127 002e 1360     		str	r3, [r2]
 128 0030 7047     		bx	lr
 129              	.LVL5:
 130              	.L10:
1134:../Drivers/STM32L4xx_HAL_Driver/Src/stm32l4xx_hal_flash_ex.c ****   }
1135:../Drivers/STM32L4xx_HAL_Driver/Src/stm32l4xx_hal_flash_ex.c **** #if defined (STM32L471xx) || defined (STM32L475xx) || defined (STM32L476xx) || defined (STM32L485xx
1136:../Drivers/STM32L4xx_HAL_Driver/Src/stm32l4xx_hal_flash_ex.c ****     defined (STM32L496xx) || defined (STM32L4A6xx) || \
1137:../Drivers/STM32L4xx_HAL_Driver/Src/stm32l4xx_hal_flash_ex.c ****     defined (STM32L4P5xx) || defined (STM32L4Q5xx) || \
1138:../Drivers/STM32L4xx_HAL_Driver/Src/stm32l4xx_hal_flash_ex.c ****     defined (STM32L4R5xx) || defined (STM32L4R7xx) || defined (STM32L4R9xx) || defined (STM32L4S5xx
1139:../Drivers/STM32L4xx_HAL_Driver/Src/stm32l4xx_hal_flash_ex.c ****   else if(WRPArea == OB_WRPAREA_BANK2_AREAA)
1140:../Drivers/STM32L4xx_HAL_Driver/Src/stm32l4xx_hal_flash_ex.c ****   {
1141:../Drivers/STM32L4xx_HAL_Driver/Src/stm32l4xx_hal_flash_ex.c ****     *WRPStartOffset = READ_BIT(FLASH->WRP2AR, FLASH_WRP2AR_WRP2A_STRT);
 131              		.loc 1 1141 5 is_stmt 1 view .LVU28
 132              		.loc 1 1141 23 is_stmt 0 view .LVU29
 133 0032 0948     		ldr	r0, .L14
 134              	.LVL6:
 135              		.loc 1 1141 23 view .LVU30
 136 0034 C36C     		ldr	r3, [r0, #76]
 137 0036 DBB2     		uxtb	r3, r3
 138              		.loc 1 1141 21 view .LVU31
 139 0038 0B60     		str	r3, [r1]
1142:../Drivers/STM32L4xx_HAL_Driver/Src/stm32l4xx_hal_flash_ex.c ****     *WRDPEndOffset = (READ_BIT(FLASH->WRP2AR, FLASH_WRP2AR_WRP2A_END) >> 16);
 140              		.loc 1 1142 5 is_stmt 1 view .LVU32
 141              		.loc 1 1142 23 is_stmt 0 view .LVU33
 142 003a C36C     		ldr	r3, [r0, #76]
 143              		.loc 1 1142 71 view .LVU34
 144 003c C3F30743 		ubfx	r3, r3, #16, #8
 145              		.loc 1 1142 20 view .LVU35
 146 0040 1360     		str	r3, [r2]
 147 0042 7047     		bx	lr
 148              	.LVL7:
 149              	.L8:
1143:../Drivers/STM32L4xx_HAL_Driver/Src/stm32l4xx_hal_flash_ex.c ****   }
1144:../Drivers/STM32L4xx_HAL_Driver/Src/stm32l4xx_hal_flash_ex.c ****   else if(WRPArea == OB_WRPAREA_BANK2_AREAB)
1145:../Drivers/STM32L4xx_HAL_Driver/Src/stm32l4xx_hal_flash_ex.c ****   {
1146:../Drivers/STM32L4xx_HAL_Driver/Src/stm32l4xx_hal_flash_ex.c ****     *WRPStartOffset = READ_BIT(FLASH->WRP2BR, FLASH_WRP2BR_WRP2B_STRT);
 150              		.loc 1 1146 5 is_stmt 1 view .LVU36
 151              		.loc 1 1146 23 is_stmt 0 view .LVU37
 152 0044 0448     		ldr	r0, .L14
 153              	.LVL8:
 154              		.loc 1 1146 23 view .LVU38
 155 0046 036D     		ldr	r3, [r0, #80]
 156 0048 DBB2     		uxtb	r3, r3
 157              		.loc 1 1146 21 view .LVU39
 158 004a 0B60     		str	r3, [r1]
1147:../Drivers/STM32L4xx_HAL_Driver/Src/stm32l4xx_hal_flash_ex.c ****     *WRDPEndOffset = (READ_BIT(FLASH->WRP2BR, FLASH_WRP2BR_WRP2B_END) >> 16);
 159              		.loc 1 1147 5 is_stmt 1 view .LVU40
 160              		.loc 1 1147 23 is_stmt 0 view .LVU41
 161 004c 036D     		ldr	r3, [r0, #80]
 162              		.loc 1 1147 71 view .LVU42
 163 004e C3F30743 		ubfx	r3, r3, #16, #8
 164              		.loc 1 1147 20 view .LVU43
 165 0052 1360     		str	r3, [r2]
1148:../Drivers/STM32L4xx_HAL_Driver/Src/stm32l4xx_hal_flash_ex.c ****   }
1149:../Drivers/STM32L4xx_HAL_Driver/Src/stm32l4xx_hal_flash_ex.c **** #endif
ARM GAS  Build/stm32l4xx_hal_flash_ex.s 			page 24


1150:../Drivers/STM32L4xx_HAL_Driver/Src/stm32l4xx_hal_flash_ex.c ****   else
1151:../Drivers/STM32L4xx_HAL_Driver/Src/stm32l4xx_hal_flash_ex.c ****   {
1152:../Drivers/STM32L4xx_HAL_Driver/Src/stm32l4xx_hal_flash_ex.c ****     /* Nothing to do */
1153:../Drivers/STM32L4xx_HAL_Driver/Src/stm32l4xx_hal_flash_ex.c ****   }
 166              		.loc 1 1153 3 is_stmt 1 view .LVU44
 167              	.L6:
1154:../Drivers/STM32L4xx_HAL_Driver/Src/stm32l4xx_hal_flash_ex.c **** }
 168              		.loc 1 1154 1 is_stmt 0 view .LVU45
 169 0054 7047     		bx	lr
 170              	.L15:
 171 0056 00BF     		.align	2
 172              	.L14:
 173 0058 00200240 		.word	1073881088
 174              		.cfi_endproc
 175              	.LFE85:
 177              		.section	.text.FLASH_OB_GetRDP,"ax",%progbits
 178              		.align	1
 179              		.syntax unified
 180              		.thumb
 181              		.thumb_func
 183              	FLASH_OB_GetRDP:
 184              	.LFB86:
1155:../Drivers/STM32L4xx_HAL_Driver/Src/stm32l4xx_hal_flash_ex.c **** 
1156:../Drivers/STM32L4xx_HAL_Driver/Src/stm32l4xx_hal_flash_ex.c **** /**
1157:../Drivers/STM32L4xx_HAL_Driver/Src/stm32l4xx_hal_flash_ex.c ****   * @brief  Return the FLASH Read Protection level.
1158:../Drivers/STM32L4xx_HAL_Driver/Src/stm32l4xx_hal_flash_ex.c ****   * @retval FLASH ReadOut Protection Status:
1159:../Drivers/STM32L4xx_HAL_Driver/Src/stm32l4xx_hal_flash_ex.c ****   *         This return value can be one of the following values:
1160:../Drivers/STM32L4xx_HAL_Driver/Src/stm32l4xx_hal_flash_ex.c ****   *            @arg OB_RDP_LEVEL_0: No protection
1161:../Drivers/STM32L4xx_HAL_Driver/Src/stm32l4xx_hal_flash_ex.c ****   *            @arg OB_RDP_LEVEL_1: Read protection of the memory
1162:../Drivers/STM32L4xx_HAL_Driver/Src/stm32l4xx_hal_flash_ex.c ****   *            @arg OB_RDP_LEVEL_2: Full chip protection
1163:../Drivers/STM32L4xx_HAL_Driver/Src/stm32l4xx_hal_flash_ex.c ****   */
1164:../Drivers/STM32L4xx_HAL_Driver/Src/stm32l4xx_hal_flash_ex.c **** static uint32_t FLASH_OB_GetRDP(void)
1165:../Drivers/STM32L4xx_HAL_Driver/Src/stm32l4xx_hal_flash_ex.c **** {
 185              		.loc 1 1165 1 is_stmt 1 view -0
 186              		.cfi_startproc
 187              		@ args = 0, pretend = 0, frame = 0
 188              		@ frame_needed = 0, uses_anonymous_args = 0
 189              		@ link register save eliminated.
1166:../Drivers/STM32L4xx_HAL_Driver/Src/stm32l4xx_hal_flash_ex.c ****   uint32_t rdp_level = READ_BIT(FLASH->OPTR, FLASH_OPTR_RDP);
 190              		.loc 1 1166 3 view .LVU47
 191              		.loc 1 1166 24 is_stmt 0 view .LVU48
 192 0000 064B     		ldr	r3, .L20
 193 0002 1B6A     		ldr	r3, [r3, #32]
 194              		.loc 1 1166 12 view .LVU49
 195 0004 DBB2     		uxtb	r3, r3
 196              	.LVL9:
1167:../Drivers/STM32L4xx_HAL_Driver/Src/stm32l4xx_hal_flash_ex.c **** 
1168:../Drivers/STM32L4xx_HAL_Driver/Src/stm32l4xx_hal_flash_ex.c ****   if ((rdp_level != OB_RDP_LEVEL_0) && (rdp_level != OB_RDP_LEVEL_2))
 197              		.loc 1 1168 3 is_stmt 1 view .LVU50
 198              		.loc 1 1168 6 is_stmt 0 view .LVU51
 199 0006 AA2B     		cmp	r3, #170
 200 0008 03D0     		beq	.L17
 201              		.loc 1 1168 37 discriminator 1 view .LVU52
 202 000a CC2B     		cmp	r3, #204
 203 000c 01D0     		beq	.L17
1169:../Drivers/STM32L4xx_HAL_Driver/Src/stm32l4xx_hal_flash_ex.c ****   {
1170:../Drivers/STM32L4xx_HAL_Driver/Src/stm32l4xx_hal_flash_ex.c ****     return (OB_RDP_LEVEL_1);
ARM GAS  Build/stm32l4xx_hal_flash_ex.s 			page 25


 204              		.loc 1 1170 12 view .LVU53
 205 000e BB20     		movs	r0, #187
1171:../Drivers/STM32L4xx_HAL_Driver/Src/stm32l4xx_hal_flash_ex.c ****   }
1172:../Drivers/STM32L4xx_HAL_Driver/Src/stm32l4xx_hal_flash_ex.c ****   else
1173:../Drivers/STM32L4xx_HAL_Driver/Src/stm32l4xx_hal_flash_ex.c ****   {
1174:../Drivers/STM32L4xx_HAL_Driver/Src/stm32l4xx_hal_flash_ex.c ****     return (READ_BIT(FLASH->OPTR, FLASH_OPTR_RDP));
1175:../Drivers/STM32L4xx_HAL_Driver/Src/stm32l4xx_hal_flash_ex.c ****   }
1176:../Drivers/STM32L4xx_HAL_Driver/Src/stm32l4xx_hal_flash_ex.c **** }
 206              		.loc 1 1176 1 view .LVU54
 207 0010 7047     		bx	lr
 208              	.L17:
1174:../Drivers/STM32L4xx_HAL_Driver/Src/stm32l4xx_hal_flash_ex.c ****   }
 209              		.loc 1 1174 5 is_stmt 1 view .LVU55
1174:../Drivers/STM32L4xx_HAL_Driver/Src/stm32l4xx_hal_flash_ex.c ****   }
 210              		.loc 1 1174 13 is_stmt 0 view .LVU56
 211 0012 024B     		ldr	r3, .L20
 212              	.LVL10:
1174:../Drivers/STM32L4xx_HAL_Driver/Src/stm32l4xx_hal_flash_ex.c ****   }
 213              		.loc 1 1174 13 view .LVU57
 214 0014 186A     		ldr	r0, [r3, #32]
 215 0016 C0B2     		uxtb	r0, r0
 216 0018 7047     		bx	lr
 217              	.L21:
 218 001a 00BF     		.align	2
 219              	.L20:
 220 001c 00200240 		.word	1073881088
 221              		.cfi_endproc
 222              	.LFE86:
 224              		.section	.text.FLASH_OB_GetUser,"ax",%progbits
 225              		.align	1
 226              		.syntax unified
 227              		.thumb
 228              		.thumb_func
 230              	FLASH_OB_GetUser:
 231              	.LFB87:
1177:../Drivers/STM32L4xx_HAL_Driver/Src/stm32l4xx_hal_flash_ex.c **** 
1178:../Drivers/STM32L4xx_HAL_Driver/Src/stm32l4xx_hal_flash_ex.c **** /**
1179:../Drivers/STM32L4xx_HAL_Driver/Src/stm32l4xx_hal_flash_ex.c ****   * @brief  Return the FLASH User Option Byte value.
1180:../Drivers/STM32L4xx_HAL_Driver/Src/stm32l4xx_hal_flash_ex.c ****   * @retval The FLASH User Option Bytes values:
1181:../Drivers/STM32L4xx_HAL_Driver/Src/stm32l4xx_hal_flash_ex.c ****   *      For STM32L47x/STM32L48x devices :
1182:../Drivers/STM32L4xx_HAL_Driver/Src/stm32l4xx_hal_flash_ex.c ****   *         BOR_LEV(Bit8-10), nRST_STOP(Bit12), nRST_STDBY(Bit13), nRST_SHDW(Bit14),
1183:../Drivers/STM32L4xx_HAL_Driver/Src/stm32l4xx_hal_flash_ex.c ****   *         IWDG_SW(Bit16), IWDG_STOP(Bit17), IWDG_STDBY(Bit18), WWDG_SW(Bit19),
1184:../Drivers/STM32L4xx_HAL_Driver/Src/stm32l4xx_hal_flash_ex.c ****   *         BFB2(Bit20), DUALBANK(Bit21), nBOOT1(Bit23), SRAM2_PE(Bit24) and SRAM2_RST(Bit25).
1185:../Drivers/STM32L4xx_HAL_Driver/Src/stm32l4xx_hal_flash_ex.c ****   *      For STM32L43x/STM32L44x devices :
1186:../Drivers/STM32L4xx_HAL_Driver/Src/stm32l4xx_hal_flash_ex.c ****   *         BOR_LEV(Bit8-10), nRST_STOP(Bit12), nRST_STDBY(Bit13), nRST_SHDW(Bit14),
1187:../Drivers/STM32L4xx_HAL_Driver/Src/stm32l4xx_hal_flash_ex.c ****   *         IWDG_SW(Bit16), IWDG_STOP(Bit17), IWDG_STDBY(Bit18), WWDG_SW(Bit19),
1188:../Drivers/STM32L4xx_HAL_Driver/Src/stm32l4xx_hal_flash_ex.c ****   *         nBOOT1(Bit23), SRAM2_PE(Bit24), SRAM2_RST(Bit25), nSWBOOT0(Bit26) and nBOOT0(Bit27).
1189:../Drivers/STM32L4xx_HAL_Driver/Src/stm32l4xx_hal_flash_ex.c ****   */
1190:../Drivers/STM32L4xx_HAL_Driver/Src/stm32l4xx_hal_flash_ex.c **** static uint32_t FLASH_OB_GetUser(void)
1191:../Drivers/STM32L4xx_HAL_Driver/Src/stm32l4xx_hal_flash_ex.c **** {
 232              		.loc 1 1191 1 is_stmt 1 view -0
 233              		.cfi_startproc
 234              		@ args = 0, pretend = 0, frame = 0
 235              		@ frame_needed = 0, uses_anonymous_args = 0
 236              		@ link register save eliminated.
1192:../Drivers/STM32L4xx_HAL_Driver/Src/stm32l4xx_hal_flash_ex.c ****   uint32_t user_config = READ_REG(FLASH->OPTR);
 237              		.loc 1 1192 3 view .LVU59
ARM GAS  Build/stm32l4xx_hal_flash_ex.s 			page 26


 238              		.loc 1 1192 12 is_stmt 0 view .LVU60
 239 0000 024B     		ldr	r3, .L23
 240 0002 186A     		ldr	r0, [r3, #32]
 241              	.LVL11:
1193:../Drivers/STM32L4xx_HAL_Driver/Src/stm32l4xx_hal_flash_ex.c ****   CLEAR_BIT(user_config, FLASH_OPTR_RDP);
 242              		.loc 1 1193 3 is_stmt 1 view .LVU61
1194:../Drivers/STM32L4xx_HAL_Driver/Src/stm32l4xx_hal_flash_ex.c **** 
1195:../Drivers/STM32L4xx_HAL_Driver/Src/stm32l4xx_hal_flash_ex.c ****   return user_config;
 243              		.loc 1 1195 3 view .LVU62
1196:../Drivers/STM32L4xx_HAL_Driver/Src/stm32l4xx_hal_flash_ex.c **** }
 244              		.loc 1 1196 1 is_stmt 0 view .LVU63
 245 0004 20F0FF00 		bic	r0, r0, #255
 246              	.LVL12:
 247              		.loc 1 1196 1 view .LVU64
 248 0008 7047     		bx	lr
 249              	.L24:
 250 000a 00BF     		.align	2
 251              	.L23:
 252 000c 00200240 		.word	1073881088
 253              		.cfi_endproc
 254              	.LFE87:
 256              		.section	.text.FLASH_OB_GetPCROP,"ax",%progbits
 257              		.align	1
 258              		.syntax unified
 259              		.thumb
 260              		.thumb_func
 262              	FLASH_OB_GetPCROP:
 263              	.LVL13:
 264              	.LFB88:
1197:../Drivers/STM32L4xx_HAL_Driver/Src/stm32l4xx_hal_flash_ex.c **** 
1198:../Drivers/STM32L4xx_HAL_Driver/Src/stm32l4xx_hal_flash_ex.c **** /**
1199:../Drivers/STM32L4xx_HAL_Driver/Src/stm32l4xx_hal_flash_ex.c ****   * @brief  Return the FLASH Write Protection Option Bytes value.
1200:../Drivers/STM32L4xx_HAL_Driver/Src/stm32l4xx_hal_flash_ex.c ****   *
1201:../Drivers/STM32L4xx_HAL_Driver/Src/stm32l4xx_hal_flash_ex.c ****   * @param PCROPConfig [inout]: specifies the configuration (Bank to be configured and PCROP_RDP op
1202:../Drivers/STM32L4xx_HAL_Driver/Src/stm32l4xx_hal_flash_ex.c ****   *          This parameter must be a combination of FLASH_BANK_1 or FLASH_BANK_2
1203:../Drivers/STM32L4xx_HAL_Driver/Src/stm32l4xx_hal_flash_ex.c ****   *          with OB_PCROP_RDP_NOT_ERASE or OB_PCROP_RDP_ERASE
1204:../Drivers/STM32L4xx_HAL_Driver/Src/stm32l4xx_hal_flash_ex.c ****   *
1205:../Drivers/STM32L4xx_HAL_Driver/Src/stm32l4xx_hal_flash_ex.c ****   * @param PCROPStartAddr [out]: specifies the address where to copied the start address
1206:../Drivers/STM32L4xx_HAL_Driver/Src/stm32l4xx_hal_flash_ex.c ****   *                         of the Proprietary code readout protection
1207:../Drivers/STM32L4xx_HAL_Driver/Src/stm32l4xx_hal_flash_ex.c ****   *
1208:../Drivers/STM32L4xx_HAL_Driver/Src/stm32l4xx_hal_flash_ex.c ****   * @param PCROPEndAddr [out]: specifies the address where to copied the end address of
1209:../Drivers/STM32L4xx_HAL_Driver/Src/stm32l4xx_hal_flash_ex.c ****   *                       the Proprietary code readout protection
1210:../Drivers/STM32L4xx_HAL_Driver/Src/stm32l4xx_hal_flash_ex.c ****   *
1211:../Drivers/STM32L4xx_HAL_Driver/Src/stm32l4xx_hal_flash_ex.c ****   * @retval None
1212:../Drivers/STM32L4xx_HAL_Driver/Src/stm32l4xx_hal_flash_ex.c ****   */
1213:../Drivers/STM32L4xx_HAL_Driver/Src/stm32l4xx_hal_flash_ex.c **** static void FLASH_OB_GetPCROP(uint32_t * PCROPConfig, uint32_t * PCROPStartAddr, uint32_t * PCROPEn
1214:../Drivers/STM32L4xx_HAL_Driver/Src/stm32l4xx_hal_flash_ex.c **** {
 265              		.loc 1 1214 1 is_stmt 1 view -0
 266              		.cfi_startproc
 267              		@ args = 0, pretend = 0, frame = 0
 268              		@ frame_needed = 0, uses_anonymous_args = 0
 269              		@ link register save eliminated.
 270              		.loc 1 1214 1 is_stmt 0 view .LVU66
 271 0000 70B4     		push	{r4, r5, r6}
 272              	.LCFI0:
 273              		.cfi_def_cfa_offset 12
 274              		.cfi_offset 4, -12
ARM GAS  Build/stm32l4xx_hal_flash_ex.s 			page 27


 275              		.cfi_offset 5, -8
 276              		.cfi_offset 6, -4
1215:../Drivers/STM32L4xx_HAL_Driver/Src/stm32l4xx_hal_flash_ex.c ****   uint32_t reg_value;
 277              		.loc 1 1215 3 is_stmt 1 view .LVU67
1216:../Drivers/STM32L4xx_HAL_Driver/Src/stm32l4xx_hal_flash_ex.c ****   uint32_t bank1_addr;
 278              		.loc 1 1216 3 view .LVU68
1217:../Drivers/STM32L4xx_HAL_Driver/Src/stm32l4xx_hal_flash_ex.c **** #if defined (STM32L471xx) || defined (STM32L475xx) || defined (STM32L476xx) || defined (STM32L485xx
1218:../Drivers/STM32L4xx_HAL_Driver/Src/stm32l4xx_hal_flash_ex.c ****     defined (STM32L496xx) || defined (STM32L4A6xx) || \
1219:../Drivers/STM32L4xx_HAL_Driver/Src/stm32l4xx_hal_flash_ex.c ****     defined (STM32L4P5xx) || defined (STM32L4Q5xx) || \
1220:../Drivers/STM32L4xx_HAL_Driver/Src/stm32l4xx_hal_flash_ex.c ****     defined (STM32L4R5xx) || defined (STM32L4R7xx) || defined (STM32L4R9xx) || defined (STM32L4S5xx
1221:../Drivers/STM32L4xx_HAL_Driver/Src/stm32l4xx_hal_flash_ex.c ****   uint32_t bank2_addr;
 279              		.loc 1 1221 3 view .LVU69
1222:../Drivers/STM32L4xx_HAL_Driver/Src/stm32l4xx_hal_flash_ex.c **** #endif
1223:../Drivers/STM32L4xx_HAL_Driver/Src/stm32l4xx_hal_flash_ex.c **** 
1224:../Drivers/STM32L4xx_HAL_Driver/Src/stm32l4xx_hal_flash_ex.c **** #if defined (STM32L471xx) || defined (STM32L475xx) || defined (STM32L476xx) || defined (STM32L485xx
1225:../Drivers/STM32L4xx_HAL_Driver/Src/stm32l4xx_hal_flash_ex.c ****     defined (STM32L496xx) || defined (STM32L4A6xx) || \
1226:../Drivers/STM32L4xx_HAL_Driver/Src/stm32l4xx_hal_flash_ex.c ****     defined (STM32L4P5xx) || defined (STM32L4Q5xx) || \
1227:../Drivers/STM32L4xx_HAL_Driver/Src/stm32l4xx_hal_flash_ex.c ****     defined (STM32L4R5xx) || defined (STM32L4R7xx) || defined (STM32L4R9xx) || defined (STM32L4S5xx
1228:../Drivers/STM32L4xx_HAL_Driver/Src/stm32l4xx_hal_flash_ex.c ****   /* Get the information about the bank swapping */
1229:../Drivers/STM32L4xx_HAL_Driver/Src/stm32l4xx_hal_flash_ex.c ****   if (READ_BIT(SYSCFG->MEMRMP, SYSCFG_MEMRMP_FB_MODE) == 0U)
 280              		.loc 1 1229 3 view .LVU70
 281              		.loc 1 1229 7 is_stmt 0 view .LVU71
 282 0002 2C4B     		ldr	r3, .L35
 283 0004 1B68     		ldr	r3, [r3]
 284              		.loc 1 1229 6 view .LVU72
 285 0006 13F4807F 		tst	r3, #256
 286 000a 1ED1     		bne	.L26
1230:../Drivers/STM32L4xx_HAL_Driver/Src/stm32l4xx_hal_flash_ex.c ****   {
1231:../Drivers/STM32L4xx_HAL_Driver/Src/stm32l4xx_hal_flash_ex.c ****     bank1_addr = FLASH_BASE;
 287              		.loc 1 1231 5 is_stmt 1 view .LVU73
 288              	.LVL14:
1232:../Drivers/STM32L4xx_HAL_Driver/Src/stm32l4xx_hal_flash_ex.c ****     bank2_addr = FLASH_BASE + FLASH_BANK_SIZE;
 289              		.loc 1 1232 5 view .LVU74
 290              		.loc 1 1232 31 is_stmt 0 view .LVU75
 291 000c 2A4B     		ldr	r3, .L35+4
 292 000e D3F8E035 		ldr	r3, [r3, #1504]
 293 0012 9DB2     		uxth	r5, r3
 294              		.loc 1 1232 29 view .LVU76
 295 0014 4FF6FF74 		movw	r4, #65535
 296 0018 A542     		cmp	r5, r4
 297 001a 26D0     		beq	.L30
 298              		.loc 1 1232 31 discriminator 1 view .LVU77
 299 001c 274D     		ldr	r5, .L35+8
 300 001e 05EA4325 		and	r5, r5, r3, lsl #9
 301              		.loc 1 1232 29 discriminator 1 view .LVU78
 302 0022 05F10065 		add	r5, r5, #134217728
1231:../Drivers/STM32L4xx_HAL_Driver/Src/stm32l4xx_hal_flash_ex.c ****     bank2_addr = FLASH_BASE + FLASH_BANK_SIZE;
 303              		.loc 1 1231 16 discriminator 1 view .LVU79
 304 0026 4FF00064 		mov	r4, #134217728
 305              	.LVL15:
 306              	.L27:
1233:../Drivers/STM32L4xx_HAL_Driver/Src/stm32l4xx_hal_flash_ex.c ****   }
1234:../Drivers/STM32L4xx_HAL_Driver/Src/stm32l4xx_hal_flash_ex.c ****   else
1235:../Drivers/STM32L4xx_HAL_Driver/Src/stm32l4xx_hal_flash_ex.c ****   {
1236:../Drivers/STM32L4xx_HAL_Driver/Src/stm32l4xx_hal_flash_ex.c ****     bank1_addr = FLASH_BASE + FLASH_BANK_SIZE;
1237:../Drivers/STM32L4xx_HAL_Driver/Src/stm32l4xx_hal_flash_ex.c ****     bank2_addr = FLASH_BASE;
1238:../Drivers/STM32L4xx_HAL_Driver/Src/stm32l4xx_hal_flash_ex.c ****   }
ARM GAS  Build/stm32l4xx_hal_flash_ex.s 			page 28


1239:../Drivers/STM32L4xx_HAL_Driver/Src/stm32l4xx_hal_flash_ex.c **** #else
1240:../Drivers/STM32L4xx_HAL_Driver/Src/stm32l4xx_hal_flash_ex.c ****   bank1_addr = FLASH_BASE;
1241:../Drivers/STM32L4xx_HAL_Driver/Src/stm32l4xx_hal_flash_ex.c **** #endif
1242:../Drivers/STM32L4xx_HAL_Driver/Src/stm32l4xx_hal_flash_ex.c **** 
1243:../Drivers/STM32L4xx_HAL_Driver/Src/stm32l4xx_hal_flash_ex.c **** #if defined (STM32L4P5xx) || defined (STM32L4Q5xx) || defined (STM32L4R5xx) || defined (STM32L4R7xx
1244:../Drivers/STM32L4xx_HAL_Driver/Src/stm32l4xx_hal_flash_ex.c ****   if (READ_BIT(FLASH->OPTR, FLASH_OPTR_DBANK) == 0U)
1245:../Drivers/STM32L4xx_HAL_Driver/Src/stm32l4xx_hal_flash_ex.c ****   {
1246:../Drivers/STM32L4xx_HAL_Driver/Src/stm32l4xx_hal_flash_ex.c ****     if(((*PCROPConfig) & FLASH_BANK_BOTH) == FLASH_BANK_1)
1247:../Drivers/STM32L4xx_HAL_Driver/Src/stm32l4xx_hal_flash_ex.c ****     {
1248:../Drivers/STM32L4xx_HAL_Driver/Src/stm32l4xx_hal_flash_ex.c ****       reg_value       = (READ_REG(FLASH->PCROP1SR) & FLASH_PCROP1SR_PCROP1_STRT);
1249:../Drivers/STM32L4xx_HAL_Driver/Src/stm32l4xx_hal_flash_ex.c ****       *PCROPStartAddr = (reg_value << 4) + FLASH_BASE;
1250:../Drivers/STM32L4xx_HAL_Driver/Src/stm32l4xx_hal_flash_ex.c **** 
1251:../Drivers/STM32L4xx_HAL_Driver/Src/stm32l4xx_hal_flash_ex.c ****       reg_value     = (READ_REG(FLASH->PCROP1ER) & FLASH_PCROP1ER_PCROP1_END);
1252:../Drivers/STM32L4xx_HAL_Driver/Src/stm32l4xx_hal_flash_ex.c ****       *PCROPEndAddr = (reg_value << 4) + FLASH_BASE + 0xFU;
1253:../Drivers/STM32L4xx_HAL_Driver/Src/stm32l4xx_hal_flash_ex.c ****     }
1254:../Drivers/STM32L4xx_HAL_Driver/Src/stm32l4xx_hal_flash_ex.c ****     else if(((*PCROPConfig) & FLASH_BANK_BOTH) == FLASH_BANK_2)
1255:../Drivers/STM32L4xx_HAL_Driver/Src/stm32l4xx_hal_flash_ex.c ****     {
1256:../Drivers/STM32L4xx_HAL_Driver/Src/stm32l4xx_hal_flash_ex.c ****       reg_value       = (READ_REG(FLASH->PCROP2SR) & FLASH_PCROP2SR_PCROP2_STRT);
1257:../Drivers/STM32L4xx_HAL_Driver/Src/stm32l4xx_hal_flash_ex.c ****       *PCROPStartAddr = (reg_value << 4) + FLASH_BASE;
1258:../Drivers/STM32L4xx_HAL_Driver/Src/stm32l4xx_hal_flash_ex.c **** 
1259:../Drivers/STM32L4xx_HAL_Driver/Src/stm32l4xx_hal_flash_ex.c ****       reg_value     = (READ_REG(FLASH->PCROP2ER) & FLASH_PCROP2ER_PCROP2_END);
1260:../Drivers/STM32L4xx_HAL_Driver/Src/stm32l4xx_hal_flash_ex.c ****       *PCROPEndAddr = (reg_value << 4) + FLASH_BASE + 0xFU;;
1261:../Drivers/STM32L4xx_HAL_Driver/Src/stm32l4xx_hal_flash_ex.c ****     }
1262:../Drivers/STM32L4xx_HAL_Driver/Src/stm32l4xx_hal_flash_ex.c ****     else
1263:../Drivers/STM32L4xx_HAL_Driver/Src/stm32l4xx_hal_flash_ex.c ****     {
1264:../Drivers/STM32L4xx_HAL_Driver/Src/stm32l4xx_hal_flash_ex.c ****       /* Nothing to do */
1265:../Drivers/STM32L4xx_HAL_Driver/Src/stm32l4xx_hal_flash_ex.c ****     }
1266:../Drivers/STM32L4xx_HAL_Driver/Src/stm32l4xx_hal_flash_ex.c ****   }
1267:../Drivers/STM32L4xx_HAL_Driver/Src/stm32l4xx_hal_flash_ex.c ****   else
1268:../Drivers/STM32L4xx_HAL_Driver/Src/stm32l4xx_hal_flash_ex.c **** #endif
1269:../Drivers/STM32L4xx_HAL_Driver/Src/stm32l4xx_hal_flash_ex.c ****   {
1270:../Drivers/STM32L4xx_HAL_Driver/Src/stm32l4xx_hal_flash_ex.c ****     if(((*PCROPConfig) & FLASH_BANK_BOTH) == FLASH_BANK_1)
 307              		.loc 1 1270 5 is_stmt 1 view .LVU80
 308              		.loc 1 1270 10 is_stmt 0 view .LVU81
 309 002a 0368     		ldr	r3, [r0]
 310              		.loc 1 1270 24 view .LVU82
 311 002c 03F00303 		and	r3, r3, #3
 312              		.loc 1 1270 7 view .LVU83
 313 0030 012B     		cmp	r3, #1
 314 0032 22D0     		beq	.L33
1271:../Drivers/STM32L4xx_HAL_Driver/Src/stm32l4xx_hal_flash_ex.c ****     {
1272:../Drivers/STM32L4xx_HAL_Driver/Src/stm32l4xx_hal_flash_ex.c ****       reg_value       = (READ_REG(FLASH->PCROP1SR) & FLASH_PCROP1SR_PCROP1_STRT);
1273:../Drivers/STM32L4xx_HAL_Driver/Src/stm32l4xx_hal_flash_ex.c ****       *PCROPStartAddr = (reg_value << 3) + bank1_addr;
1274:../Drivers/STM32L4xx_HAL_Driver/Src/stm32l4xx_hal_flash_ex.c **** 
1275:../Drivers/STM32L4xx_HAL_Driver/Src/stm32l4xx_hal_flash_ex.c ****       reg_value     = (READ_REG(FLASH->PCROP1ER) & FLASH_PCROP1ER_PCROP1_END);
1276:../Drivers/STM32L4xx_HAL_Driver/Src/stm32l4xx_hal_flash_ex.c ****       *PCROPEndAddr = (reg_value << 3) + bank1_addr + 0x7U;
1277:../Drivers/STM32L4xx_HAL_Driver/Src/stm32l4xx_hal_flash_ex.c ****     }
1278:../Drivers/STM32L4xx_HAL_Driver/Src/stm32l4xx_hal_flash_ex.c **** #if defined (STM32L471xx) || defined (STM32L475xx) || defined (STM32L476xx) || defined (STM32L485xx
1279:../Drivers/STM32L4xx_HAL_Driver/Src/stm32l4xx_hal_flash_ex.c ****     defined (STM32L496xx) || defined (STM32L4A6xx) || \
1280:../Drivers/STM32L4xx_HAL_Driver/Src/stm32l4xx_hal_flash_ex.c ****     defined (STM32L4P5xx) || defined (STM32L4Q5xx) || \
1281:../Drivers/STM32L4xx_HAL_Driver/Src/stm32l4xx_hal_flash_ex.c ****     defined (STM32L4R5xx) || defined (STM32L4R7xx) || defined (STM32L4R9xx) || defined (STM32L4S5xx
1282:../Drivers/STM32L4xx_HAL_Driver/Src/stm32l4xx_hal_flash_ex.c ****     else if(((*PCROPConfig) & FLASH_BANK_BOTH) == FLASH_BANK_2)
 315              		.loc 1 1282 10 is_stmt 1 view .LVU84
 316              		.loc 1 1282 12 is_stmt 0 view .LVU85
 317 0034 022B     		cmp	r3, #2
 318 0036 2ED0     		beq	.L34
 319              	.LVL16:
ARM GAS  Build/stm32l4xx_hal_flash_ex.s 			page 29


 320              	.L29:
1283:../Drivers/STM32L4xx_HAL_Driver/Src/stm32l4xx_hal_flash_ex.c ****     {
1284:../Drivers/STM32L4xx_HAL_Driver/Src/stm32l4xx_hal_flash_ex.c ****       reg_value       = (READ_REG(FLASH->PCROP2SR) & FLASH_PCROP2SR_PCROP2_STRT);
1285:../Drivers/STM32L4xx_HAL_Driver/Src/stm32l4xx_hal_flash_ex.c ****       *PCROPStartAddr = (reg_value << 3) + bank2_addr;
1286:../Drivers/STM32L4xx_HAL_Driver/Src/stm32l4xx_hal_flash_ex.c **** 
1287:../Drivers/STM32L4xx_HAL_Driver/Src/stm32l4xx_hal_flash_ex.c ****       reg_value     = (READ_REG(FLASH->PCROP2ER) & FLASH_PCROP2ER_PCROP2_END);
1288:../Drivers/STM32L4xx_HAL_Driver/Src/stm32l4xx_hal_flash_ex.c ****       *PCROPEndAddr = (reg_value << 3) + bank2_addr + 0x7U;
1289:../Drivers/STM32L4xx_HAL_Driver/Src/stm32l4xx_hal_flash_ex.c ****     }
1290:../Drivers/STM32L4xx_HAL_Driver/Src/stm32l4xx_hal_flash_ex.c **** #endif
1291:../Drivers/STM32L4xx_HAL_Driver/Src/stm32l4xx_hal_flash_ex.c ****     else
1292:../Drivers/STM32L4xx_HAL_Driver/Src/stm32l4xx_hal_flash_ex.c ****     {
1293:../Drivers/STM32L4xx_HAL_Driver/Src/stm32l4xx_hal_flash_ex.c ****       /* Nothing to do */
1294:../Drivers/STM32L4xx_HAL_Driver/Src/stm32l4xx_hal_flash_ex.c ****     }
 321              		.loc 1 1294 5 is_stmt 1 view .LVU86
1295:../Drivers/STM32L4xx_HAL_Driver/Src/stm32l4xx_hal_flash_ex.c ****   }
1296:../Drivers/STM32L4xx_HAL_Driver/Src/stm32l4xx_hal_flash_ex.c **** 
1297:../Drivers/STM32L4xx_HAL_Driver/Src/stm32l4xx_hal_flash_ex.c ****   *PCROPConfig |= (READ_REG(FLASH->PCROP1ER) & FLASH_PCROP1ER_PCROP_RDP);
 322              		.loc 1 1297 3 view .LVU87
 323              		.loc 1 1297 20 is_stmt 0 view .LVU88
 324 0038 214B     		ldr	r3, .L35+12
 325 003a 9A6A     		ldr	r2, [r3, #40]
 326              	.LVL17:
 327              		.loc 1 1297 46 view .LVU89
 328 003c 02F00042 		and	r2, r2, #-2147483648
 329              		.loc 1 1297 3 view .LVU90
 330 0040 0368     		ldr	r3, [r0]
 331              		.loc 1 1297 16 view .LVU91
 332 0042 1343     		orrs	r3, r3, r2
 333 0044 0360     		str	r3, [r0]
1298:../Drivers/STM32L4xx_HAL_Driver/Src/stm32l4xx_hal_flash_ex.c **** }
 334              		.loc 1 1298 1 view .LVU92
 335 0046 70BC     		pop	{r4, r5, r6}
 336              	.LCFI1:
 337              		.cfi_remember_state
 338              		.cfi_restore 6
 339              		.cfi_restore 5
 340              		.cfi_restore 4
 341              		.cfi_def_cfa_offset 0
 342 0048 7047     		bx	lr
 343              	.LVL18:
 344              	.L26:
 345              	.LCFI2:
 346              		.cfi_restore_state
1236:../Drivers/STM32L4xx_HAL_Driver/Src/stm32l4xx_hal_flash_ex.c ****     bank2_addr = FLASH_BASE;
 347              		.loc 1 1236 5 is_stmt 1 view .LVU93
1236:../Drivers/STM32L4xx_HAL_Driver/Src/stm32l4xx_hal_flash_ex.c ****     bank2_addr = FLASH_BASE;
 348              		.loc 1 1236 31 is_stmt 0 view .LVU94
 349 004a 1B4B     		ldr	r3, .L35+4
 350 004c D3F8E035 		ldr	r3, [r3, #1504]
 351 0050 9DB2     		uxth	r5, r3
1236:../Drivers/STM32L4xx_HAL_Driver/Src/stm32l4xx_hal_flash_ex.c ****     bank2_addr = FLASH_BASE;
 352              		.loc 1 1236 29 view .LVU95
 353 0052 4FF6FF74 		movw	r4, #65535
 354 0056 A542     		cmp	r5, r4
 355 0058 0BD0     		beq	.L31
1236:../Drivers/STM32L4xx_HAL_Driver/Src/stm32l4xx_hal_flash_ex.c ****     bank2_addr = FLASH_BASE;
 356              		.loc 1 1236 31 discriminator 1 view .LVU96
ARM GAS  Build/stm32l4xx_hal_flash_ex.s 			page 30


 357 005a 184C     		ldr	r4, .L35+8
 358 005c 04EA4324 		and	r4, r4, r3, lsl #9
1236:../Drivers/STM32L4xx_HAL_Driver/Src/stm32l4xx_hal_flash_ex.c ****     bank2_addr = FLASH_BASE;
 359              		.loc 1 1236 29 discriminator 1 view .LVU97
 360 0060 04F10064 		add	r4, r4, #134217728
1237:../Drivers/STM32L4xx_HAL_Driver/Src/stm32l4xx_hal_flash_ex.c ****   }
 361              		.loc 1 1237 16 discriminator 1 view .LVU98
 362 0064 4FF00065 		mov	r5, #134217728
 363 0068 DFE7     		b	.L27
 364              	.LVL19:
 365              	.L30:
1232:../Drivers/STM32L4xx_HAL_Driver/Src/stm32l4xx_hal_flash_ex.c ****   }
 366              		.loc 1 1232 29 view .LVU99
 367 006a 164D     		ldr	r5, .L35+16
1231:../Drivers/STM32L4xx_HAL_Driver/Src/stm32l4xx_hal_flash_ex.c ****     bank2_addr = FLASH_BASE + FLASH_BANK_SIZE;
 368              		.loc 1 1231 16 view .LVU100
 369 006c 4FF00064 		mov	r4, #134217728
 370 0070 DBE7     		b	.L27
 371              	.LVL20:
 372              	.L31:
1237:../Drivers/STM32L4xx_HAL_Driver/Src/stm32l4xx_hal_flash_ex.c ****   }
 373              		.loc 1 1237 16 view .LVU101
 374 0072 4FF00065 		mov	r5, #134217728
1236:../Drivers/STM32L4xx_HAL_Driver/Src/stm32l4xx_hal_flash_ex.c ****     bank2_addr = FLASH_BASE;
 375              		.loc 1 1236 29 view .LVU102
 376 0076 134C     		ldr	r4, .L35+16
 377 0078 D7E7     		b	.L27
 378              	.LVL21:
 379              	.L33:
1272:../Drivers/STM32L4xx_HAL_Driver/Src/stm32l4xx_hal_flash_ex.c ****       *PCROPStartAddr = (reg_value << 3) + bank1_addr;
 380              		.loc 1 1272 7 is_stmt 1 view .LVU103
1272:../Drivers/STM32L4xx_HAL_Driver/Src/stm32l4xx_hal_flash_ex.c ****       *PCROPStartAddr = (reg_value << 3) + bank1_addr;
 381              		.loc 1 1272 26 is_stmt 0 view .LVU104
 382 007a 114E     		ldr	r6, .L35+12
 383 007c 756A     		ldr	r5, [r6, #36]
 384              	.LVL22:
1273:../Drivers/STM32L4xx_HAL_Driver/Src/stm32l4xx_hal_flash_ex.c **** 
 385              		.loc 1 1273 7 is_stmt 1 view .LVU105
1273:../Drivers/STM32L4xx_HAL_Driver/Src/stm32l4xx_hal_flash_ex.c **** 
 386              		.loc 1 1273 36 is_stmt 0 view .LVU106
 387 007e 124B     		ldr	r3, .L35+20
 388 0080 03EAC505 		and	r5, r3, r5, lsl #3
 389              	.LVL23:
1273:../Drivers/STM32L4xx_HAL_Driver/Src/stm32l4xx_hal_flash_ex.c **** 
 390              		.loc 1 1273 42 view .LVU107
 391 0084 2544     		add	r5, r5, r4
1273:../Drivers/STM32L4xx_HAL_Driver/Src/stm32l4xx_hal_flash_ex.c **** 
 392              		.loc 1 1273 23 view .LVU108
 393 0086 0D60     		str	r5, [r1]
1275:../Drivers/STM32L4xx_HAL_Driver/Src/stm32l4xx_hal_flash_ex.c ****       *PCROPEndAddr = (reg_value << 3) + bank1_addr + 0x7U;
 394              		.loc 1 1275 7 is_stmt 1 view .LVU109
1275:../Drivers/STM32L4xx_HAL_Driver/Src/stm32l4xx_hal_flash_ex.c ****       *PCROPEndAddr = (reg_value << 3) + bank1_addr + 0x7U;
 395              		.loc 1 1275 24 is_stmt 0 view .LVU110
 396 0088 B16A     		ldr	r1, [r6, #40]
 397              	.LVL24:
1276:../Drivers/STM32L4xx_HAL_Driver/Src/stm32l4xx_hal_flash_ex.c ****     }
 398              		.loc 1 1276 7 is_stmt 1 view .LVU111
ARM GAS  Build/stm32l4xx_hal_flash_ex.s 			page 31


1276:../Drivers/STM32L4xx_HAL_Driver/Src/stm32l4xx_hal_flash_ex.c ****     }
 399              		.loc 1 1276 34 is_stmt 0 view .LVU112
 400 008a 03EAC103 		and	r3, r3, r1, lsl #3
1276:../Drivers/STM32L4xx_HAL_Driver/Src/stm32l4xx_hal_flash_ex.c ****     }
 401              		.loc 1 1276 40 view .LVU113
 402 008e 2344     		add	r3, r3, r4
1276:../Drivers/STM32L4xx_HAL_Driver/Src/stm32l4xx_hal_flash_ex.c ****     }
 403              		.loc 1 1276 53 view .LVU114
 404 0090 0733     		adds	r3, r3, #7
1276:../Drivers/STM32L4xx_HAL_Driver/Src/stm32l4xx_hal_flash_ex.c ****     }
 405              		.loc 1 1276 21 view .LVU115
 406 0092 1360     		str	r3, [r2]
 407 0094 D0E7     		b	.L29
 408              	.LVL25:
 409              	.L34:
1284:../Drivers/STM32L4xx_HAL_Driver/Src/stm32l4xx_hal_flash_ex.c ****       *PCROPStartAddr = (reg_value << 3) + bank2_addr;
 410              		.loc 1 1284 7 is_stmt 1 view .LVU116
1284:../Drivers/STM32L4xx_HAL_Driver/Src/stm32l4xx_hal_flash_ex.c ****       *PCROPStartAddr = (reg_value << 3) + bank2_addr;
 411              		.loc 1 1284 26 is_stmt 0 view .LVU117
 412 0096 0A4E     		ldr	r6, .L35+12
 413 0098 746C     		ldr	r4, [r6, #68]
 414              	.LVL26:
1285:../Drivers/STM32L4xx_HAL_Driver/Src/stm32l4xx_hal_flash_ex.c **** 
 415              		.loc 1 1285 7 is_stmt 1 view .LVU118
1285:../Drivers/STM32L4xx_HAL_Driver/Src/stm32l4xx_hal_flash_ex.c **** 
 416              		.loc 1 1285 36 is_stmt 0 view .LVU119
 417 009a 0B4B     		ldr	r3, .L35+20
 418 009c 03EAC404 		and	r4, r3, r4, lsl #3
 419              	.LVL27:
1285:../Drivers/STM32L4xx_HAL_Driver/Src/stm32l4xx_hal_flash_ex.c **** 
 420              		.loc 1 1285 42 view .LVU120
 421 00a0 2C44     		add	r4, r4, r5
1285:../Drivers/STM32L4xx_HAL_Driver/Src/stm32l4xx_hal_flash_ex.c **** 
 422              		.loc 1 1285 23 view .LVU121
 423 00a2 0C60     		str	r4, [r1]
1287:../Drivers/STM32L4xx_HAL_Driver/Src/stm32l4xx_hal_flash_ex.c ****       *PCROPEndAddr = (reg_value << 3) + bank2_addr + 0x7U;
 424              		.loc 1 1287 7 is_stmt 1 view .LVU122
1287:../Drivers/STM32L4xx_HAL_Driver/Src/stm32l4xx_hal_flash_ex.c ****       *PCROPEndAddr = (reg_value << 3) + bank2_addr + 0x7U;
 425              		.loc 1 1287 24 is_stmt 0 view .LVU123
 426 00a4 B16C     		ldr	r1, [r6, #72]
 427              	.LVL28:
1288:../Drivers/STM32L4xx_HAL_Driver/Src/stm32l4xx_hal_flash_ex.c ****     }
 428              		.loc 1 1288 7 is_stmt 1 view .LVU124
1288:../Drivers/STM32L4xx_HAL_Driver/Src/stm32l4xx_hal_flash_ex.c ****     }
 429              		.loc 1 1288 34 is_stmt 0 view .LVU125
 430 00a6 03EAC103 		and	r3, r3, r1, lsl #3
1288:../Drivers/STM32L4xx_HAL_Driver/Src/stm32l4xx_hal_flash_ex.c ****     }
 431              		.loc 1 1288 40 view .LVU126
 432 00aa 2B44     		add	r3, r3, r5
1288:../Drivers/STM32L4xx_HAL_Driver/Src/stm32l4xx_hal_flash_ex.c ****     }
 433              		.loc 1 1288 53 view .LVU127
 434 00ac 0733     		adds	r3, r3, #7
1288:../Drivers/STM32L4xx_HAL_Driver/Src/stm32l4xx_hal_flash_ex.c ****     }
 435              		.loc 1 1288 21 view .LVU128
 436 00ae 1360     		str	r3, [r2]
 437 00b0 C2E7     		b	.L29
 438              	.L36:
ARM GAS  Build/stm32l4xx_hal_flash_ex.s 			page 32


 439 00b2 00BF     		.align	2
 440              	.L35:
 441 00b4 00000140 		.word	1073807360
 442 00b8 0070FF1F 		.word	536834048
 443 00bc 00FEFF01 		.word	33553920
 444 00c0 00200240 		.word	1073881088
 445 00c4 00000808 		.word	134742016
 446 00c8 F8FF0700 		.word	524280
 447              		.cfi_endproc
 448              	.LFE88:
 450              		.section	.text.FLASH_OB_WRPConfig,"ax",%progbits
 451              		.align	1
 452              		.syntax unified
 453              		.thumb
 454              		.thumb_func
 456              	FLASH_OB_WRPConfig:
 457              	.LVL29:
 458              	.LFB81:
 652:../Drivers/STM32L4xx_HAL_Driver/Src/stm32l4xx_hal_flash_ex.c ****   HAL_StatusTypeDef status;
 459              		.loc 1 652 1 is_stmt 1 view -0
 460              		.cfi_startproc
 461              		@ args = 0, pretend = 0, frame = 0
 462              		@ frame_needed = 0, uses_anonymous_args = 0
 652:../Drivers/STM32L4xx_HAL_Driver/Src/stm32l4xx_hal_flash_ex.c ****   HAL_StatusTypeDef status;
 463              		.loc 1 652 1 is_stmt 0 view .LVU130
 464 0000 70B5     		push	{r4, r5, r6, lr}
 465              	.LCFI3:
 466              		.cfi_def_cfa_offset 16
 467              		.cfi_offset 4, -16
 468              		.cfi_offset 5, -12
 469              		.cfi_offset 6, -8
 470              		.cfi_offset 14, -4
 471 0002 0446     		mov	r4, r0
 472 0004 0E46     		mov	r6, r1
 473 0006 1546     		mov	r5, r2
 653:../Drivers/STM32L4xx_HAL_Driver/Src/stm32l4xx_hal_flash_ex.c **** 
 474              		.loc 1 653 3 is_stmt 1 view .LVU131
 656:../Drivers/STM32L4xx_HAL_Driver/Src/stm32l4xx_hal_flash_ex.c ****   assert_param(IS_FLASH_PAGE(WRPStartOffset));
 475              		.loc 1 656 3 view .LVU132
 657:../Drivers/STM32L4xx_HAL_Driver/Src/stm32l4xx_hal_flash_ex.c ****   assert_param(IS_FLASH_PAGE(WRDPEndOffset));
 476              		.loc 1 657 3 view .LVU133
 658:../Drivers/STM32L4xx_HAL_Driver/Src/stm32l4xx_hal_flash_ex.c **** 
 477              		.loc 1 658 3 view .LVU134
 661:../Drivers/STM32L4xx_HAL_Driver/Src/stm32l4xx_hal_flash_ex.c **** 
 478              		.loc 1 661 3 view .LVU135
 661:../Drivers/STM32L4xx_HAL_Driver/Src/stm32l4xx_hal_flash_ex.c **** 
 479              		.loc 1 661 12 is_stmt 0 view .LVU136
 480 0008 4CF25030 		movw	r0, #50000
 481              	.LVL30:
 661:../Drivers/STM32L4xx_HAL_Driver/Src/stm32l4xx_hal_flash_ex.c **** 
 482              		.loc 1 661 12 view .LVU137
 483 000c FFF7FEFF 		bl	FLASH_WaitForLastOperation
 484              	.LVL31:
 663:../Drivers/STM32L4xx_HAL_Driver/Src/stm32l4xx_hal_flash_ex.c ****   {
 485              		.loc 1 663 3 is_stmt 1 view .LVU138
 663:../Drivers/STM32L4xx_HAL_Driver/Src/stm32l4xx_hal_flash_ex.c ****   {
 486              		.loc 1 663 5 is_stmt 0 view .LVU139
ARM GAS  Build/stm32l4xx_hal_flash_ex.s 			page 33


 487 0010 D8B9     		cbnz	r0, .L38
 666:../Drivers/STM32L4xx_HAL_Driver/Src/stm32l4xx_hal_flash_ex.c ****     {
 488              		.loc 1 666 5 is_stmt 1 view .LVU140
 489 0012 042C     		cmp	r4, #4
 490 0014 0CD8     		bhi	.L39
 491 0016 DFE804F0 		tbb	[pc, r4]
 492              	.L41:
 493 001a 03       		.byte	(.L44-.L41)/2
 494 001b 19       		.byte	(.L43-.L41)/2
 495 001c 22       		.byte	(.L42-.L41)/2
 496 001d 0B       		.byte	(.L39-.L41)/2
 497 001e 2B       		.byte	(.L40-.L41)/2
 498 001f 00       		.p2align 1
 499              	.L44:
 668:../Drivers/STM32L4xx_HAL_Driver/Src/stm32l4xx_hal_flash_ex.c ****                  (WRPStartOffset | (WRDPEndOffset << 16)));
 500              		.loc 1 668 7 view .LVU141
 501 0020 1849     		ldr	r1, .L47
 502 0022 CB6A     		ldr	r3, [r1, #44]
 503 0024 03F0FF23 		and	r3, r3, #-16711936
 504 0028 46EA0542 		orr	r2, r6, r5, lsl #16
 505 002c 1343     		orrs	r3, r3, r2
 506 002e CB62     		str	r3, [r1, #44]
 507              	.L39:
 694:../Drivers/STM32L4xx_HAL_Driver/Src/stm32l4xx_hal_flash_ex.c **** 
 508              		.loc 1 694 5 view .LVU142
 697:../Drivers/STM32L4xx_HAL_Driver/Src/stm32l4xx_hal_flash_ex.c **** 
 509              		.loc 1 697 5 view .LVU143
 510 0030 144C     		ldr	r4, .L47
 511              	.LVL32:
 697:../Drivers/STM32L4xx_HAL_Driver/Src/stm32l4xx_hal_flash_ex.c **** 
 512              		.loc 1 697 5 is_stmt 0 view .LVU144
 513 0032 6369     		ldr	r3, [r4, #20]
 514 0034 43F40033 		orr	r3, r3, #131072
 515 0038 6361     		str	r3, [r4, #20]
 700:../Drivers/STM32L4xx_HAL_Driver/Src/stm32l4xx_hal_flash_ex.c **** 
 516              		.loc 1 700 5 is_stmt 1 view .LVU145
 700:../Drivers/STM32L4xx_HAL_Driver/Src/stm32l4xx_hal_flash_ex.c **** 
 517              		.loc 1 700 14 is_stmt 0 view .LVU146
 518 003a 4CF25030 		movw	r0, #50000
 519 003e FFF7FEFF 		bl	FLASH_WaitForLastOperation
 520              	.LVL33:
 703:../Drivers/STM32L4xx_HAL_Driver/Src/stm32l4xx_hal_flash_ex.c ****   }
 521              		.loc 1 703 5 is_stmt 1 view .LVU147
 522 0042 6369     		ldr	r3, [r4, #20]
 523 0044 23F40033 		bic	r3, r3, #131072
 524 0048 6361     		str	r3, [r4, #20]
 525              	.LVL34:
 526              	.L38:
 706:../Drivers/STM32L4xx_HAL_Driver/Src/stm32l4xx_hal_flash_ex.c **** }
 527              		.loc 1 706 3 view .LVU148
 707:../Drivers/STM32L4xx_HAL_Driver/Src/stm32l4xx_hal_flash_ex.c **** 
 528              		.loc 1 707 1 is_stmt 0 view .LVU149
 529 004a 70BD     		pop	{r4, r5, r6, pc}
 530              	.LVL35:
 531              	.L43:
 673:../Drivers/STM32L4xx_HAL_Driver/Src/stm32l4xx_hal_flash_ex.c ****                  (WRPStartOffset | (WRDPEndOffset << 16)));
 532              		.loc 1 673 7 is_stmt 1 view .LVU150
ARM GAS  Build/stm32l4xx_hal_flash_ex.s 			page 34


 533 004c 0D49     		ldr	r1, .L47
 534 004e 0B6B     		ldr	r3, [r1, #48]
 535 0050 03F0FF23 		and	r3, r3, #-16711936
 536 0054 46EA0542 		orr	r2, r6, r5, lsl #16
 537 0058 1343     		orrs	r3, r3, r2
 538 005a 0B63     		str	r3, [r1, #48]
 539 005c E8E7     		b	.L39
 540              	.L42:
 682:../Drivers/STM32L4xx_HAL_Driver/Src/stm32l4xx_hal_flash_ex.c ****                  (WRPStartOffset | (WRDPEndOffset << 16)));
 541              		.loc 1 682 7 view .LVU151
 542 005e 0949     		ldr	r1, .L47
 543 0060 CB6C     		ldr	r3, [r1, #76]
 544 0062 03F0FF23 		and	r3, r3, #-16711936
 545 0066 46EA0542 		orr	r2, r6, r5, lsl #16
 546 006a 1343     		orrs	r3, r3, r2
 547 006c CB64     		str	r3, [r1, #76]
 548 006e DFE7     		b	.L39
 549              	.L40:
 687:../Drivers/STM32L4xx_HAL_Driver/Src/stm32l4xx_hal_flash_ex.c ****                  (WRPStartOffset | (WRDPEndOffset << 16)));
 550              		.loc 1 687 7 view .LVU152
 551 0070 044A     		ldr	r2, .L47
 552 0072 136D     		ldr	r3, [r2, #80]
 553 0074 03F0FF23 		and	r3, r3, #-16711936
 554 0078 46EA0541 		orr	r1, r6, r5, lsl #16
 555 007c 0B43     		orrs	r3, r3, r1
 556 007e 1365     		str	r3, [r2, #80]
 557 0080 D6E7     		b	.L39
 558              	.L48:
 559 0082 00BF     		.align	2
 560              	.L47:
 561 0084 00200240 		.word	1073881088
 562              		.cfi_endproc
 563              	.LFE81:
 565              		.section	.text.FLASH_OB_RDPConfig,"ax",%progbits
 566              		.align	1
 567              		.syntax unified
 568              		.thumb
 569              		.thumb_func
 571              	FLASH_OB_RDPConfig:
 572              	.LVL36:
 573              	.LFB82:
 728:../Drivers/STM32L4xx_HAL_Driver/Src/stm32l4xx_hal_flash_ex.c ****   HAL_StatusTypeDef status;
 574              		.loc 1 728 1 view -0
 575              		.cfi_startproc
 576              		@ args = 0, pretend = 0, frame = 0
 577              		@ frame_needed = 0, uses_anonymous_args = 0
 728:../Drivers/STM32L4xx_HAL_Driver/Src/stm32l4xx_hal_flash_ex.c ****   HAL_StatusTypeDef status;
 578              		.loc 1 728 1 is_stmt 0 view .LVU154
 579 0000 38B5     		push	{r3, r4, r5, lr}
 580              	.LCFI4:
 581              		.cfi_def_cfa_offset 16
 582              		.cfi_offset 3, -16
 583              		.cfi_offset 4, -12
 584              		.cfi_offset 5, -8
 585              		.cfi_offset 14, -4
 586 0002 0446     		mov	r4, r0
 729:../Drivers/STM32L4xx_HAL_Driver/Src/stm32l4xx_hal_flash_ex.c **** 
ARM GAS  Build/stm32l4xx_hal_flash_ex.s 			page 35


 587              		.loc 1 729 3 is_stmt 1 view .LVU155
 732:../Drivers/STM32L4xx_HAL_Driver/Src/stm32l4xx_hal_flash_ex.c **** 
 588              		.loc 1 732 3 view .LVU156
 735:../Drivers/STM32L4xx_HAL_Driver/Src/stm32l4xx_hal_flash_ex.c **** 
 589              		.loc 1 735 3 view .LVU157
 735:../Drivers/STM32L4xx_HAL_Driver/Src/stm32l4xx_hal_flash_ex.c **** 
 590              		.loc 1 735 12 is_stmt 0 view .LVU158
 591 0004 4CF25030 		movw	r0, #50000
 592              	.LVL37:
 735:../Drivers/STM32L4xx_HAL_Driver/Src/stm32l4xx_hal_flash_ex.c **** 
 593              		.loc 1 735 12 view .LVU159
 594 0008 FFF7FEFF 		bl	FLASH_WaitForLastOperation
 595              	.LVL38:
 737:../Drivers/STM32L4xx_HAL_Driver/Src/stm32l4xx_hal_flash_ex.c ****   {
 596              		.loc 1 737 3 is_stmt 1 view .LVU160
 737:../Drivers/STM32L4xx_HAL_Driver/Src/stm32l4xx_hal_flash_ex.c ****   {
 597              		.loc 1 737 5 is_stmt 0 view .LVU161
 598 000c 00B1     		cbz	r0, .L52
 599              	.LVL39:
 600              	.L50:
 752:../Drivers/STM32L4xx_HAL_Driver/Src/stm32l4xx_hal_flash_ex.c **** }
 601              		.loc 1 752 3 is_stmt 1 view .LVU162
 753:../Drivers/STM32L4xx_HAL_Driver/Src/stm32l4xx_hal_flash_ex.c **** 
 602              		.loc 1 753 1 is_stmt 0 view .LVU163
 603 000e 38BD     		pop	{r3, r4, r5, pc}
 604              	.LVL40:
 605              	.L52:
 740:../Drivers/STM32L4xx_HAL_Driver/Src/stm32l4xx_hal_flash_ex.c **** 
 606              		.loc 1 740 5 is_stmt 1 view .LVU164
 607 0010 094D     		ldr	r5, .L53
 608 0012 2B6A     		ldr	r3, [r5, #32]
 609 0014 23F0FF03 		bic	r3, r3, #255
 610 0018 2343     		orrs	r3, r3, r4
 611 001a 2B62     		str	r3, [r5, #32]
 743:../Drivers/STM32L4xx_HAL_Driver/Src/stm32l4xx_hal_flash_ex.c **** 
 612              		.loc 1 743 5 view .LVU165
 613 001c 6B69     		ldr	r3, [r5, #20]
 614 001e 43F40033 		orr	r3, r3, #131072
 615 0022 6B61     		str	r3, [r5, #20]
 746:../Drivers/STM32L4xx_HAL_Driver/Src/stm32l4xx_hal_flash_ex.c **** 
 616              		.loc 1 746 5 view .LVU166
 746:../Drivers/STM32L4xx_HAL_Driver/Src/stm32l4xx_hal_flash_ex.c **** 
 617              		.loc 1 746 14 is_stmt 0 view .LVU167
 618 0024 4CF25030 		movw	r0, #50000
 619 0028 FFF7FEFF 		bl	FLASH_WaitForLastOperation
 620              	.LVL41:
 749:../Drivers/STM32L4xx_HAL_Driver/Src/stm32l4xx_hal_flash_ex.c ****   }
 621              		.loc 1 749 5 is_stmt 1 view .LVU168
 622 002c 6B69     		ldr	r3, [r5, #20]
 623 002e 23F40033 		bic	r3, r3, #131072
 624 0032 6B61     		str	r3, [r5, #20]
 625 0034 EBE7     		b	.L50
 626              	.L54:
 627 0036 00BF     		.align	2
 628              	.L53:
 629 0038 00200240 		.word	1073881088
 630              		.cfi_endproc
ARM GAS  Build/stm32l4xx_hal_flash_ex.s 			page 36


 631              	.LFE82:
 633              		.section	.text.FLASH_OB_UserConfig,"ax",%progbits
 634              		.align	1
 635              		.syntax unified
 636              		.thumb
 637              		.thumb_func
 639              	FLASH_OB_UserConfig:
 640              	.LVL42:
 641              	.LFB83:
 772:../Drivers/STM32L4xx_HAL_Driver/Src/stm32l4xx_hal_flash_ex.c ****   uint32_t optr_reg_val = 0;
 642              		.loc 1 772 1 view -0
 643              		.cfi_startproc
 644              		@ args = 0, pretend = 0, frame = 0
 645              		@ frame_needed = 0, uses_anonymous_args = 0
 772:../Drivers/STM32L4xx_HAL_Driver/Src/stm32l4xx_hal_flash_ex.c ****   uint32_t optr_reg_val = 0;
 646              		.loc 1 772 1 is_stmt 0 view .LVU170
 647 0000 38B5     		push	{r3, r4, r5, lr}
 648              	.LCFI5:
 649              		.cfi_def_cfa_offset 16
 650              		.cfi_offset 3, -16
 651              		.cfi_offset 4, -12
 652              		.cfi_offset 5, -8
 653              		.cfi_offset 14, -4
 654 0002 0446     		mov	r4, r0
 655 0004 0D46     		mov	r5, r1
 773:../Drivers/STM32L4xx_HAL_Driver/Src/stm32l4xx_hal_flash_ex.c ****   uint32_t optr_reg_mask = 0;
 656              		.loc 1 773 3 is_stmt 1 view .LVU171
 657              	.LVL43:
 774:../Drivers/STM32L4xx_HAL_Driver/Src/stm32l4xx_hal_flash_ex.c ****   HAL_StatusTypeDef status;
 658              		.loc 1 774 3 view .LVU172
 775:../Drivers/STM32L4xx_HAL_Driver/Src/stm32l4xx_hal_flash_ex.c **** 
 659              		.loc 1 775 3 view .LVU173
 778:../Drivers/STM32L4xx_HAL_Driver/Src/stm32l4xx_hal_flash_ex.c **** 
 660              		.loc 1 778 3 view .LVU174
 781:../Drivers/STM32L4xx_HAL_Driver/Src/stm32l4xx_hal_flash_ex.c **** 
 661              		.loc 1 781 3 view .LVU175
 781:../Drivers/STM32L4xx_HAL_Driver/Src/stm32l4xx_hal_flash_ex.c **** 
 662              		.loc 1 781 12 is_stmt 0 view .LVU176
 663 0006 4CF25030 		movw	r0, #50000
 664              	.LVL44:
 781:../Drivers/STM32L4xx_HAL_Driver/Src/stm32l4xx_hal_flash_ex.c **** 
 665              		.loc 1 781 12 view .LVU177
 666 000a FFF7FEFF 		bl	FLASH_WaitForLastOperation
 667              	.LVL45:
 783:../Drivers/STM32L4xx_HAL_Driver/Src/stm32l4xx_hal_flash_ex.c ****   {
 668              		.loc 1 783 3 is_stmt 1 view .LVU178
 783:../Drivers/STM32L4xx_HAL_Driver/Src/stm32l4xx_hal_flash_ex.c ****   {
 669              		.loc 1 783 5 is_stmt 0 view .LVU179
 670 000e 0028     		cmp	r0, #0
 671 0010 7AD1     		bne	.L56
 785:../Drivers/STM32L4xx_HAL_Driver/Src/stm32l4xx_hal_flash_ex.c ****     {
 672              		.loc 1 785 5 is_stmt 1 view .LVU180
 785:../Drivers/STM32L4xx_HAL_Driver/Src/stm32l4xx_hal_flash_ex.c ****     {
 673              		.loc 1 785 7 is_stmt 0 view .LVU181
 674 0012 14F00103 		ands	r3, r4, #1
 675 0016 04D0     		beq	.L70
 788:../Drivers/STM32L4xx_HAL_Driver/Src/stm32l4xx_hal_flash_ex.c **** 
ARM GAS  Build/stm32l4xx_hal_flash_ex.s 			page 37


 676              		.loc 1 788 7 is_stmt 1 view .LVU182
 791:../Drivers/STM32L4xx_HAL_Driver/Src/stm32l4xx_hal_flash_ex.c ****       optr_reg_mask |= FLASH_OPTR_BOR_LEV;
 677              		.loc 1 791 7 view .LVU183
 791:../Drivers/STM32L4xx_HAL_Driver/Src/stm32l4xx_hal_flash_ex.c ****       optr_reg_mask |= FLASH_OPTR_BOR_LEV;
 678              		.loc 1 791 35 is_stmt 0 view .LVU184
 679 0018 05F4E063 		and	r3, r5, #1792
 680              	.LVL46:
 792:../Drivers/STM32L4xx_HAL_Driver/Src/stm32l4xx_hal_flash_ex.c ****     }
 681              		.loc 1 792 7 is_stmt 1 view .LVU185
 792:../Drivers/STM32L4xx_HAL_Driver/Src/stm32l4xx_hal_flash_ex.c ****     }
 682              		.loc 1 792 21 is_stmt 0 view .LVU186
 683 001c 4FF4E062 		mov	r2, #1792
 684 0020 00E0     		b	.L57
 685              	.LVL47:
 686              	.L70:
 774:../Drivers/STM32L4xx_HAL_Driver/Src/stm32l4xx_hal_flash_ex.c ****   HAL_StatusTypeDef status;
 687              		.loc 1 774 12 view .LVU187
 688 0022 1A46     		mov	r2, r3
 689              	.LVL48:
 690              	.L57:
 795:../Drivers/STM32L4xx_HAL_Driver/Src/stm32l4xx_hal_flash_ex.c ****     {
 691              		.loc 1 795 5 is_stmt 1 view .LVU188
 795:../Drivers/STM32L4xx_HAL_Driver/Src/stm32l4xx_hal_flash_ex.c ****     {
 692              		.loc 1 795 7 is_stmt 0 view .LVU189
 693 0024 14F0020F 		tst	r4, #2
 694 0028 04D0     		beq	.L58
 798:../Drivers/STM32L4xx_HAL_Driver/Src/stm32l4xx_hal_flash_ex.c **** 
 695              		.loc 1 798 7 is_stmt 1 view .LVU190
 801:../Drivers/STM32L4xx_HAL_Driver/Src/stm32l4xx_hal_flash_ex.c ****       optr_reg_mask |= FLASH_OPTR_nRST_STOP;
 696              		.loc 1 801 7 view .LVU191
 801:../Drivers/STM32L4xx_HAL_Driver/Src/stm32l4xx_hal_flash_ex.c ****       optr_reg_mask |= FLASH_OPTR_nRST_STOP;
 697              		.loc 1 801 35 is_stmt 0 view .LVU192
 698 002a 05F48051 		and	r1, r5, #4096
 801:../Drivers/STM32L4xx_HAL_Driver/Src/stm32l4xx_hal_flash_ex.c ****       optr_reg_mask |= FLASH_OPTR_nRST_STOP;
 699              		.loc 1 801 20 view .LVU193
 700 002e 0B43     		orrs	r3, r3, r1
 701              	.LVL49:
 802:../Drivers/STM32L4xx_HAL_Driver/Src/stm32l4xx_hal_flash_ex.c ****     }
 702              		.loc 1 802 7 is_stmt 1 view .LVU194
 802:../Drivers/STM32L4xx_HAL_Driver/Src/stm32l4xx_hal_flash_ex.c ****     }
 703              		.loc 1 802 21 is_stmt 0 view .LVU195
 704 0030 42F48052 		orr	r2, r2, #4096
 705              	.LVL50:
 706              	.L58:
 805:../Drivers/STM32L4xx_HAL_Driver/Src/stm32l4xx_hal_flash_ex.c ****     {
 707              		.loc 1 805 5 is_stmt 1 view .LVU196
 805:../Drivers/STM32L4xx_HAL_Driver/Src/stm32l4xx_hal_flash_ex.c ****     {
 708              		.loc 1 805 7 is_stmt 0 view .LVU197
 709 0034 14F0040F 		tst	r4, #4
 710 0038 04D0     		beq	.L59
 808:../Drivers/STM32L4xx_HAL_Driver/Src/stm32l4xx_hal_flash_ex.c **** 
 711              		.loc 1 808 7 is_stmt 1 view .LVU198
 811:../Drivers/STM32L4xx_HAL_Driver/Src/stm32l4xx_hal_flash_ex.c ****       optr_reg_mask |= FLASH_OPTR_nRST_STDBY;
 712              		.loc 1 811 7 view .LVU199
 811:../Drivers/STM32L4xx_HAL_Driver/Src/stm32l4xx_hal_flash_ex.c ****       optr_reg_mask |= FLASH_OPTR_nRST_STDBY;
 713              		.loc 1 811 35 is_stmt 0 view .LVU200
 714 003a 05F40051 		and	r1, r5, #8192
ARM GAS  Build/stm32l4xx_hal_flash_ex.s 			page 38


 811:../Drivers/STM32L4xx_HAL_Driver/Src/stm32l4xx_hal_flash_ex.c ****       optr_reg_mask |= FLASH_OPTR_nRST_STDBY;
 715              		.loc 1 811 20 view .LVU201
 716 003e 0B43     		orrs	r3, r3, r1
 717              	.LVL51:
 812:../Drivers/STM32L4xx_HAL_Driver/Src/stm32l4xx_hal_flash_ex.c ****     }
 718              		.loc 1 812 7 is_stmt 1 view .LVU202
 812:../Drivers/STM32L4xx_HAL_Driver/Src/stm32l4xx_hal_flash_ex.c ****     }
 719              		.loc 1 812 21 is_stmt 0 view .LVU203
 720 0040 42F40052 		orr	r2, r2, #8192
 721              	.LVL52:
 722              	.L59:
 815:../Drivers/STM32L4xx_HAL_Driver/Src/stm32l4xx_hal_flash_ex.c ****     {
 723              		.loc 1 815 5 is_stmt 1 view .LVU204
 815:../Drivers/STM32L4xx_HAL_Driver/Src/stm32l4xx_hal_flash_ex.c ****     {
 724              		.loc 1 815 7 is_stmt 0 view .LVU205
 725 0044 14F4805F 		tst	r4, #4096
 726 0048 04D0     		beq	.L60
 818:../Drivers/STM32L4xx_HAL_Driver/Src/stm32l4xx_hal_flash_ex.c **** 
 727              		.loc 1 818 7 is_stmt 1 view .LVU206
 821:../Drivers/STM32L4xx_HAL_Driver/Src/stm32l4xx_hal_flash_ex.c ****       optr_reg_mask |= FLASH_OPTR_nRST_SHDW;
 728              		.loc 1 821 7 view .LVU207
 821:../Drivers/STM32L4xx_HAL_Driver/Src/stm32l4xx_hal_flash_ex.c ****       optr_reg_mask |= FLASH_OPTR_nRST_SHDW;
 729              		.loc 1 821 35 is_stmt 0 view .LVU208
 730 004a 05F48041 		and	r1, r5, #16384
 821:../Drivers/STM32L4xx_HAL_Driver/Src/stm32l4xx_hal_flash_ex.c ****       optr_reg_mask |= FLASH_OPTR_nRST_SHDW;
 731              		.loc 1 821 20 view .LVU209
 732 004e 0B43     		orrs	r3, r3, r1
 733              	.LVL53:
 822:../Drivers/STM32L4xx_HAL_Driver/Src/stm32l4xx_hal_flash_ex.c ****     }
 734              		.loc 1 822 7 is_stmt 1 view .LVU210
 822:../Drivers/STM32L4xx_HAL_Driver/Src/stm32l4xx_hal_flash_ex.c ****     }
 735              		.loc 1 822 21 is_stmt 0 view .LVU211
 736 0050 42F48042 		orr	r2, r2, #16384
 737              	.LVL54:
 738              	.L60:
 825:../Drivers/STM32L4xx_HAL_Driver/Src/stm32l4xx_hal_flash_ex.c ****     {
 739              		.loc 1 825 5 is_stmt 1 view .LVU212
 825:../Drivers/STM32L4xx_HAL_Driver/Src/stm32l4xx_hal_flash_ex.c ****     {
 740              		.loc 1 825 7 is_stmt 0 view .LVU213
 741 0054 14F0080F 		tst	r4, #8
 742 0058 04D0     		beq	.L61
 828:../Drivers/STM32L4xx_HAL_Driver/Src/stm32l4xx_hal_flash_ex.c **** 
 743              		.loc 1 828 7 is_stmt 1 view .LVU214
 831:../Drivers/STM32L4xx_HAL_Driver/Src/stm32l4xx_hal_flash_ex.c ****       optr_reg_mask |= FLASH_OPTR_IWDG_SW;
 744              		.loc 1 831 7 view .LVU215
 831:../Drivers/STM32L4xx_HAL_Driver/Src/stm32l4xx_hal_flash_ex.c ****       optr_reg_mask |= FLASH_OPTR_IWDG_SW;
 745              		.loc 1 831 35 is_stmt 0 view .LVU216
 746 005a 05F48031 		and	r1, r5, #65536
 831:../Drivers/STM32L4xx_HAL_Driver/Src/stm32l4xx_hal_flash_ex.c ****       optr_reg_mask |= FLASH_OPTR_IWDG_SW;
 747              		.loc 1 831 20 view .LVU217
 748 005e 0B43     		orrs	r3, r3, r1
 749              	.LVL55:
 832:../Drivers/STM32L4xx_HAL_Driver/Src/stm32l4xx_hal_flash_ex.c ****     }
 750              		.loc 1 832 7 is_stmt 1 view .LVU218
 832:../Drivers/STM32L4xx_HAL_Driver/Src/stm32l4xx_hal_flash_ex.c ****     }
 751              		.loc 1 832 21 is_stmt 0 view .LVU219
 752 0060 42F48032 		orr	r2, r2, #65536
ARM GAS  Build/stm32l4xx_hal_flash_ex.s 			page 39


 753              	.LVL56:
 754              	.L61:
 835:../Drivers/STM32L4xx_HAL_Driver/Src/stm32l4xx_hal_flash_ex.c ****     {
 755              		.loc 1 835 5 is_stmt 1 view .LVU220
 835:../Drivers/STM32L4xx_HAL_Driver/Src/stm32l4xx_hal_flash_ex.c ****     {
 756              		.loc 1 835 7 is_stmt 0 view .LVU221
 757 0064 14F0100F 		tst	r4, #16
 758 0068 04D0     		beq	.L62
 838:../Drivers/STM32L4xx_HAL_Driver/Src/stm32l4xx_hal_flash_ex.c **** 
 759              		.loc 1 838 7 is_stmt 1 view .LVU222
 841:../Drivers/STM32L4xx_HAL_Driver/Src/stm32l4xx_hal_flash_ex.c ****       optr_reg_mask |= FLASH_OPTR_IWDG_STOP;
 760              		.loc 1 841 7 view .LVU223
 841:../Drivers/STM32L4xx_HAL_Driver/Src/stm32l4xx_hal_flash_ex.c ****       optr_reg_mask |= FLASH_OPTR_IWDG_STOP;
 761              		.loc 1 841 35 is_stmt 0 view .LVU224
 762 006a 05F40031 		and	r1, r5, #131072
 841:../Drivers/STM32L4xx_HAL_Driver/Src/stm32l4xx_hal_flash_ex.c ****       optr_reg_mask |= FLASH_OPTR_IWDG_STOP;
 763              		.loc 1 841 20 view .LVU225
 764 006e 0B43     		orrs	r3, r3, r1
 765              	.LVL57:
 842:../Drivers/STM32L4xx_HAL_Driver/Src/stm32l4xx_hal_flash_ex.c ****     }
 766              		.loc 1 842 7 is_stmt 1 view .LVU226
 842:../Drivers/STM32L4xx_HAL_Driver/Src/stm32l4xx_hal_flash_ex.c ****     }
 767              		.loc 1 842 21 is_stmt 0 view .LVU227
 768 0070 42F40032 		orr	r2, r2, #131072
 769              	.LVL58:
 770              	.L62:
 845:../Drivers/STM32L4xx_HAL_Driver/Src/stm32l4xx_hal_flash_ex.c ****     {
 771              		.loc 1 845 5 is_stmt 1 view .LVU228
 845:../Drivers/STM32L4xx_HAL_Driver/Src/stm32l4xx_hal_flash_ex.c ****     {
 772              		.loc 1 845 7 is_stmt 0 view .LVU229
 773 0074 14F0200F 		tst	r4, #32
 774 0078 04D0     		beq	.L63
 848:../Drivers/STM32L4xx_HAL_Driver/Src/stm32l4xx_hal_flash_ex.c **** 
 775              		.loc 1 848 7 is_stmt 1 view .LVU230
 851:../Drivers/STM32L4xx_HAL_Driver/Src/stm32l4xx_hal_flash_ex.c ****       optr_reg_mask |= FLASH_OPTR_IWDG_STDBY;
 776              		.loc 1 851 7 view .LVU231
 851:../Drivers/STM32L4xx_HAL_Driver/Src/stm32l4xx_hal_flash_ex.c ****       optr_reg_mask |= FLASH_OPTR_IWDG_STDBY;
 777              		.loc 1 851 35 is_stmt 0 view .LVU232
 778 007a 05F48021 		and	r1, r5, #262144
 851:../Drivers/STM32L4xx_HAL_Driver/Src/stm32l4xx_hal_flash_ex.c ****       optr_reg_mask |= FLASH_OPTR_IWDG_STDBY;
 779              		.loc 1 851 20 view .LVU233
 780 007e 0B43     		orrs	r3, r3, r1
 781              	.LVL59:
 852:../Drivers/STM32L4xx_HAL_Driver/Src/stm32l4xx_hal_flash_ex.c ****     }
 782              		.loc 1 852 7 is_stmt 1 view .LVU234
 852:../Drivers/STM32L4xx_HAL_Driver/Src/stm32l4xx_hal_flash_ex.c ****     }
 783              		.loc 1 852 21 is_stmt 0 view .LVU235
 784 0080 42F48022 		orr	r2, r2, #262144
 785              	.LVL60:
 786              	.L63:
 855:../Drivers/STM32L4xx_HAL_Driver/Src/stm32l4xx_hal_flash_ex.c ****     {
 787              		.loc 1 855 5 is_stmt 1 view .LVU236
 855:../Drivers/STM32L4xx_HAL_Driver/Src/stm32l4xx_hal_flash_ex.c ****     {
 788              		.loc 1 855 7 is_stmt 0 view .LVU237
 789 0084 14F0400F 		tst	r4, #64
 790 0088 04D0     		beq	.L64
 858:../Drivers/STM32L4xx_HAL_Driver/Src/stm32l4xx_hal_flash_ex.c **** 
ARM GAS  Build/stm32l4xx_hal_flash_ex.s 			page 40


 791              		.loc 1 858 7 is_stmt 1 view .LVU238
 861:../Drivers/STM32L4xx_HAL_Driver/Src/stm32l4xx_hal_flash_ex.c ****       optr_reg_mask |= FLASH_OPTR_WWDG_SW;
 792              		.loc 1 861 7 view .LVU239
 861:../Drivers/STM32L4xx_HAL_Driver/Src/stm32l4xx_hal_flash_ex.c ****       optr_reg_mask |= FLASH_OPTR_WWDG_SW;
 793              		.loc 1 861 35 is_stmt 0 view .LVU240
 794 008a 05F40021 		and	r1, r5, #524288
 861:../Drivers/STM32L4xx_HAL_Driver/Src/stm32l4xx_hal_flash_ex.c ****       optr_reg_mask |= FLASH_OPTR_WWDG_SW;
 795              		.loc 1 861 20 view .LVU241
 796 008e 0B43     		orrs	r3, r3, r1
 797              	.LVL61:
 862:../Drivers/STM32L4xx_HAL_Driver/Src/stm32l4xx_hal_flash_ex.c ****     }
 798              		.loc 1 862 7 is_stmt 1 view .LVU242
 862:../Drivers/STM32L4xx_HAL_Driver/Src/stm32l4xx_hal_flash_ex.c ****     }
 799              		.loc 1 862 21 is_stmt 0 view .LVU243
 800 0090 42F40022 		orr	r2, r2, #524288
 801              	.LVL62:
 802              	.L64:
 869:../Drivers/STM32L4xx_HAL_Driver/Src/stm32l4xx_hal_flash_ex.c ****     {
 803              		.loc 1 869 5 is_stmt 1 view .LVU244
 869:../Drivers/STM32L4xx_HAL_Driver/Src/stm32l4xx_hal_flash_ex.c ****     {
 804              		.loc 1 869 7 is_stmt 0 view .LVU245
 805 0094 14F0800F 		tst	r4, #128
 806 0098 04D0     		beq	.L65
 872:../Drivers/STM32L4xx_HAL_Driver/Src/stm32l4xx_hal_flash_ex.c **** 
 807              		.loc 1 872 7 is_stmt 1 view .LVU246
 875:../Drivers/STM32L4xx_HAL_Driver/Src/stm32l4xx_hal_flash_ex.c ****       optr_reg_mask |= FLASH_OPTR_BFB2;
 808              		.loc 1 875 7 view .LVU247
 875:../Drivers/STM32L4xx_HAL_Driver/Src/stm32l4xx_hal_flash_ex.c ****       optr_reg_mask |= FLASH_OPTR_BFB2;
 809              		.loc 1 875 35 is_stmt 0 view .LVU248
 810 009a 05F48011 		and	r1, r5, #1048576
 875:../Drivers/STM32L4xx_HAL_Driver/Src/stm32l4xx_hal_flash_ex.c ****       optr_reg_mask |= FLASH_OPTR_BFB2;
 811              		.loc 1 875 20 view .LVU249
 812 009e 0B43     		orrs	r3, r3, r1
 813              	.LVL63:
 876:../Drivers/STM32L4xx_HAL_Driver/Src/stm32l4xx_hal_flash_ex.c ****     }
 814              		.loc 1 876 7 is_stmt 1 view .LVU250
 876:../Drivers/STM32L4xx_HAL_Driver/Src/stm32l4xx_hal_flash_ex.c ****     }
 815              		.loc 1 876 21 is_stmt 0 view .LVU251
 816 00a0 42F48012 		orr	r2, r2, #1048576
 817              	.LVL64:
 818              	.L65:
 879:../Drivers/STM32L4xx_HAL_Driver/Src/stm32l4xx_hal_flash_ex.c ****     {
 819              		.loc 1 879 5 is_stmt 1 view .LVU252
 879:../Drivers/STM32L4xx_HAL_Driver/Src/stm32l4xx_hal_flash_ex.c ****     {
 820              		.loc 1 879 7 is_stmt 0 view .LVU253
 821 00a4 14F4807F 		tst	r4, #256
 822 00a8 04D0     		beq	.L66
 890:../Drivers/STM32L4xx_HAL_Driver/Src/stm32l4xx_hal_flash_ex.c **** 
 823              		.loc 1 890 7 is_stmt 1 view .LVU254
 893:../Drivers/STM32L4xx_HAL_Driver/Src/stm32l4xx_hal_flash_ex.c ****       optr_reg_mask |= FLASH_OPTR_DUALBANK;
 824              		.loc 1 893 7 view .LVU255
 893:../Drivers/STM32L4xx_HAL_Driver/Src/stm32l4xx_hal_flash_ex.c ****       optr_reg_mask |= FLASH_OPTR_DUALBANK;
 825              		.loc 1 893 35 is_stmt 0 view .LVU256
 826 00aa 05F40011 		and	r1, r5, #2097152
 893:../Drivers/STM32L4xx_HAL_Driver/Src/stm32l4xx_hal_flash_ex.c ****       optr_reg_mask |= FLASH_OPTR_DUALBANK;
 827              		.loc 1 893 20 view .LVU257
 828 00ae 0B43     		orrs	r3, r3, r1
ARM GAS  Build/stm32l4xx_hal_flash_ex.s 			page 41


 829              	.LVL65:
 894:../Drivers/STM32L4xx_HAL_Driver/Src/stm32l4xx_hal_flash_ex.c **** #endif
 830              		.loc 1 894 7 is_stmt 1 view .LVU258
 894:../Drivers/STM32L4xx_HAL_Driver/Src/stm32l4xx_hal_flash_ex.c **** #endif
 831              		.loc 1 894 21 is_stmt 0 view .LVU259
 832 00b0 42F40012 		orr	r2, r2, #2097152
 833              	.LVL66:
 834              	.L66:
 899:../Drivers/STM32L4xx_HAL_Driver/Src/stm32l4xx_hal_flash_ex.c ****     {
 835              		.loc 1 899 5 is_stmt 1 view .LVU260
 899:../Drivers/STM32L4xx_HAL_Driver/Src/stm32l4xx_hal_flash_ex.c ****     {
 836              		.loc 1 899 7 is_stmt 0 view .LVU261
 837 00b4 14F4007F 		tst	r4, #512
 838 00b8 04D0     		beq	.L67
 902:../Drivers/STM32L4xx_HAL_Driver/Src/stm32l4xx_hal_flash_ex.c **** 
 839              		.loc 1 902 7 is_stmt 1 view .LVU262
 905:../Drivers/STM32L4xx_HAL_Driver/Src/stm32l4xx_hal_flash_ex.c ****       optr_reg_mask |= FLASH_OPTR_nBOOT1;
 840              		.loc 1 905 7 view .LVU263
 905:../Drivers/STM32L4xx_HAL_Driver/Src/stm32l4xx_hal_flash_ex.c ****       optr_reg_mask |= FLASH_OPTR_nBOOT1;
 841              		.loc 1 905 35 is_stmt 0 view .LVU264
 842 00ba 05F40001 		and	r1, r5, #8388608
 905:../Drivers/STM32L4xx_HAL_Driver/Src/stm32l4xx_hal_flash_ex.c ****       optr_reg_mask |= FLASH_OPTR_nBOOT1;
 843              		.loc 1 905 20 view .LVU265
 844 00be 0B43     		orrs	r3, r3, r1
 845              	.LVL67:
 906:../Drivers/STM32L4xx_HAL_Driver/Src/stm32l4xx_hal_flash_ex.c ****     }
 846              		.loc 1 906 7 is_stmt 1 view .LVU266
 906:../Drivers/STM32L4xx_HAL_Driver/Src/stm32l4xx_hal_flash_ex.c ****     }
 847              		.loc 1 906 21 is_stmt 0 view .LVU267
 848 00c0 42F40002 		orr	r2, r2, #8388608
 849              	.LVL68:
 850              	.L67:
 909:../Drivers/STM32L4xx_HAL_Driver/Src/stm32l4xx_hal_flash_ex.c ****     {
 851              		.loc 1 909 5 is_stmt 1 view .LVU268
 909:../Drivers/STM32L4xx_HAL_Driver/Src/stm32l4xx_hal_flash_ex.c ****     {
 852              		.loc 1 909 7 is_stmt 0 view .LVU269
 853 00c4 14F4806F 		tst	r4, #1024
 854 00c8 04D0     		beq	.L68
 912:../Drivers/STM32L4xx_HAL_Driver/Src/stm32l4xx_hal_flash_ex.c **** 
 855              		.loc 1 912 7 is_stmt 1 view .LVU270
 915:../Drivers/STM32L4xx_HAL_Driver/Src/stm32l4xx_hal_flash_ex.c ****       optr_reg_mask |= FLASH_OPTR_SRAM2_PE;
 856              		.loc 1 915 7 view .LVU271
 915:../Drivers/STM32L4xx_HAL_Driver/Src/stm32l4xx_hal_flash_ex.c ****       optr_reg_mask |= FLASH_OPTR_SRAM2_PE;
 857              		.loc 1 915 35 is_stmt 0 view .LVU272
 858 00ca 05F08071 		and	r1, r5, #16777216
 915:../Drivers/STM32L4xx_HAL_Driver/Src/stm32l4xx_hal_flash_ex.c ****       optr_reg_mask |= FLASH_OPTR_SRAM2_PE;
 859              		.loc 1 915 20 view .LVU273
 860 00ce 0B43     		orrs	r3, r3, r1
 861              	.LVL69:
 916:../Drivers/STM32L4xx_HAL_Driver/Src/stm32l4xx_hal_flash_ex.c ****     }
 862              		.loc 1 916 7 is_stmt 1 view .LVU274
 916:../Drivers/STM32L4xx_HAL_Driver/Src/stm32l4xx_hal_flash_ex.c ****     }
 863              		.loc 1 916 21 is_stmt 0 view .LVU275
 864 00d0 42F08072 		orr	r2, r2, #16777216
 865              	.LVL70:
 866              	.L68:
 919:../Drivers/STM32L4xx_HAL_Driver/Src/stm32l4xx_hal_flash_ex.c ****     {
ARM GAS  Build/stm32l4xx_hal_flash_ex.s 			page 42


 867              		.loc 1 919 5 is_stmt 1 view .LVU276
 919:../Drivers/STM32L4xx_HAL_Driver/Src/stm32l4xx_hal_flash_ex.c ****     {
 868              		.loc 1 919 7 is_stmt 0 view .LVU277
 869 00d4 14F4006F 		tst	r4, #2048
 870 00d8 04D0     		beq	.L69
 922:../Drivers/STM32L4xx_HAL_Driver/Src/stm32l4xx_hal_flash_ex.c **** 
 871              		.loc 1 922 7 is_stmt 1 view .LVU278
 925:../Drivers/STM32L4xx_HAL_Driver/Src/stm32l4xx_hal_flash_ex.c ****       optr_reg_mask |= FLASH_OPTR_SRAM2_RST;
 872              		.loc 1 925 7 view .LVU279
 925:../Drivers/STM32L4xx_HAL_Driver/Src/stm32l4xx_hal_flash_ex.c ****       optr_reg_mask |= FLASH_OPTR_SRAM2_RST;
 873              		.loc 1 925 35 is_stmt 0 view .LVU280
 874 00da 05F00075 		and	r5, r5, #33554432
 875              	.LVL71:
 925:../Drivers/STM32L4xx_HAL_Driver/Src/stm32l4xx_hal_flash_ex.c ****       optr_reg_mask |= FLASH_OPTR_SRAM2_RST;
 876              		.loc 1 925 20 view .LVU281
 877 00de 2B43     		orrs	r3, r3, r5
 878              	.LVL72:
 926:../Drivers/STM32L4xx_HAL_Driver/Src/stm32l4xx_hal_flash_ex.c ****     }
 879              		.loc 1 926 7 is_stmt 1 view .LVU282
 926:../Drivers/STM32L4xx_HAL_Driver/Src/stm32l4xx_hal_flash_ex.c ****     }
 880              		.loc 1 926 21 is_stmt 0 view .LVU283
 881 00e0 42F00072 		orr	r2, r2, #33554432
 882              	.LVL73:
 883              	.L69:
 956:../Drivers/STM32L4xx_HAL_Driver/Src/stm32l4xx_hal_flash_ex.c **** 
 884              		.loc 1 956 5 is_stmt 1 view .LVU284
 885 00e4 094C     		ldr	r4, .L72
 886              	.LVL74:
 956:../Drivers/STM32L4xx_HAL_Driver/Src/stm32l4xx_hal_flash_ex.c **** 
 887              		.loc 1 956 5 is_stmt 0 view .LVU285
 888 00e6 216A     		ldr	r1, [r4, #32]
 889 00e8 21EA0202 		bic	r2, r1, r2
 890              	.LVL75:
 956:../Drivers/STM32L4xx_HAL_Driver/Src/stm32l4xx_hal_flash_ex.c **** 
 891              		.loc 1 956 5 view .LVU286
 892 00ec 1343     		orrs	r3, r3, r2
 893              	.LVL76:
 956:../Drivers/STM32L4xx_HAL_Driver/Src/stm32l4xx_hal_flash_ex.c **** 
 894              		.loc 1 956 5 view .LVU287
 895 00ee 2362     		str	r3, [r4, #32]
 959:../Drivers/STM32L4xx_HAL_Driver/Src/stm32l4xx_hal_flash_ex.c **** 
 896              		.loc 1 959 5 is_stmt 1 view .LVU288
 897 00f0 6369     		ldr	r3, [r4, #20]
 898 00f2 43F40033 		orr	r3, r3, #131072
 899 00f6 6361     		str	r3, [r4, #20]
 962:../Drivers/STM32L4xx_HAL_Driver/Src/stm32l4xx_hal_flash_ex.c **** 
 900              		.loc 1 962 5 view .LVU289
 962:../Drivers/STM32L4xx_HAL_Driver/Src/stm32l4xx_hal_flash_ex.c **** 
 901              		.loc 1 962 14 is_stmt 0 view .LVU290
 902 00f8 4CF25030 		movw	r0, #50000
 903 00fc FFF7FEFF 		bl	FLASH_WaitForLastOperation
 904              	.LVL77:
 965:../Drivers/STM32L4xx_HAL_Driver/Src/stm32l4xx_hal_flash_ex.c ****   }
 905              		.loc 1 965 5 is_stmt 1 view .LVU291
 906 0100 6369     		ldr	r3, [r4, #20]
 907 0102 23F40033 		bic	r3, r3, #131072
 908 0106 6361     		str	r3, [r4, #20]
ARM GAS  Build/stm32l4xx_hal_flash_ex.s 			page 43


 909              	.LVL78:
 910              	.L56:
 968:../Drivers/STM32L4xx_HAL_Driver/Src/stm32l4xx_hal_flash_ex.c **** }
 911              		.loc 1 968 3 view .LVU292
 969:../Drivers/STM32L4xx_HAL_Driver/Src/stm32l4xx_hal_flash_ex.c **** 
 912              		.loc 1 969 1 is_stmt 0 view .LVU293
 913 0108 38BD     		pop	{r3, r4, r5, pc}
 914              	.L73:
 915 010a 00BF     		.align	2
 916              	.L72:
 917 010c 00200240 		.word	1073881088
 918              		.cfi_endproc
 919              	.LFE83:
 921              		.section	.text.FLASH_OB_PCROPConfig,"ax",%progbits
 922              		.align	1
 923              		.syntax unified
 924              		.thumb
 925              		.thumb_func
 927              	FLASH_OB_PCROPConfig:
 928              	.LVL79:
 929              	.LFB84:
 992:../Drivers/STM32L4xx_HAL_Driver/Src/stm32l4xx_hal_flash_ex.c ****   HAL_StatusTypeDef status;
 930              		.loc 1 992 1 is_stmt 1 view -0
 931              		.cfi_startproc
 932              		@ args = 0, pretend = 0, frame = 0
 933              		@ frame_needed = 0, uses_anonymous_args = 0
 992:../Drivers/STM32L4xx_HAL_Driver/Src/stm32l4xx_hal_flash_ex.c ****   HAL_StatusTypeDef status;
 934              		.loc 1 992 1 is_stmt 0 view .LVU295
 935 0000 70B5     		push	{r4, r5, r6, lr}
 936              	.LCFI6:
 937              		.cfi_def_cfa_offset 16
 938              		.cfi_offset 4, -16
 939              		.cfi_offset 5, -12
 940              		.cfi_offset 6, -8
 941              		.cfi_offset 14, -4
 942 0002 0446     		mov	r4, r0
 943 0004 0E46     		mov	r6, r1
 944 0006 1546     		mov	r5, r2
 993:../Drivers/STM32L4xx_HAL_Driver/Src/stm32l4xx_hal_flash_ex.c ****   uint32_t reg_value;
 945              		.loc 1 993 3 is_stmt 1 view .LVU296
 994:../Drivers/STM32L4xx_HAL_Driver/Src/stm32l4xx_hal_flash_ex.c ****   uint32_t bank1_addr;
 946              		.loc 1 994 3 view .LVU297
 995:../Drivers/STM32L4xx_HAL_Driver/Src/stm32l4xx_hal_flash_ex.c **** #if defined (STM32L471xx) || defined (STM32L475xx) || defined (STM32L476xx) || defined (STM32L485xx
 947              		.loc 1 995 3 view .LVU298
1000:../Drivers/STM32L4xx_HAL_Driver/Src/stm32l4xx_hal_flash_ex.c **** #endif
 948              		.loc 1 1000 3 view .LVU299
1004:../Drivers/STM32L4xx_HAL_Driver/Src/stm32l4xx_hal_flash_ex.c ****   assert_param(IS_OB_PCROP_RDP(PCROPConfig & FLASH_PCROP1ER_PCROP_RDP));
 949              		.loc 1 1004 3 view .LVU300
1005:../Drivers/STM32L4xx_HAL_Driver/Src/stm32l4xx_hal_flash_ex.c ****   assert_param(IS_FLASH_MAIN_MEM_ADDRESS(PCROPStartAddr));
 950              		.loc 1 1005 3 view .LVU301
1006:../Drivers/STM32L4xx_HAL_Driver/Src/stm32l4xx_hal_flash_ex.c ****   assert_param(IS_FLASH_MAIN_MEM_ADDRESS(PCROPEndAddr));
 951              		.loc 1 1006 3 view .LVU302
1007:../Drivers/STM32L4xx_HAL_Driver/Src/stm32l4xx_hal_flash_ex.c **** 
 952              		.loc 1 1007 3 view .LVU303
1010:../Drivers/STM32L4xx_HAL_Driver/Src/stm32l4xx_hal_flash_ex.c **** 
 953              		.loc 1 1010 3 view .LVU304
1010:../Drivers/STM32L4xx_HAL_Driver/Src/stm32l4xx_hal_flash_ex.c **** 
ARM GAS  Build/stm32l4xx_hal_flash_ex.s 			page 44


 954              		.loc 1 1010 12 is_stmt 0 view .LVU305
 955 0008 4CF25030 		movw	r0, #50000
 956              	.LVL80:
1010:../Drivers/STM32L4xx_HAL_Driver/Src/stm32l4xx_hal_flash_ex.c **** 
 957              		.loc 1 1010 12 view .LVU306
 958 000c FFF7FEFF 		bl	FLASH_WaitForLastOperation
 959              	.LVL81:
1012:../Drivers/STM32L4xx_HAL_Driver/Src/stm32l4xx_hal_flash_ex.c ****   {
 960              		.loc 1 1012 3 is_stmt 1 view .LVU307
1012:../Drivers/STM32L4xx_HAL_Driver/Src/stm32l4xx_hal_flash_ex.c ****   {
 961              		.loc 1 1012 5 is_stmt 0 view .LVU308
 962 0010 68BB     		cbnz	r0, .L75
1019:../Drivers/STM32L4xx_HAL_Driver/Src/stm32l4xx_hal_flash_ex.c ****     {
 963              		.loc 1 1019 5 is_stmt 1 view .LVU309
1019:../Drivers/STM32L4xx_HAL_Driver/Src/stm32l4xx_hal_flash_ex.c ****     {
 964              		.loc 1 1019 9 is_stmt 0 view .LVU310
 965 0012 334B     		ldr	r3, .L85
 966 0014 1B68     		ldr	r3, [r3]
1019:../Drivers/STM32L4xx_HAL_Driver/Src/stm32l4xx_hal_flash_ex.c ****     {
 967              		.loc 1 1019 8 view .LVU311
 968 0016 13F4807F 		tst	r3, #256
 969 001a 29D1     		bne	.L76
1021:../Drivers/STM32L4xx_HAL_Driver/Src/stm32l4xx_hal_flash_ex.c ****       bank2_addr = FLASH_BASE + FLASH_BANK_SIZE;
 970              		.loc 1 1021 7 is_stmt 1 view .LVU312
 971              	.LVL82:
1022:../Drivers/STM32L4xx_HAL_Driver/Src/stm32l4xx_hal_flash_ex.c ****     }
 972              		.loc 1 1022 7 view .LVU313
1022:../Drivers/STM32L4xx_HAL_Driver/Src/stm32l4xx_hal_flash_ex.c ****     }
 973              		.loc 1 1022 33 is_stmt 0 view .LVU314
 974 001c 314B     		ldr	r3, .L85+4
 975 001e D3F8E035 		ldr	r3, [r3, #1504]
 976 0022 99B2     		uxth	r1, r3
1022:../Drivers/STM32L4xx_HAL_Driver/Src/stm32l4xx_hal_flash_ex.c ****     }
 977              		.loc 1 1022 31 view .LVU315
 978 0024 4FF6FF72 		movw	r2, #65535
 979 0028 9142     		cmp	r1, r2
 980 002a 31D0     		beq	.L80
1022:../Drivers/STM32L4xx_HAL_Driver/Src/stm32l4xx_hal_flash_ex.c ****     }
 981              		.loc 1 1022 33 discriminator 1 view .LVU316
 982 002c 2E4A     		ldr	r2, .L85+8
 983 002e 02EA4322 		and	r2, r2, r3, lsl #9
1022:../Drivers/STM32L4xx_HAL_Driver/Src/stm32l4xx_hal_flash_ex.c ****     }
 984              		.loc 1 1022 31 discriminator 1 view .LVU317
 985 0032 02F10062 		add	r2, r2, #134217728
1021:../Drivers/STM32L4xx_HAL_Driver/Src/stm32l4xx_hal_flash_ex.c ****       bank2_addr = FLASH_BASE + FLASH_BANK_SIZE;
 986              		.loc 1 1021 18 discriminator 1 view .LVU318
 987 0036 4FF00063 		mov	r3, #134217728
 988              	.LVL83:
 989              	.L77:
1062:../Drivers/STM32L4xx_HAL_Driver/Src/stm32l4xx_hal_flash_ex.c ****       {
 990              		.loc 1 1062 7 is_stmt 1 view .LVU319
1062:../Drivers/STM32L4xx_HAL_Driver/Src/stm32l4xx_hal_flash_ex.c ****       {
 991              		.loc 1 1062 23 is_stmt 0 view .LVU320
 992 003a 04F00301 		and	r1, r4, #3
1062:../Drivers/STM32L4xx_HAL_Driver/Src/stm32l4xx_hal_flash_ex.c ****       {
 993              		.loc 1 1062 9 view .LVU321
 994 003e 0129     		cmp	r1, #1
ARM GAS  Build/stm32l4xx_hal_flash_ex.s 			page 45


 995 0040 2ED0     		beq	.L83
1074:../Drivers/STM32L4xx_HAL_Driver/Src/stm32l4xx_hal_flash_ex.c ****       {
 996              		.loc 1 1074 12 is_stmt 1 view .LVU322
1074:../Drivers/STM32L4xx_HAL_Driver/Src/stm32l4xx_hal_flash_ex.c ****       {
 997              		.loc 1 1074 14 is_stmt 0 view .LVU323
 998 0042 0229     		cmp	r1, #2
 999 0044 3CD0     		beq	.L84
 1000              	.LVL84:
 1001              	.L79:
1086:../Drivers/STM32L4xx_HAL_Driver/Src/stm32l4xx_hal_flash_ex.c ****     }
 1002              		.loc 1 1086 7 is_stmt 1 view .LVU324
1089:../Drivers/STM32L4xx_HAL_Driver/Src/stm32l4xx_hal_flash_ex.c **** 
 1003              		.loc 1 1089 5 view .LVU325
 1004 0046 294D     		ldr	r5, .L85+12
 1005              	.LVL85:
1089:../Drivers/STM32L4xx_HAL_Driver/Src/stm32l4xx_hal_flash_ex.c **** 
 1006              		.loc 1 1089 5 is_stmt 0 view .LVU326
 1007 0048 AB6A     		ldr	r3, [r5, #40]
 1008 004a 23F00043 		bic	r3, r3, #-2147483648
 1009 004e 04F00044 		and	r4, r4, #-2147483648
 1010              	.LVL86:
1089:../Drivers/STM32L4xx_HAL_Driver/Src/stm32l4xx_hal_flash_ex.c **** 
 1011              		.loc 1 1089 5 view .LVU327
 1012 0052 1C43     		orrs	r4, r4, r3
 1013 0054 AC62     		str	r4, [r5, #40]
1092:../Drivers/STM32L4xx_HAL_Driver/Src/stm32l4xx_hal_flash_ex.c **** 
 1014              		.loc 1 1092 5 is_stmt 1 view .LVU328
 1015 0056 6B69     		ldr	r3, [r5, #20]
 1016 0058 43F40033 		orr	r3, r3, #131072
 1017 005c 6B61     		str	r3, [r5, #20]
1095:../Drivers/STM32L4xx_HAL_Driver/Src/stm32l4xx_hal_flash_ex.c **** 
 1018              		.loc 1 1095 5 view .LVU329
1095:../Drivers/STM32L4xx_HAL_Driver/Src/stm32l4xx_hal_flash_ex.c **** 
 1019              		.loc 1 1095 14 is_stmt 0 view .LVU330
 1020 005e 4CF25030 		movw	r0, #50000
 1021 0062 FFF7FEFF 		bl	FLASH_WaitForLastOperation
 1022              	.LVL87:
1098:../Drivers/STM32L4xx_HAL_Driver/Src/stm32l4xx_hal_flash_ex.c ****   }
 1023              		.loc 1 1098 5 is_stmt 1 view .LVU331
 1024 0066 6B69     		ldr	r3, [r5, #20]
 1025 0068 23F40033 		bic	r3, r3, #131072
 1026 006c 6B61     		str	r3, [r5, #20]
 1027              	.LVL88:
 1028              	.L75:
1101:../Drivers/STM32L4xx_HAL_Driver/Src/stm32l4xx_hal_flash_ex.c **** }
 1029              		.loc 1 1101 3 view .LVU332
1102:../Drivers/STM32L4xx_HAL_Driver/Src/stm32l4xx_hal_flash_ex.c **** 
 1030              		.loc 1 1102 1 is_stmt 0 view .LVU333
 1031 006e 70BD     		pop	{r4, r5, r6, pc}
 1032              	.LVL89:
 1033              	.L76:
1026:../Drivers/STM32L4xx_HAL_Driver/Src/stm32l4xx_hal_flash_ex.c ****       bank2_addr = FLASH_BASE;
 1034              		.loc 1 1026 7 is_stmt 1 view .LVU334
1026:../Drivers/STM32L4xx_HAL_Driver/Src/stm32l4xx_hal_flash_ex.c ****       bank2_addr = FLASH_BASE;
 1035              		.loc 1 1026 33 is_stmt 0 view .LVU335
 1036 0070 1C4B     		ldr	r3, .L85+4
 1037 0072 D3F8E025 		ldr	r2, [r3, #1504]
ARM GAS  Build/stm32l4xx_hal_flash_ex.s 			page 46


 1038 0076 91B2     		uxth	r1, r2
1026:../Drivers/STM32L4xx_HAL_Driver/Src/stm32l4xx_hal_flash_ex.c ****       bank2_addr = FLASH_BASE;
 1039              		.loc 1 1026 31 view .LVU336
 1040 0078 4FF6FF73 		movw	r3, #65535
 1041 007c 9942     		cmp	r1, r3
 1042 007e 0BD0     		beq	.L81
1026:../Drivers/STM32L4xx_HAL_Driver/Src/stm32l4xx_hal_flash_ex.c ****       bank2_addr = FLASH_BASE;
 1043              		.loc 1 1026 33 discriminator 1 view .LVU337
 1044 0080 194B     		ldr	r3, .L85+8
 1045 0082 03EA4223 		and	r3, r3, r2, lsl #9
1026:../Drivers/STM32L4xx_HAL_Driver/Src/stm32l4xx_hal_flash_ex.c ****       bank2_addr = FLASH_BASE;
 1046              		.loc 1 1026 31 discriminator 1 view .LVU338
 1047 0086 03F10063 		add	r3, r3, #134217728
1027:../Drivers/STM32L4xx_HAL_Driver/Src/stm32l4xx_hal_flash_ex.c ****     }
 1048              		.loc 1 1027 18 discriminator 1 view .LVU339
 1049 008a 4FF00062 		mov	r2, #134217728
 1050 008e D4E7     		b	.L77
 1051              	.LVL90:
 1052              	.L80:
1022:../Drivers/STM32L4xx_HAL_Driver/Src/stm32l4xx_hal_flash_ex.c ****     }
 1053              		.loc 1 1022 31 view .LVU340
 1054 0090 174A     		ldr	r2, .L85+16
1021:../Drivers/STM32L4xx_HAL_Driver/Src/stm32l4xx_hal_flash_ex.c ****       bank2_addr = FLASH_BASE + FLASH_BANK_SIZE;
 1055              		.loc 1 1021 18 view .LVU341
 1056 0092 4FF00063 		mov	r3, #134217728
 1057 0096 D0E7     		b	.L77
 1058              	.LVL91:
 1059              	.L81:
1027:../Drivers/STM32L4xx_HAL_Driver/Src/stm32l4xx_hal_flash_ex.c ****     }
 1060              		.loc 1 1027 18 view .LVU342
 1061 0098 4FF00062 		mov	r2, #134217728
1026:../Drivers/STM32L4xx_HAL_Driver/Src/stm32l4xx_hal_flash_ex.c ****       bank2_addr = FLASH_BASE;
 1062              		.loc 1 1026 31 view .LVU343
 1063 009c 144B     		ldr	r3, .L85+16
 1064 009e CCE7     		b	.L77
 1065              	.LVL92:
 1066              	.L83:
1064:../Drivers/STM32L4xx_HAL_Driver/Src/stm32l4xx_hal_flash_ex.c ****         MODIFY_REG(FLASH->PCROP1SR, FLASH_PCROP1SR_PCROP1_STRT, reg_value);
 1067              		.loc 1 1064 9 is_stmt 1 view .LVU344
1064:../Drivers/STM32L4xx_HAL_Driver/Src/stm32l4xx_hal_flash_ex.c ****         MODIFY_REG(FLASH->PCROP1SR, FLASH_PCROP1SR_PCROP1_STRT, reg_value);
 1068              		.loc 1 1064 38 is_stmt 0 view .LVU345
 1069 00a0 F11A     		subs	r1, r6, r3
 1070              	.LVL93:
1065:../Drivers/STM32L4xx_HAL_Driver/Src/stm32l4xx_hal_flash_ex.c **** 
 1071              		.loc 1 1065 9 is_stmt 1 view .LVU346
 1072 00a2 1248     		ldr	r0, .L85+12
 1073 00a4 426A     		ldr	r2, [r0, #36]
 1074              	.LVL94:
1065:../Drivers/STM32L4xx_HAL_Driver/Src/stm32l4xx_hal_flash_ex.c **** 
 1075              		.loc 1 1065 9 is_stmt 0 view .LVU347
 1076 00a6 120C     		lsrs	r2, r2, #16
 1077 00a8 1204     		lsls	r2, r2, #16
 1078 00aa 42EAD102 		orr	r2, r2, r1, lsr #3
 1079 00ae 4262     		str	r2, [r0, #36]
1067:../Drivers/STM32L4xx_HAL_Driver/Src/stm32l4xx_hal_flash_ex.c ****         MODIFY_REG(FLASH->PCROP1ER, FLASH_PCROP1ER_PCROP1_END, reg_value);
 1080              		.loc 1 1067 9 is_stmt 1 view .LVU348
1067:../Drivers/STM32L4xx_HAL_Driver/Src/stm32l4xx_hal_flash_ex.c ****         MODIFY_REG(FLASH->PCROP1ER, FLASH_PCROP1ER_PCROP1_END, reg_value);
ARM GAS  Build/stm32l4xx_hal_flash_ex.s 			page 47


 1081              		.loc 1 1067 36 is_stmt 0 view .LVU349
 1082 00b0 EB1A     		subs	r3, r5, r3
 1083              	.LVL95:
1068:../Drivers/STM32L4xx_HAL_Driver/Src/stm32l4xx_hal_flash_ex.c ****       }
 1084              		.loc 1 1068 9 is_stmt 1 view .LVU350
 1085 00b2 826A     		ldr	r2, [r0, #40]
 1086 00b4 120C     		lsrs	r2, r2, #16
 1087 00b6 1204     		lsls	r2, r2, #16
 1088 00b8 42EAD302 		orr	r2, r2, r3, lsr #3
 1089 00bc 8262     		str	r2, [r0, #40]
 1090 00be C2E7     		b	.L79
 1091              	.LVL96:
 1092              	.L84:
1076:../Drivers/STM32L4xx_HAL_Driver/Src/stm32l4xx_hal_flash_ex.c ****         MODIFY_REG(FLASH->PCROP2SR, FLASH_PCROP2SR_PCROP2_STRT, reg_value);
 1093              		.loc 1 1076 9 view .LVU351
1076:../Drivers/STM32L4xx_HAL_Driver/Src/stm32l4xx_hal_flash_ex.c ****         MODIFY_REG(FLASH->PCROP2SR, FLASH_PCROP2SR_PCROP2_STRT, reg_value);
 1094              		.loc 1 1076 38 is_stmt 0 view .LVU352
 1095 00c0 B11A     		subs	r1, r6, r2
 1096              	.LVL97:
1077:../Drivers/STM32L4xx_HAL_Driver/Src/stm32l4xx_hal_flash_ex.c **** 
 1097              		.loc 1 1077 9 is_stmt 1 view .LVU353
 1098 00c2 0A48     		ldr	r0, .L85+12
 1099 00c4 436C     		ldr	r3, [r0, #68]
 1100              	.LVL98:
1077:../Drivers/STM32L4xx_HAL_Driver/Src/stm32l4xx_hal_flash_ex.c **** 
 1101              		.loc 1 1077 9 is_stmt 0 view .LVU354
 1102 00c6 1B0C     		lsrs	r3, r3, #16
 1103 00c8 1B04     		lsls	r3, r3, #16
 1104 00ca 43EAD103 		orr	r3, r3, r1, lsr #3
 1105 00ce 4364     		str	r3, [r0, #68]
1079:../Drivers/STM32L4xx_HAL_Driver/Src/stm32l4xx_hal_flash_ex.c ****         MODIFY_REG(FLASH->PCROP2ER, FLASH_PCROP2ER_PCROP2_END, reg_value);
 1106              		.loc 1 1079 9 is_stmt 1 view .LVU355
1079:../Drivers/STM32L4xx_HAL_Driver/Src/stm32l4xx_hal_flash_ex.c ****         MODIFY_REG(FLASH->PCROP2ER, FLASH_PCROP2ER_PCROP2_END, reg_value);
 1107              		.loc 1 1079 36 is_stmt 0 view .LVU356
 1108 00d0 AA1A     		subs	r2, r5, r2
 1109              	.LVL99:
1080:../Drivers/STM32L4xx_HAL_Driver/Src/stm32l4xx_hal_flash_ex.c ****       }
 1110              		.loc 1 1080 9 is_stmt 1 view .LVU357
 1111 00d2 836C     		ldr	r3, [r0, #72]
 1112 00d4 1B0C     		lsrs	r3, r3, #16
 1113 00d6 1B04     		lsls	r3, r3, #16
 1114 00d8 43EAD203 		orr	r3, r3, r2, lsr #3
 1115 00dc 8364     		str	r3, [r0, #72]
 1116 00de B2E7     		b	.L79
 1117              	.L86:
 1118              		.align	2
 1119              	.L85:
 1120 00e0 00000140 		.word	1073807360
 1121 00e4 0070FF1F 		.word	536834048
 1122 00e8 00FEFF01 		.word	33553920
 1123 00ec 00200240 		.word	1073881088
 1124 00f0 00000808 		.word	134742016
 1125              		.cfi_endproc
 1126              	.LFE84:
 1128              		.section	.text.HAL_FLASHEx_OBProgram,"ax",%progbits
 1129              		.align	1
 1130              		.global	HAL_FLASHEx_OBProgram
ARM GAS  Build/stm32l4xx_hal_flash_ex.s 			page 48


 1131              		.syntax unified
 1132              		.thumb
 1133              		.thumb_func
 1135              	HAL_FLASHEx_OBProgram:
 1136              	.LVL100:
 1137              	.LFB76:
 298:../Drivers/STM32L4xx_HAL_Driver/Src/stm32l4xx_hal_flash_ex.c ****   HAL_StatusTypeDef status = HAL_OK;
 1138              		.loc 1 298 1 view -0
 1139              		.cfi_startproc
 1140              		@ args = 0, pretend = 0, frame = 0
 1141              		@ frame_needed = 0, uses_anonymous_args = 0
 298:../Drivers/STM32L4xx_HAL_Driver/Src/stm32l4xx_hal_flash_ex.c ****   HAL_StatusTypeDef status = HAL_OK;
 1142              		.loc 1 298 1 is_stmt 0 view .LVU359
 1143 0000 38B5     		push	{r3, r4, r5, lr}
 1144              	.LCFI7:
 1145              		.cfi_def_cfa_offset 16
 1146              		.cfi_offset 3, -16
 1147              		.cfi_offset 4, -12
 1148              		.cfi_offset 5, -8
 1149              		.cfi_offset 14, -4
 299:../Drivers/STM32L4xx_HAL_Driver/Src/stm32l4xx_hal_flash_ex.c **** 
 1150              		.loc 1 299 3 is_stmt 1 view .LVU360
 1151              	.LVL101:
 302:../Drivers/STM32L4xx_HAL_Driver/Src/stm32l4xx_hal_flash_ex.c **** 
 1152              		.loc 1 302 3 view .LVU361
 302:../Drivers/STM32L4xx_HAL_Driver/Src/stm32l4xx_hal_flash_ex.c **** 
 1153              		.loc 1 302 3 view .LVU362
 1154 0002 234B     		ldr	r3, .L104
 1155 0004 1B78     		ldrb	r3, [r3]	@ zero_extendqisi2
 1156 0006 012B     		cmp	r3, #1
 1157 0008 3FD0     		beq	.L93
 1158 000a 0446     		mov	r4, r0
 302:../Drivers/STM32L4xx_HAL_Driver/Src/stm32l4xx_hal_flash_ex.c **** 
 1159              		.loc 1 302 3 discriminator 2 view .LVU363
 1160 000c 204B     		ldr	r3, .L104
 1161 000e 0122     		movs	r2, #1
 1162 0010 1A70     		strb	r2, [r3]
 302:../Drivers/STM32L4xx_HAL_Driver/Src/stm32l4xx_hal_flash_ex.c **** 
 1163              		.loc 1 302 3 discriminator 2 view .LVU364
 305:../Drivers/STM32L4xx_HAL_Driver/Src/stm32l4xx_hal_flash_ex.c **** 
 1164              		.loc 1 305 3 discriminator 2 view .LVU365
 307:../Drivers/STM32L4xx_HAL_Driver/Src/stm32l4xx_hal_flash_ex.c **** 
 1165              		.loc 1 307 3 discriminator 2 view .LVU366
 307:../Drivers/STM32L4xx_HAL_Driver/Src/stm32l4xx_hal_flash_ex.c **** 
 1166              		.loc 1 307 20 is_stmt 0 discriminator 2 view .LVU367
 1167 0012 0022     		movs	r2, #0
 1168 0014 5A60     		str	r2, [r3, #4]
 310:../Drivers/STM32L4xx_HAL_Driver/Src/stm32l4xx_hal_flash_ex.c ****   {
 1169              		.loc 1 310 3 is_stmt 1 discriminator 2 view .LVU368
 310:../Drivers/STM32L4xx_HAL_Driver/Src/stm32l4xx_hal_flash_ex.c ****   {
 1170              		.loc 1 310 14 is_stmt 0 discriminator 2 view .LVU369
 1171 0016 0368     		ldr	r3, [r0]
 310:../Drivers/STM32L4xx_HAL_Driver/Src/stm32l4xx_hal_flash_ex.c ****   {
 1172              		.loc 1 310 5 discriminator 2 view .LVU370
 1173 0018 13F0010F 		tst	r3, #1
 1174 001c 15D1     		bne	.L100
 299:../Drivers/STM32L4xx_HAL_Driver/Src/stm32l4xx_hal_flash_ex.c **** 
ARM GAS  Build/stm32l4xx_hal_flash_ex.s 			page 49


 1175              		.loc 1 299 21 view .LVU371
 1176 001e 0025     		movs	r5, #0
 1177              	.LVL102:
 1178              	.L89:
 321:../Drivers/STM32L4xx_HAL_Driver/Src/stm32l4xx_hal_flash_ex.c ****   {
 1179              		.loc 1 321 3 is_stmt 1 view .LVU372
 321:../Drivers/STM32L4xx_HAL_Driver/Src/stm32l4xx_hal_flash_ex.c ****   {
 1180              		.loc 1 321 14 is_stmt 0 view .LVU373
 1181 0020 2368     		ldr	r3, [r4]
 321:../Drivers/STM32L4xx_HAL_Driver/Src/stm32l4xx_hal_flash_ex.c ****   {
 1182              		.loc 1 321 5 view .LVU374
 1183 0022 13F0020F 		tst	r3, #2
 1184 0026 1AD1     		bne	.L101
 1185              	.LVL103:
 1186              	.L90:
 331:../Drivers/STM32L4xx_HAL_Driver/Src/stm32l4xx_hal_flash_ex.c ****   {
 1187              		.loc 1 331 3 is_stmt 1 view .LVU375
 331:../Drivers/STM32L4xx_HAL_Driver/Src/stm32l4xx_hal_flash_ex.c ****   {
 1188              		.loc 1 331 14 is_stmt 0 view .LVU376
 1189 0028 2368     		ldr	r3, [r4]
 331:../Drivers/STM32L4xx_HAL_Driver/Src/stm32l4xx_hal_flash_ex.c ****   {
 1190              		.loc 1 331 5 view .LVU377
 1191 002a 13F0040F 		tst	r3, #4
 1192 002e 1DD1     		bne	.L102
 1193              	.LVL104:
 1194              	.L91:
 341:../Drivers/STM32L4xx_HAL_Driver/Src/stm32l4xx_hal_flash_ex.c ****   {
 1195              		.loc 1 341 3 is_stmt 1 view .LVU378
 341:../Drivers/STM32L4xx_HAL_Driver/Src/stm32l4xx_hal_flash_ex.c ****   {
 1196              		.loc 1 341 14 is_stmt 0 view .LVU379
 1197 0030 2368     		ldr	r3, [r4]
 341:../Drivers/STM32L4xx_HAL_Driver/Src/stm32l4xx_hal_flash_ex.c ****   {
 1198              		.loc 1 341 5 view .LVU380
 1199 0032 13F0080F 		tst	r3, #8
 1200 0036 03D0     		beq	.L92
 343:../Drivers/STM32L4xx_HAL_Driver/Src/stm32l4xx_hal_flash_ex.c ****     {
 1201              		.loc 1 343 5 is_stmt 1 view .LVU381
 343:../Drivers/STM32L4xx_HAL_Driver/Src/stm32l4xx_hal_flash_ex.c ****     {
 1202              		.loc 1 343 16 is_stmt 0 view .LVU382
 1203 0038 216A     		ldr	r1, [r4, #32]
 343:../Drivers/STM32L4xx_HAL_Driver/Src/stm32l4xx_hal_flash_ex.c ****     {
 1204              		.loc 1 343 43 view .LVU383
 1205 003a 626A     		ldr	r2, [r4, #36]
 343:../Drivers/STM32L4xx_HAL_Driver/Src/stm32l4xx_hal_flash_ex.c ****     {
 1206              		.loc 1 343 8 view .LVU384
 1207 003c 9142     		cmp	r1, r2
 1208 003e 1DD1     		bne	.L103
 1209              	.LVL105:
 1210              	.L92:
 354:../Drivers/STM32L4xx_HAL_Driver/Src/stm32l4xx_hal_flash_ex.c **** 
 1211              		.loc 1 354 3 is_stmt 1 view .LVU385
 354:../Drivers/STM32L4xx_HAL_Driver/Src/stm32l4xx_hal_flash_ex.c **** 
 1212              		.loc 1 354 3 view .LVU386
 1213 0040 134B     		ldr	r3, .L104
 1214 0042 0022     		movs	r2, #0
 1215 0044 1A70     		strb	r2, [r3]
 354:../Drivers/STM32L4xx_HAL_Driver/Src/stm32l4xx_hal_flash_ex.c **** 
ARM GAS  Build/stm32l4xx_hal_flash_ex.s 			page 50


 1216              		.loc 1 354 3 view .LVU387
 356:../Drivers/STM32L4xx_HAL_Driver/Src/stm32l4xx_hal_flash_ex.c **** }
 1217              		.loc 1 356 3 view .LVU388
 1218              	.LVL106:
 1219              	.L88:
 357:../Drivers/STM32L4xx_HAL_Driver/Src/stm32l4xx_hal_flash_ex.c **** 
 1220              		.loc 1 357 1 is_stmt 0 view .LVU389
 1221 0046 2846     		mov	r0, r5
 1222 0048 38BD     		pop	{r3, r4, r5, pc}
 1223              	.LVL107:
 1224              	.L100:
 313:../Drivers/STM32L4xx_HAL_Driver/Src/stm32l4xx_hal_flash_ex.c ****     {
 1225              		.loc 1 313 5 is_stmt 1 view .LVU390
 313:../Drivers/STM32L4xx_HAL_Driver/Src/stm32l4xx_hal_flash_ex.c ****     {
 1226              		.loc 1 313 8 is_stmt 0 view .LVU391
 1227 004a C268     		ldr	r2, [r0, #12]
 1228 004c 8168     		ldr	r1, [r0, #8]
 1229 004e 4068     		ldr	r0, [r0, #4]
 1230              	.LVL108:
 313:../Drivers/STM32L4xx_HAL_Driver/Src/stm32l4xx_hal_flash_ex.c ****     {
 1231              		.loc 1 313 8 view .LVU392
 1232 0050 FFF7FEFF 		bl	FLASH_OB_WRPConfig
 1233              	.LVL109:
 313:../Drivers/STM32L4xx_HAL_Driver/Src/stm32l4xx_hal_flash_ex.c ****     {
 1234              		.loc 1 313 7 view .LVU393
 1235 0054 0546     		mov	r5, r0
 1236 0056 0028     		cmp	r0, #0
 1237 0058 E2D0     		beq	.L89
 315:../Drivers/STM32L4xx_HAL_Driver/Src/stm32l4xx_hal_flash_ex.c ****     }
 1238              		.loc 1 315 14 view .LVU394
 1239 005a 0125     		movs	r5, #1
 1240 005c E0E7     		b	.L89
 1241              	.LVL110:
 1242              	.L101:
 324:../Drivers/STM32L4xx_HAL_Driver/Src/stm32l4xx_hal_flash_ex.c ****     {
 1243              		.loc 1 324 5 is_stmt 1 view .LVU395
 324:../Drivers/STM32L4xx_HAL_Driver/Src/stm32l4xx_hal_flash_ex.c ****     {
 1244              		.loc 1 324 8 is_stmt 0 view .LVU396
 1245 005e 2069     		ldr	r0, [r4, #16]
 1246 0060 FFF7FEFF 		bl	FLASH_OB_RDPConfig
 1247              	.LVL111:
 324:../Drivers/STM32L4xx_HAL_Driver/Src/stm32l4xx_hal_flash_ex.c ****     {
 1248              		.loc 1 324 7 view .LVU397
 1249 0064 0028     		cmp	r0, #0
 1250 0066 DFD0     		beq	.L90
 326:../Drivers/STM32L4xx_HAL_Driver/Src/stm32l4xx_hal_flash_ex.c ****     }
 1251              		.loc 1 326 14 view .LVU398
 1252 0068 0125     		movs	r5, #1
 1253              	.LVL112:
 326:../Drivers/STM32L4xx_HAL_Driver/Src/stm32l4xx_hal_flash_ex.c ****     }
 1254              		.loc 1 326 14 view .LVU399
 1255 006a DDE7     		b	.L90
 1256              	.LVL113:
 1257              	.L102:
 334:../Drivers/STM32L4xx_HAL_Driver/Src/stm32l4xx_hal_flash_ex.c ****     {
 1258              		.loc 1 334 5 is_stmt 1 view .LVU400
 334:../Drivers/STM32L4xx_HAL_Driver/Src/stm32l4xx_hal_flash_ex.c ****     {
ARM GAS  Build/stm32l4xx_hal_flash_ex.s 			page 51


 1259              		.loc 1 334 8 is_stmt 0 view .LVU401
 1260 006c A169     		ldr	r1, [r4, #24]
 1261 006e 6069     		ldr	r0, [r4, #20]
 1262 0070 FFF7FEFF 		bl	FLASH_OB_UserConfig
 1263              	.LVL114:
 334:../Drivers/STM32L4xx_HAL_Driver/Src/stm32l4xx_hal_flash_ex.c ****     {
 1264              		.loc 1 334 7 view .LVU402
 1265 0074 0028     		cmp	r0, #0
 1266 0076 DBD0     		beq	.L91
 336:../Drivers/STM32L4xx_HAL_Driver/Src/stm32l4xx_hal_flash_ex.c ****     }
 1267              		.loc 1 336 14 view .LVU403
 1268 0078 0125     		movs	r5, #1
 1269              	.LVL115:
 336:../Drivers/STM32L4xx_HAL_Driver/Src/stm32l4xx_hal_flash_ex.c ****     }
 1270              		.loc 1 336 14 view .LVU404
 1271 007a D9E7     		b	.L91
 1272              	.LVL116:
 1273              	.L103:
 346:../Drivers/STM32L4xx_HAL_Driver/Src/stm32l4xx_hal_flash_ex.c ****       {
 1274              		.loc 1 346 7 is_stmt 1 view .LVU405
 346:../Drivers/STM32L4xx_HAL_Driver/Src/stm32l4xx_hal_flash_ex.c ****       {
 1275              		.loc 1 346 10 is_stmt 0 view .LVU406
 1276 007c E069     		ldr	r0, [r4, #28]
 1277 007e FFF7FEFF 		bl	FLASH_OB_PCROPConfig
 1278              	.LVL117:
 346:../Drivers/STM32L4xx_HAL_Driver/Src/stm32l4xx_hal_flash_ex.c ****       {
 1279              		.loc 1 346 9 view .LVU407
 1280 0082 0028     		cmp	r0, #0
 1281 0084 DCD0     		beq	.L92
 348:../Drivers/STM32L4xx_HAL_Driver/Src/stm32l4xx_hal_flash_ex.c ****       }
 1282              		.loc 1 348 16 view .LVU408
 1283 0086 0125     		movs	r5, #1
 1284              	.LVL118:
 348:../Drivers/STM32L4xx_HAL_Driver/Src/stm32l4xx_hal_flash_ex.c ****       }
 1285              		.loc 1 348 16 view .LVU409
 1286 0088 DAE7     		b	.L92
 1287              	.LVL119:
 1288              	.L93:
 302:../Drivers/STM32L4xx_HAL_Driver/Src/stm32l4xx_hal_flash_ex.c **** 
 1289              		.loc 1 302 3 view .LVU410
 1290 008a 0225     		movs	r5, #2
 1291 008c DBE7     		b	.L88
 1292              	.L105:
 1293 008e 00BF     		.align	2
 1294              	.L104:
 1295 0090 00000000 		.word	pFlash
 1296              		.cfi_endproc
 1297              	.LFE76:
 1299              		.section	.text.HAL_FLASHEx_OBGetConfig,"ax",%progbits
 1300              		.align	1
 1301              		.global	HAL_FLASHEx_OBGetConfig
 1302              		.syntax unified
 1303              		.thumb
 1304              		.thumb_func
 1306              	HAL_FLASHEx_OBGetConfig:
 1307              	.LVL120:
 1308              	.LFB77:
ARM GAS  Build/stm32l4xx_hal_flash_ex.s 			page 52


 369:../Drivers/STM32L4xx_HAL_Driver/Src/stm32l4xx_hal_flash_ex.c ****   pOBInit->OptionType = (OPTIONBYTE_RDP | OPTIONBYTE_USER);
 1309              		.loc 1 369 1 is_stmt 1 view -0
 1310              		.cfi_startproc
 1311              		@ args = 0, pretend = 0, frame = 0
 1312              		@ frame_needed = 0, uses_anonymous_args = 0
 369:../Drivers/STM32L4xx_HAL_Driver/Src/stm32l4xx_hal_flash_ex.c ****   pOBInit->OptionType = (OPTIONBYTE_RDP | OPTIONBYTE_USER);
 1313              		.loc 1 369 1 is_stmt 0 view .LVU412
 1314 0000 10B5     		push	{r4, lr}
 1315              	.LCFI8:
 1316              		.cfi_def_cfa_offset 8
 1317              		.cfi_offset 4, -8
 1318              		.cfi_offset 14, -4
 1319 0002 0446     		mov	r4, r0
 370:../Drivers/STM32L4xx_HAL_Driver/Src/stm32l4xx_hal_flash_ex.c **** 
 1320              		.loc 1 370 3 is_stmt 1 view .LVU413
 370:../Drivers/STM32L4xx_HAL_Driver/Src/stm32l4xx_hal_flash_ex.c **** 
 1321              		.loc 1 370 23 is_stmt 0 view .LVU414
 1322 0004 0623     		movs	r3, #6
 1323 0006 0360     		str	r3, [r0]
 376:../Drivers/STM32L4xx_HAL_Driver/Src/stm32l4xx_hal_flash_ex.c ****      (pOBInit->WRPArea == OB_WRPAREA_BANK2_AREAA) || (pOBInit->WRPArea == OB_WRPAREA_BANK2_AREAB))
 1324              		.loc 1 376 3 is_stmt 1 view .LVU415
 376:../Drivers/STM32L4xx_HAL_Driver/Src/stm32l4xx_hal_flash_ex.c ****      (pOBInit->WRPArea == OB_WRPAREA_BANK2_AREAA) || (pOBInit->WRPArea == OB_WRPAREA_BANK2_AREAB))
 1325              		.loc 1 376 14 is_stmt 0 view .LVU416
 1326 0008 4068     		ldr	r0, [r0, #4]
 1327              	.LVL121:
 376:../Drivers/STM32L4xx_HAL_Driver/Src/stm32l4xx_hal_flash_ex.c ****      (pOBInit->WRPArea == OB_WRPAREA_BANK2_AREAA) || (pOBInit->WRPArea == OB_WRPAREA_BANK2_AREAB))
 1328              		.loc 1 376 5 view .LVU417
 1329 000a 0228     		cmp	r0, #2
 1330 000c 01D9     		bls	.L107
 377:../Drivers/STM32L4xx_HAL_Driver/Src/stm32l4xx_hal_flash_ex.c **** #else
 1331              		.loc 1 377 51 view .LVU418
 1332 000e 0428     		cmp	r0, #4
 1333 0010 07D1     		bne	.L108
 1334              	.L107:
 382:../Drivers/STM32L4xx_HAL_Driver/Src/stm32l4xx_hal_flash_ex.c ****     /* Get write protection on the selected area */
 1335              		.loc 1 382 5 is_stmt 1 view .LVU419
 382:../Drivers/STM32L4xx_HAL_Driver/Src/stm32l4xx_hal_flash_ex.c ****     /* Get write protection on the selected area */
 1336              		.loc 1 382 25 is_stmt 0 view .LVU420
 1337 0012 2246     		mov	r2, r4
 1338 0014 0723     		movs	r3, #7
 1339 0016 42F80C3B 		str	r3, [r2], #12
 384:../Drivers/STM32L4xx_HAL_Driver/Src/stm32l4xx_hal_flash_ex.c ****   }
 1340              		.loc 1 384 5 is_stmt 1 view .LVU421
 1341 001a 04F10801 		add	r1, r4, #8
 1342 001e FFF7FEFF 		bl	FLASH_OB_GetWRP
 1343              	.LVL122:
 1344              	.L108:
 388:../Drivers/STM32L4xx_HAL_Driver/Src/stm32l4xx_hal_flash_ex.c **** 
 1345              		.loc 1 388 3 view .LVU422
 388:../Drivers/STM32L4xx_HAL_Driver/Src/stm32l4xx_hal_flash_ex.c **** 
 1346              		.loc 1 388 23 is_stmt 0 view .LVU423
 1347 0022 FFF7FEFF 		bl	FLASH_OB_GetRDP
 1348              	.LVL123:
 388:../Drivers/STM32L4xx_HAL_Driver/Src/stm32l4xx_hal_flash_ex.c **** 
 1349              		.loc 1 388 21 view .LVU424
 1350 0026 2061     		str	r0, [r4, #16]
 391:../Drivers/STM32L4xx_HAL_Driver/Src/stm32l4xx_hal_flash_ex.c **** 
ARM GAS  Build/stm32l4xx_hal_flash_ex.s 			page 53


 1351              		.loc 1 391 3 is_stmt 1 view .LVU425
 391:../Drivers/STM32L4xx_HAL_Driver/Src/stm32l4xx_hal_flash_ex.c **** 
 1352              		.loc 1 391 25 is_stmt 0 view .LVU426
 1353 0028 FFF7FEFF 		bl	FLASH_OB_GetUser
 1354              	.LVL124:
 391:../Drivers/STM32L4xx_HAL_Driver/Src/stm32l4xx_hal_flash_ex.c **** 
 1355              		.loc 1 391 23 view .LVU427
 1356 002c A061     		str	r0, [r4, #24]
 397:../Drivers/STM32L4xx_HAL_Driver/Src/stm32l4xx_hal_flash_ex.c **** #else
 1357              		.loc 1 397 3 is_stmt 1 view .LVU428
 397:../Drivers/STM32L4xx_HAL_Driver/Src/stm32l4xx_hal_flash_ex.c **** #else
 1358              		.loc 1 397 14 is_stmt 0 view .LVU429
 1359 002e E369     		ldr	r3, [r4, #28]
 397:../Drivers/STM32L4xx_HAL_Driver/Src/stm32l4xx_hal_flash_ex.c **** #else
 1360              		.loc 1 397 45 view .LVU430
 1361 0030 013B     		subs	r3, r3, #1
 397:../Drivers/STM32L4xx_HAL_Driver/Src/stm32l4xx_hal_flash_ex.c **** #else
 1362              		.loc 1 397 5 view .LVU431
 1363 0032 012B     		cmp	r3, #1
 1364 0034 00D9     		bls	.L111
 1365              	.L106:
 406:../Drivers/STM32L4xx_HAL_Driver/Src/stm32l4xx_hal_flash_ex.c **** 
 1366              		.loc 1 406 1 view .LVU432
 1367 0036 10BD     		pop	{r4, pc}
 1368              	.LVL125:
 1369              	.L111:
 402:../Drivers/STM32L4xx_HAL_Driver/Src/stm32l4xx_hal_flash_ex.c ****     /* Get the Proprietary code readout protection */
 1370              		.loc 1 402 5 is_stmt 1 view .LVU433
 402:../Drivers/STM32L4xx_HAL_Driver/Src/stm32l4xx_hal_flash_ex.c ****     /* Get the Proprietary code readout protection */
 1371              		.loc 1 402 12 is_stmt 0 view .LVU434
 1372 0038 2368     		ldr	r3, [r4]
 402:../Drivers/STM32L4xx_HAL_Driver/Src/stm32l4xx_hal_flash_ex.c ****     /* Get the Proprietary code readout protection */
 1373              		.loc 1 402 25 view .LVU435
 1374 003a 43F00803 		orr	r3, r3, #8
 1375 003e 2246     		mov	r2, r4
 1376 0040 42F8243B 		str	r3, [r2], #36
 404:../Drivers/STM32L4xx_HAL_Driver/Src/stm32l4xx_hal_flash_ex.c ****   }
 1377              		.loc 1 404 5 is_stmt 1 view .LVU436
 1378 0044 04F12001 		add	r1, r4, #32
 1379 0048 04F11C00 		add	r0, r4, #28
 1380 004c FFF7FEFF 		bl	FLASH_OB_GetPCROP
 1381              	.LVL126:
 406:../Drivers/STM32L4xx_HAL_Driver/Src/stm32l4xx_hal_flash_ex.c **** 
 1382              		.loc 1 406 1 is_stmt 0 view .LVU437
 1383 0050 F1E7     		b	.L106
 1384              		.cfi_endproc
 1385              	.LFE77:
 1387              		.section	.text.FLASH_PageErase,"ax",%progbits
 1388              		.align	1
 1389              		.global	FLASH_PageErase
 1390              		.syntax unified
 1391              		.thumb
 1392              		.thumb_func
 1394              	FLASH_PageErase:
 1395              	.LVL127:
 1396              	.LFB79:
 552:../Drivers/STM32L4xx_HAL_Driver/Src/stm32l4xx_hal_flash_ex.c ****   /* Check the parameters */
ARM GAS  Build/stm32l4xx_hal_flash_ex.s 			page 54


 1397              		.loc 1 552 1 is_stmt 1 view -0
 1398              		.cfi_startproc
 1399              		@ args = 0, pretend = 0, frame = 0
 1400              		@ frame_needed = 0, uses_anonymous_args = 0
 1401              		@ link register save eliminated.
 554:../Drivers/STM32L4xx_HAL_Driver/Src/stm32l4xx_hal_flash_ex.c **** 
 1402              		.loc 1 554 3 view .LVU439
 568:../Drivers/STM32L4xx_HAL_Driver/Src/stm32l4xx_hal_flash_ex.c **** 
 1403              		.loc 1 568 5 view .LVU440
 570:../Drivers/STM32L4xx_HAL_Driver/Src/stm32l4xx_hal_flash_ex.c ****     {
 1404              		.loc 1 570 5 view .LVU441
 570:../Drivers/STM32L4xx_HAL_Driver/Src/stm32l4xx_hal_flash_ex.c ****     {
 1405              		.loc 1 570 7 is_stmt 0 view .LVU442
 1406 0000 11F0010F 		tst	r1, #1
 1407 0004 16D0     		beq	.L113
 572:../Drivers/STM32L4xx_HAL_Driver/Src/stm32l4xx_hal_flash_ex.c ****     }
 1408              		.loc 1 572 7 is_stmt 1 view .LVU443
 1409 0006 0E4A     		ldr	r2, .L115
 1410 0008 5369     		ldr	r3, [r2, #20]
 1411 000a 23F40063 		bic	r3, r3, #2048
 1412 000e 5361     		str	r3, [r2, #20]
 1413              	.L114:
 585:../Drivers/STM32L4xx_HAL_Driver/Src/stm32l4xx_hal_flash_ex.c ****   SET_BIT(FLASH->CR, FLASH_CR_PER);
 1414              		.loc 1 585 3 view .LVU444
 1415 0010 0B4B     		ldr	r3, .L115
 1416 0012 5A69     		ldr	r2, [r3, #20]
 1417 0014 22F4FF62 		bic	r2, r2, #2040
 1418 0018 C000     		lsls	r0, r0, #3
 1419              	.LVL128:
 585:../Drivers/STM32L4xx_HAL_Driver/Src/stm32l4xx_hal_flash_ex.c ****   SET_BIT(FLASH->CR, FLASH_CR_PER);
 1420              		.loc 1 585 3 is_stmt 0 view .LVU445
 1421 001a 00F4FF60 		and	r0, r0, #2040
 1422 001e 0243     		orrs	r2, r2, r0
 1423 0020 5A61     		str	r2, [r3, #20]
 586:../Drivers/STM32L4xx_HAL_Driver/Src/stm32l4xx_hal_flash_ex.c ****   SET_BIT(FLASH->CR, FLASH_CR_STRT);
 1424              		.loc 1 586 3 is_stmt 1 view .LVU446
 1425 0022 5A69     		ldr	r2, [r3, #20]
 1426 0024 42F00202 		orr	r2, r2, #2
 1427 0028 5A61     		str	r2, [r3, #20]
 587:../Drivers/STM32L4xx_HAL_Driver/Src/stm32l4xx_hal_flash_ex.c **** }
 1428              		.loc 1 587 3 view .LVU447
 1429 002a 5A69     		ldr	r2, [r3, #20]
 1430 002c 42F48032 		orr	r2, r2, #65536
 1431 0030 5A61     		str	r2, [r3, #20]
 588:../Drivers/STM32L4xx_HAL_Driver/Src/stm32l4xx_hal_flash_ex.c **** 
 1432              		.loc 1 588 1 is_stmt 0 view .LVU448
 1433 0032 7047     		bx	lr
 1434              	.LVL129:
 1435              	.L113:
 576:../Drivers/STM32L4xx_HAL_Driver/Src/stm32l4xx_hal_flash_ex.c ****     }
 1436              		.loc 1 576 7 is_stmt 1 view .LVU449
 1437 0034 024A     		ldr	r2, .L115
 1438 0036 5369     		ldr	r3, [r2, #20]
 1439 0038 43F40063 		orr	r3, r3, #2048
 1440 003c 5361     		str	r3, [r2, #20]
 1441 003e E7E7     		b	.L114
 1442              	.L116:
ARM GAS  Build/stm32l4xx_hal_flash_ex.s 			page 55


 1443              		.align	2
 1444              	.L115:
 1445 0040 00200240 		.word	1073881088
 1446              		.cfi_endproc
 1447              	.LFE79:
 1449              		.section	.text.HAL_FLASHEx_Erase_IT,"ax",%progbits
 1450              		.align	1
 1451              		.global	HAL_FLASHEx_Erase_IT
 1452              		.syntax unified
 1453              		.thumb
 1454              		.thumb_func
 1456              	HAL_FLASHEx_Erase_IT:
 1457              	.LVL130:
 1458              	.LFB75:
 229:../Drivers/STM32L4xx_HAL_Driver/Src/stm32l4xx_hal_flash_ex.c ****   HAL_StatusTypeDef status = HAL_OK;
 1459              		.loc 1 229 1 view -0
 1460              		.cfi_startproc
 1461              		@ args = 0, pretend = 0, frame = 0
 1462              		@ frame_needed = 0, uses_anonymous_args = 0
 230:../Drivers/STM32L4xx_HAL_Driver/Src/stm32l4xx_hal_flash_ex.c **** 
 1463              		.loc 1 230 3 view .LVU451
 233:../Drivers/STM32L4xx_HAL_Driver/Src/stm32l4xx_hal_flash_ex.c **** 
 1464              		.loc 1 233 3 view .LVU452
 233:../Drivers/STM32L4xx_HAL_Driver/Src/stm32l4xx_hal_flash_ex.c **** 
 1465              		.loc 1 233 3 view .LVU453
 1466 0000 294A     		ldr	r2, .L130
 1467 0002 1278     		ldrb	r2, [r2]	@ zero_extendqisi2
 1468 0004 012A     		cmp	r2, #1
 1469 0006 4DD0     		beq	.L124
 229:../Drivers/STM32L4xx_HAL_Driver/Src/stm32l4xx_hal_flash_ex.c ****   HAL_StatusTypeDef status = HAL_OK;
 1470              		.loc 1 229 1 is_stmt 0 discriminator 2 view .LVU454
 1471 0008 08B5     		push	{r3, lr}
 1472              	.LCFI9:
 1473              		.cfi_def_cfa_offset 8
 1474              		.cfi_offset 3, -8
 1475              		.cfi_offset 14, -4
 1476 000a 0346     		mov	r3, r0
 233:../Drivers/STM32L4xx_HAL_Driver/Src/stm32l4xx_hal_flash_ex.c **** 
 1477              		.loc 1 233 3 is_stmt 1 discriminator 2 view .LVU455
 1478 000c 264A     		ldr	r2, .L130
 1479 000e 0121     		movs	r1, #1
 1480 0010 1170     		strb	r1, [r2]
 233:../Drivers/STM32L4xx_HAL_Driver/Src/stm32l4xx_hal_flash_ex.c **** 
 1481              		.loc 1 233 3 discriminator 2 view .LVU456
 236:../Drivers/STM32L4xx_HAL_Driver/Src/stm32l4xx_hal_flash_ex.c **** 
 1482              		.loc 1 236 3 discriminator 2 view .LVU457
 238:../Drivers/STM32L4xx_HAL_Driver/Src/stm32l4xx_hal_flash_ex.c **** 
 1483              		.loc 1 238 3 discriminator 2 view .LVU458
 238:../Drivers/STM32L4xx_HAL_Driver/Src/stm32l4xx_hal_flash_ex.c **** 
 1484              		.loc 1 238 20 is_stmt 0 discriminator 2 view .LVU459
 1485 0012 0021     		movs	r1, #0
 1486 0014 5160     		str	r1, [r2, #4]
 241:../Drivers/STM32L4xx_HAL_Driver/Src/stm32l4xx_hal_flash_ex.c ****   {
 1487              		.loc 1 241 3 is_stmt 1 discriminator 2 view .LVU460
 241:../Drivers/STM32L4xx_HAL_Driver/Src/stm32l4xx_hal_flash_ex.c ****   {
 1488              		.loc 1 241 6 is_stmt 0 discriminator 2 view .LVU461
 1489 0016 254A     		ldr	r2, .L130+4
ARM GAS  Build/stm32l4xx_hal_flash_ex.s 			page 56


 1490 0018 1268     		ldr	r2, [r2]
 241:../Drivers/STM32L4xx_HAL_Driver/Src/stm32l4xx_hal_flash_ex.c ****   {
 1491              		.loc 1 241 5 discriminator 2 view .LVU462
 1492 001a 12F4007F 		tst	r2, #512
 1493 001e 27D0     		beq	.L119
 243:../Drivers/STM32L4xx_HAL_Driver/Src/stm32l4xx_hal_flash_ex.c ****     {
 1494              		.loc 1 243 5 is_stmt 1 view .LVU463
 243:../Drivers/STM32L4xx_HAL_Driver/Src/stm32l4xx_hal_flash_ex.c ****     {
 1495              		.loc 1 243 8 is_stmt 0 view .LVU464
 1496 0020 224A     		ldr	r2, .L130+4
 1497 0022 1268     		ldr	r2, [r2]
 243:../Drivers/STM32L4xx_HAL_Driver/Src/stm32l4xx_hal_flash_ex.c ****     {
 1498              		.loc 1 243 7 view .LVU465
 1499 0024 12F4806F 		tst	r2, #1024
 1500 0028 1ED0     		beq	.L120
 246:../Drivers/STM32L4xx_HAL_Driver/Src/stm32l4xx_hal_flash_ex.c ****       pFlash.CacheToReactivate = FLASH_CACHE_ICACHE_DCACHE_ENABLED;
 1501              		.loc 1 246 7 is_stmt 1 view .LVU466
 1502 002a 2049     		ldr	r1, .L130+4
 1503 002c 0A68     		ldr	r2, [r1]
 1504 002e 22F48062 		bic	r2, r2, #1024
 1505 0032 0A60     		str	r2, [r1]
 247:../Drivers/STM32L4xx_HAL_Driver/Src/stm32l4xx_hal_flash_ex.c ****     }
 1506              		.loc 1 247 7 view .LVU467
 247:../Drivers/STM32L4xx_HAL_Driver/Src/stm32l4xx_hal_flash_ex.c ****     }
 1507              		.loc 1 247 32 is_stmt 0 view .LVU468
 1508 0034 1C4A     		ldr	r2, .L130
 1509 0036 0321     		movs	r1, #3
 1510 0038 1177     		strb	r1, [r2, #28]
 1511              	.L121:
 266:../Drivers/STM32L4xx_HAL_Driver/Src/stm32l4xx_hal_flash_ex.c **** 
 1512              		.loc 1 266 3 is_stmt 1 discriminator 4 view .LVU469
 266:../Drivers/STM32L4xx_HAL_Driver/Src/stm32l4xx_hal_flash_ex.c **** 
 1513              		.loc 1 266 3 discriminator 4 view .LVU470
 266:../Drivers/STM32L4xx_HAL_Driver/Src/stm32l4xx_hal_flash_ex.c **** 
 1514              		.loc 1 266 3 discriminator 4 view .LVU471
 266:../Drivers/STM32L4xx_HAL_Driver/Src/stm32l4xx_hal_flash_ex.c **** 
 1515              		.loc 1 266 3 discriminator 4 view .LVU472
 1516 003a 1C49     		ldr	r1, .L130+4
 1517 003c 4A69     		ldr	r2, [r1, #20]
 1518 003e 42F04072 		orr	r2, r2, #50331648
 1519 0042 4A61     		str	r2, [r1, #20]
 266:../Drivers/STM32L4xx_HAL_Driver/Src/stm32l4xx_hal_flash_ex.c **** 
 1520              		.loc 1 266 3 discriminator 4 view .LVU473
 268:../Drivers/STM32L4xx_HAL_Driver/Src/stm32l4xx_hal_flash_ex.c **** 
 1521              		.loc 1 268 3 discriminator 4 view .LVU474
 268:../Drivers/STM32L4xx_HAL_Driver/Src/stm32l4xx_hal_flash_ex.c **** 
 1522              		.loc 1 268 27 is_stmt 0 discriminator 4 view .LVU475
 1523 0044 5968     		ldr	r1, [r3, #4]
 268:../Drivers/STM32L4xx_HAL_Driver/Src/stm32l4xx_hal_flash_ex.c **** 
 1524              		.loc 1 268 15 discriminator 4 view .LVU476
 1525 0046 184A     		ldr	r2, .L130
 1526 0048 1161     		str	r1, [r2, #16]
 270:../Drivers/STM32L4xx_HAL_Driver/Src/stm32l4xx_hal_flash_ex.c ****   {
 1527              		.loc 1 270 3 is_stmt 1 discriminator 4 view .LVU477
 270:../Drivers/STM32L4xx_HAL_Driver/Src/stm32l4xx_hal_flash_ex.c ****   {
 1528              		.loc 1 270 17 is_stmt 0 discriminator 4 view .LVU478
 1529 004a 1A68     		ldr	r2, [r3]
ARM GAS  Build/stm32l4xx_hal_flash_ex.s 			page 57


 270:../Drivers/STM32L4xx_HAL_Driver/Src/stm32l4xx_hal_flash_ex.c ****   {
 1530              		.loc 1 270 6 discriminator 4 view .LVU479
 1531 004c 012A     		cmp	r2, #1
 1532 004e 21D0     		beq	.L129
 279:../Drivers/STM32L4xx_HAL_Driver/Src/stm32l4xx_hal_flash_ex.c ****     pFlash.NbPagesToErase = pEraseInit->NbPages;
 1533              		.loc 1 279 5 is_stmt 1 view .LVU480
 279:../Drivers/STM32L4xx_HAL_Driver/Src/stm32l4xx_hal_flash_ex.c ****     pFlash.NbPagesToErase = pEraseInit->NbPages;
 1534              		.loc 1 279 29 is_stmt 0 view .LVU481
 1535 0050 154A     		ldr	r2, .L130
 1536 0052 0121     		movs	r1, #1
 1537 0054 1172     		strb	r1, [r2, #8]
 280:../Drivers/STM32L4xx_HAL_Driver/Src/stm32l4xx_hal_flash_ex.c ****     pFlash.Page = pEraseInit->Page;
 1538              		.loc 1 280 5 is_stmt 1 view .LVU482
 280:../Drivers/STM32L4xx_HAL_Driver/Src/stm32l4xx_hal_flash_ex.c ****     pFlash.Page = pEraseInit->Page;
 1539              		.loc 1 280 39 is_stmt 0 view .LVU483
 1540 0056 D968     		ldr	r1, [r3, #12]
 280:../Drivers/STM32L4xx_HAL_Driver/Src/stm32l4xx_hal_flash_ex.c ****     pFlash.Page = pEraseInit->Page;
 1541              		.loc 1 280 27 view .LVU484
 1542 0058 9161     		str	r1, [r2, #24]
 281:../Drivers/STM32L4xx_HAL_Driver/Src/stm32l4xx_hal_flash_ex.c **** 
 1543              		.loc 1 281 5 is_stmt 1 view .LVU485
 281:../Drivers/STM32L4xx_HAL_Driver/Src/stm32l4xx_hal_flash_ex.c **** 
 1544              		.loc 1 281 29 is_stmt 0 view .LVU486
 1545 005a 9868     		ldr	r0, [r3, #8]
 1546              	.LVL131:
 281:../Drivers/STM32L4xx_HAL_Driver/Src/stm32l4xx_hal_flash_ex.c **** 
 1547              		.loc 1 281 17 view .LVU487
 1548 005c 5061     		str	r0, [r2, #20]
 284:../Drivers/STM32L4xx_HAL_Driver/Src/stm32l4xx_hal_flash_ex.c ****   }
 1549              		.loc 1 284 5 is_stmt 1 view .LVU488
 1550 005e 5968     		ldr	r1, [r3, #4]
 1551 0060 FFF7FEFF 		bl	FLASH_PageErase
 1552              	.LVL132:
 287:../Drivers/STM32L4xx_HAL_Driver/Src/stm32l4xx_hal_flash_ex.c **** }
 1553              		.loc 1 287 10 is_stmt 0 view .LVU489
 1554 0064 0020     		movs	r0, #0
 1555              	.L118:
 288:../Drivers/STM32L4xx_HAL_Driver/Src/stm32l4xx_hal_flash_ex.c **** 
 1556              		.loc 1 288 1 view .LVU490
 1557 0066 08BD     		pop	{r3, pc}
 1558              	.LVL133:
 1559              	.L120:
 251:../Drivers/STM32L4xx_HAL_Driver/Src/stm32l4xx_hal_flash_ex.c ****     }
 1560              		.loc 1 251 7 is_stmt 1 view .LVU491
 251:../Drivers/STM32L4xx_HAL_Driver/Src/stm32l4xx_hal_flash_ex.c ****     }
 1561              		.loc 1 251 32 is_stmt 0 view .LVU492
 1562 0068 0F4A     		ldr	r2, .L130
 1563 006a 0121     		movs	r1, #1
 1564 006c 1177     		strb	r1, [r2, #28]
 1565 006e E4E7     		b	.L121
 1566              	.L119:
 254:../Drivers/STM32L4xx_HAL_Driver/Src/stm32l4xx_hal_flash_ex.c ****   {
 1567              		.loc 1 254 8 is_stmt 1 view .LVU493
 254:../Drivers/STM32L4xx_HAL_Driver/Src/stm32l4xx_hal_flash_ex.c ****   {
 1568              		.loc 1 254 11 is_stmt 0 view .LVU494
 1569 0070 0E4A     		ldr	r2, .L130+4
 1570 0072 1268     		ldr	r2, [r2]
ARM GAS  Build/stm32l4xx_hal_flash_ex.s 			page 58


 254:../Drivers/STM32L4xx_HAL_Driver/Src/stm32l4xx_hal_flash_ex.c ****   {
 1571              		.loc 1 254 10 view .LVU495
 1572 0074 12F4806F 		tst	r2, #1024
 1573 0078 08D0     		beq	.L122
 257:../Drivers/STM32L4xx_HAL_Driver/Src/stm32l4xx_hal_flash_ex.c ****     pFlash.CacheToReactivate = FLASH_CACHE_DCACHE_ENABLED;
 1574              		.loc 1 257 5 is_stmt 1 view .LVU496
 1575 007a 0C49     		ldr	r1, .L130+4
 1576 007c 0A68     		ldr	r2, [r1]
 1577 007e 22F48062 		bic	r2, r2, #1024
 1578 0082 0A60     		str	r2, [r1]
 258:../Drivers/STM32L4xx_HAL_Driver/Src/stm32l4xx_hal_flash_ex.c ****   }
 1579              		.loc 1 258 5 view .LVU497
 258:../Drivers/STM32L4xx_HAL_Driver/Src/stm32l4xx_hal_flash_ex.c ****   }
 1580              		.loc 1 258 30 is_stmt 0 view .LVU498
 1581 0084 084A     		ldr	r2, .L130
 1582 0086 0221     		movs	r1, #2
 1583 0088 1177     		strb	r1, [r2, #28]
 1584 008a D6E7     		b	.L121
 1585              	.L122:
 262:../Drivers/STM32L4xx_HAL_Driver/Src/stm32l4xx_hal_flash_ex.c ****   }
 1586              		.loc 1 262 5 is_stmt 1 view .LVU499
 262:../Drivers/STM32L4xx_HAL_Driver/Src/stm32l4xx_hal_flash_ex.c ****   }
 1587              		.loc 1 262 30 is_stmt 0 view .LVU500
 1588 008c 064A     		ldr	r2, .L130
 1589 008e 0021     		movs	r1, #0
 1590 0090 1177     		strb	r1, [r2, #28]
 1591 0092 D2E7     		b	.L121
 1592              	.L129:
 273:../Drivers/STM32L4xx_HAL_Driver/Src/stm32l4xx_hal_flash_ex.c ****     FLASH_MassErase(pEraseInit->Banks);
 1593              		.loc 1 273 5 is_stmt 1 view .LVU501
 273:../Drivers/STM32L4xx_HAL_Driver/Src/stm32l4xx_hal_flash_ex.c ****     FLASH_MassErase(pEraseInit->Banks);
 1594              		.loc 1 273 29 is_stmt 0 view .LVU502
 1595 0094 044A     		ldr	r2, .L130
 1596 0096 0221     		movs	r1, #2
 1597 0098 1172     		strb	r1, [r2, #8]
 274:../Drivers/STM32L4xx_HAL_Driver/Src/stm32l4xx_hal_flash_ex.c ****   }
 1598              		.loc 1 274 5 is_stmt 1 view .LVU503
 1599 009a 5868     		ldr	r0, [r3, #4]
 1600              	.LVL134:
 274:../Drivers/STM32L4xx_HAL_Driver/Src/stm32l4xx_hal_flash_ex.c ****   }
 1601              		.loc 1 274 5 is_stmt 0 view .LVU504
 1602 009c FFF7FEFF 		bl	FLASH_MassErase
 1603              	.LVL135:
 287:../Drivers/STM32L4xx_HAL_Driver/Src/stm32l4xx_hal_flash_ex.c **** }
 1604              		.loc 1 287 10 view .LVU505
 1605 00a0 0020     		movs	r0, #0
 1606 00a2 E0E7     		b	.L118
 1607              	.LVL136:
 1608              	.L124:
 1609              	.LCFI10:
 1610              		.cfi_def_cfa_offset 0
 1611              		.cfi_restore 3
 1612              		.cfi_restore 14
 233:../Drivers/STM32L4xx_HAL_Driver/Src/stm32l4xx_hal_flash_ex.c **** 
 1613              		.loc 1 233 3 view .LVU506
 1614 00a4 0220     		movs	r0, #2
 1615              	.LVL137:
ARM GAS  Build/stm32l4xx_hal_flash_ex.s 			page 59


 288:../Drivers/STM32L4xx_HAL_Driver/Src/stm32l4xx_hal_flash_ex.c **** 
 1616              		.loc 1 288 1 view .LVU507
 1617 00a6 7047     		bx	lr
 1618              	.L131:
 1619              		.align	2
 1620              	.L130:
 1621 00a8 00000000 		.word	pFlash
 1622 00ac 00200240 		.word	1073881088
 1623              		.cfi_endproc
 1624              	.LFE75:
 1626              		.section	.text.FLASH_FlushCaches,"ax",%progbits
 1627              		.align	1
 1628              		.global	FLASH_FlushCaches
 1629              		.syntax unified
 1630              		.thumb
 1631              		.thumb_func
 1633              	FLASH_FlushCaches:
 1634              	.LFB80:
 595:../Drivers/STM32L4xx_HAL_Driver/Src/stm32l4xx_hal_flash_ex.c ****   FLASH_CacheTypeDef cache = pFlash.CacheToReactivate;
 1635              		.loc 1 595 1 is_stmt 1 view -0
 1636              		.cfi_startproc
 1637              		@ args = 0, pretend = 0, frame = 0
 1638              		@ frame_needed = 0, uses_anonymous_args = 0
 1639              		@ link register save eliminated.
 596:../Drivers/STM32L4xx_HAL_Driver/Src/stm32l4xx_hal_flash_ex.c **** 
 1640              		.loc 1 596 3 view .LVU509
 596:../Drivers/STM32L4xx_HAL_Driver/Src/stm32l4xx_hal_flash_ex.c **** 
 1641              		.loc 1 596 22 is_stmt 0 view .LVU510
 1642 0000 164B     		ldr	r3, .L137
 1643 0002 1B7F     		ldrb	r3, [r3, #28]	@ zero_extendqisi2
 1644 0004 DBB2     		uxtb	r3, r3
 1645              	.LVL138:
 599:../Drivers/STM32L4xx_HAL_Driver/Src/stm32l4xx_hal_flash_ex.c ****      (cache == FLASH_CACHE_ICACHE_DCACHE_ENABLED))
 1646              		.loc 1 599 3 is_stmt 1 view .LVU511
 599:../Drivers/STM32L4xx_HAL_Driver/Src/stm32l4xx_hal_flash_ex.c ****      (cache == FLASH_CACHE_ICACHE_DCACHE_ENABLED))
 1647              		.loc 1 599 5 is_stmt 0 view .LVU512
 1648 0006 012B     		cmp	r3, #1
 1649 0008 01D0     		beq	.L133
 599:../Drivers/STM32L4xx_HAL_Driver/Src/stm32l4xx_hal_flash_ex.c ****      (cache == FLASH_CACHE_ICACHE_DCACHE_ENABLED))
 1650              		.loc 1 599 44 discriminator 1 view .LVU513
 1651 000a 032B     		cmp	r3, #3
 1652 000c 10D1     		bne	.L134
 1653              	.L133:
 603:../Drivers/STM32L4xx_HAL_Driver/Src/stm32l4xx_hal_flash_ex.c ****     /* Reset instruction cache */
 1654              		.loc 1 603 5 is_stmt 1 view .LVU514
 1655 000e 144A     		ldr	r2, .L137+4
 1656 0010 1168     		ldr	r1, [r2]
 1657 0012 21F40071 		bic	r1, r1, #512
 1658 0016 1160     		str	r1, [r2]
 605:../Drivers/STM32L4xx_HAL_Driver/Src/stm32l4xx_hal_flash_ex.c ****     /* Enable instruction cache */
 1659              		.loc 1 605 5 view .LVU515
 605:../Drivers/STM32L4xx_HAL_Driver/Src/stm32l4xx_hal_flash_ex.c ****     /* Enable instruction cache */
 1660              		.loc 1 605 5 view .LVU516
 1661 0018 1168     		ldr	r1, [r2]
 1662 001a 41F40061 		orr	r1, r1, #2048
 1663 001e 1160     		str	r1, [r2]
 605:../Drivers/STM32L4xx_HAL_Driver/Src/stm32l4xx_hal_flash_ex.c ****     /* Enable instruction cache */
ARM GAS  Build/stm32l4xx_hal_flash_ex.s 			page 60


 1664              		.loc 1 605 5 view .LVU517
 1665 0020 1168     		ldr	r1, [r2]
 1666 0022 21F40061 		bic	r1, r1, #2048
 1667 0026 1160     		str	r1, [r2]
 605:../Drivers/STM32L4xx_HAL_Driver/Src/stm32l4xx_hal_flash_ex.c ****     /* Enable instruction cache */
 1668              		.loc 1 605 5 view .LVU518
 607:../Drivers/STM32L4xx_HAL_Driver/Src/stm32l4xx_hal_flash_ex.c ****   }
 1669              		.loc 1 607 5 view .LVU519
 1670 0028 1168     		ldr	r1, [r2]
 1671 002a 41F40071 		orr	r1, r1, #512
 1672 002e 1160     		str	r1, [r2]
 1673              	.L134:
 611:../Drivers/STM32L4xx_HAL_Driver/Src/stm32l4xx_hal_flash_ex.c ****      (cache == FLASH_CACHE_ICACHE_DCACHE_ENABLED))
 1674              		.loc 1 611 3 view .LVU520
 611:../Drivers/STM32L4xx_HAL_Driver/Src/stm32l4xx_hal_flash_ex.c ****      (cache == FLASH_CACHE_ICACHE_DCACHE_ENABLED))
 1675              		.loc 1 611 44 is_stmt 0 view .LVU521
 1676 0030 023B     		subs	r3, r3, #2
 1677              	.LVL139:
 611:../Drivers/STM32L4xx_HAL_Driver/Src/stm32l4xx_hal_flash_ex.c ****      (cache == FLASH_CACHE_ICACHE_DCACHE_ENABLED))
 1678              		.loc 1 611 44 view .LVU522
 1679 0032 DBB2     		uxtb	r3, r3
 1680              	.LVL140:
 611:../Drivers/STM32L4xx_HAL_Driver/Src/stm32l4xx_hal_flash_ex.c ****      (cache == FLASH_CACHE_ICACHE_DCACHE_ENABLED))
 1681              		.loc 1 611 5 view .LVU523
 1682 0034 012B     		cmp	r3, #1
 1683 0036 03D9     		bls	.L136
 1684              	.L135:
 621:../Drivers/STM32L4xx_HAL_Driver/Src/stm32l4xx_hal_flash_ex.c **** }
 1685              		.loc 1 621 3 is_stmt 1 view .LVU524
 621:../Drivers/STM32L4xx_HAL_Driver/Src/stm32l4xx_hal_flash_ex.c **** }
 1686              		.loc 1 621 28 is_stmt 0 view .LVU525
 1687 0038 084B     		ldr	r3, .L137
 1688 003a 0022     		movs	r2, #0
 1689 003c 1A77     		strb	r2, [r3, #28]
 622:../Drivers/STM32L4xx_HAL_Driver/Src/stm32l4xx_hal_flash_ex.c **** 
 1690              		.loc 1 622 1 view .LVU526
 1691 003e 7047     		bx	lr
 1692              	.L136:
 615:../Drivers/STM32L4xx_HAL_Driver/Src/stm32l4xx_hal_flash_ex.c ****     /* Enable data cache */
 1693              		.loc 1 615 5 is_stmt 1 view .LVU527
 615:../Drivers/STM32L4xx_HAL_Driver/Src/stm32l4xx_hal_flash_ex.c ****     /* Enable data cache */
 1694              		.loc 1 615 5 view .LVU528
 1695 0040 074B     		ldr	r3, .L137+4
 1696 0042 1A68     		ldr	r2, [r3]
 1697 0044 42F48052 		orr	r2, r2, #4096
 1698 0048 1A60     		str	r2, [r3]
 615:../Drivers/STM32L4xx_HAL_Driver/Src/stm32l4xx_hal_flash_ex.c ****     /* Enable data cache */
 1699              		.loc 1 615 5 view .LVU529
 1700 004a 1A68     		ldr	r2, [r3]
 1701 004c 22F48052 		bic	r2, r2, #4096
 1702 0050 1A60     		str	r2, [r3]
 615:../Drivers/STM32L4xx_HAL_Driver/Src/stm32l4xx_hal_flash_ex.c ****     /* Enable data cache */
 1703              		.loc 1 615 5 view .LVU530
 617:../Drivers/STM32L4xx_HAL_Driver/Src/stm32l4xx_hal_flash_ex.c ****   }
 1704              		.loc 1 617 5 view .LVU531
 1705 0052 1A68     		ldr	r2, [r3]
 1706 0054 42F48062 		orr	r2, r2, #1024
ARM GAS  Build/stm32l4xx_hal_flash_ex.s 			page 61


 1707 0058 1A60     		str	r2, [r3]
 1708 005a EDE7     		b	.L135
 1709              	.L138:
 1710              		.align	2
 1711              	.L137:
 1712 005c 00000000 		.word	pFlash
 1713 0060 00200240 		.word	1073881088
 1714              		.cfi_endproc
 1715              	.LFE80:
 1717              		.section	.text.HAL_FLASHEx_Erase,"ax",%progbits
 1718              		.align	1
 1719              		.global	HAL_FLASHEx_Erase
 1720              		.syntax unified
 1721              		.thumb
 1722              		.thumb_func
 1724              	HAL_FLASHEx_Erase:
 1725              	.LVL141:
 1726              	.LFB74:
 126:../Drivers/STM32L4xx_HAL_Driver/Src/stm32l4xx_hal_flash_ex.c ****   HAL_StatusTypeDef status;
 1727              		.loc 1 126 1 view -0
 1728              		.cfi_startproc
 1729              		@ args = 0, pretend = 0, frame = 0
 1730              		@ frame_needed = 0, uses_anonymous_args = 0
 126:../Drivers/STM32L4xx_HAL_Driver/Src/stm32l4xx_hal_flash_ex.c ****   HAL_StatusTypeDef status;
 1731              		.loc 1 126 1 is_stmt 0 view .LVU533
 1732 0000 F8B5     		push	{r3, r4, r5, r6, r7, lr}
 1733              	.LCFI11:
 1734              		.cfi_def_cfa_offset 24
 1735              		.cfi_offset 3, -24
 1736              		.cfi_offset 4, -20
 1737              		.cfi_offset 5, -16
 1738              		.cfi_offset 6, -12
 1739              		.cfi_offset 7, -8
 1740              		.cfi_offset 14, -4
 127:../Drivers/STM32L4xx_HAL_Driver/Src/stm32l4xx_hal_flash_ex.c ****   uint32_t page_index;
 1741              		.loc 1 127 3 is_stmt 1 view .LVU534
 128:../Drivers/STM32L4xx_HAL_Driver/Src/stm32l4xx_hal_flash_ex.c **** 
 1742              		.loc 1 128 3 view .LVU535
 131:../Drivers/STM32L4xx_HAL_Driver/Src/stm32l4xx_hal_flash_ex.c **** 
 1743              		.loc 1 131 3 view .LVU536
 131:../Drivers/STM32L4xx_HAL_Driver/Src/stm32l4xx_hal_flash_ex.c **** 
 1744              		.loc 1 131 3 view .LVU537
 1745 0002 3A4B     		ldr	r3, .L155
 1746 0004 1B78     		ldrb	r3, [r3]	@ zero_extendqisi2
 1747 0006 012B     		cmp	r3, #1
 1748 0008 6DD0     		beq	.L151
 1749 000a 0446     		mov	r4, r0
 1750 000c 0E46     		mov	r6, r1
 131:../Drivers/STM32L4xx_HAL_Driver/Src/stm32l4xx_hal_flash_ex.c **** 
 1751              		.loc 1 131 3 discriminator 2 view .LVU538
 1752 000e 374B     		ldr	r3, .L155
 1753 0010 0122     		movs	r2, #1
 1754 0012 1A70     		strb	r2, [r3]
 131:../Drivers/STM32L4xx_HAL_Driver/Src/stm32l4xx_hal_flash_ex.c **** 
 1755              		.loc 1 131 3 discriminator 2 view .LVU539
 134:../Drivers/STM32L4xx_HAL_Driver/Src/stm32l4xx_hal_flash_ex.c **** 
 1756              		.loc 1 134 3 discriminator 2 view .LVU540
ARM GAS  Build/stm32l4xx_hal_flash_ex.s 			page 62


 137:../Drivers/STM32L4xx_HAL_Driver/Src/stm32l4xx_hal_flash_ex.c **** 
 1757              		.loc 1 137 3 discriminator 2 view .LVU541
 137:../Drivers/STM32L4xx_HAL_Driver/Src/stm32l4xx_hal_flash_ex.c **** 
 1758              		.loc 1 137 12 is_stmt 0 discriminator 2 view .LVU542
 1759 0014 4CF25030 		movw	r0, #50000
 1760              	.LVL142:
 137:../Drivers/STM32L4xx_HAL_Driver/Src/stm32l4xx_hal_flash_ex.c **** 
 1761              		.loc 1 137 12 discriminator 2 view .LVU543
 1762 0018 FFF7FEFF 		bl	FLASH_WaitForLastOperation
 1763              	.LVL143:
 139:../Drivers/STM32L4xx_HAL_Driver/Src/stm32l4xx_hal_flash_ex.c ****   {
 1764              		.loc 1 139 3 is_stmt 1 discriminator 2 view .LVU544
 139:../Drivers/STM32L4xx_HAL_Driver/Src/stm32l4xx_hal_flash_ex.c ****   {
 1765              		.loc 1 139 6 is_stmt 0 discriminator 2 view .LVU545
 1766 001c 0746     		mov	r7, r0
 1767 001e 0028     		cmp	r0, #0
 1768 0020 5CD1     		bne	.L141
 141:../Drivers/STM32L4xx_HAL_Driver/Src/stm32l4xx_hal_flash_ex.c **** 
 1769              		.loc 1 141 5 is_stmt 1 view .LVU546
 141:../Drivers/STM32L4xx_HAL_Driver/Src/stm32l4xx_hal_flash_ex.c **** 
 1770              		.loc 1 141 22 is_stmt 0 view .LVU547
 1771 0022 324B     		ldr	r3, .L155
 1772 0024 0022     		movs	r2, #0
 1773 0026 5A60     		str	r2, [r3, #4]
 144:../Drivers/STM32L4xx_HAL_Driver/Src/stm32l4xx_hal_flash_ex.c ****     {
 1774              		.loc 1 144 5 is_stmt 1 view .LVU548
 144:../Drivers/STM32L4xx_HAL_Driver/Src/stm32l4xx_hal_flash_ex.c ****     {
 1775              		.loc 1 144 8 is_stmt 0 view .LVU549
 1776 0028 314B     		ldr	r3, .L155+4
 1777 002a 1B68     		ldr	r3, [r3]
 144:../Drivers/STM32L4xx_HAL_Driver/Src/stm32l4xx_hal_flash_ex.c ****     {
 1778              		.loc 1 144 7 view .LVU550
 1779 002c 13F4007F 		tst	r3, #512
 1780 0030 2FD0     		beq	.L142
 146:../Drivers/STM32L4xx_HAL_Driver/Src/stm32l4xx_hal_flash_ex.c ****       {
 1781              		.loc 1 146 7 is_stmt 1 view .LVU551
 146:../Drivers/STM32L4xx_HAL_Driver/Src/stm32l4xx_hal_flash_ex.c ****       {
 1782              		.loc 1 146 10 is_stmt 0 view .LVU552
 1783 0032 2F4B     		ldr	r3, .L155+4
 1784 0034 1B68     		ldr	r3, [r3]
 146:../Drivers/STM32L4xx_HAL_Driver/Src/stm32l4xx_hal_flash_ex.c ****       {
 1785              		.loc 1 146 9 view .LVU553
 1786 0036 13F4806F 		tst	r3, #1024
 1787 003a 26D0     		beq	.L143
 149:../Drivers/STM32L4xx_HAL_Driver/Src/stm32l4xx_hal_flash_ex.c ****         pFlash.CacheToReactivate = FLASH_CACHE_ICACHE_DCACHE_ENABLED;
 1788              		.loc 1 149 9 is_stmt 1 view .LVU554
 1789 003c 2C4A     		ldr	r2, .L155+4
 1790 003e 1368     		ldr	r3, [r2]
 1791 0040 23F48063 		bic	r3, r3, #1024
 1792 0044 1360     		str	r3, [r2]
 150:../Drivers/STM32L4xx_HAL_Driver/Src/stm32l4xx_hal_flash_ex.c ****       }
 1793              		.loc 1 150 9 view .LVU555
 150:../Drivers/STM32L4xx_HAL_Driver/Src/stm32l4xx_hal_flash_ex.c ****       }
 1794              		.loc 1 150 34 is_stmt 0 view .LVU556
 1795 0046 294B     		ldr	r3, .L155
 1796 0048 0322     		movs	r2, #3
 1797 004a 1A77     		strb	r2, [r3, #28]
ARM GAS  Build/stm32l4xx_hal_flash_ex.s 			page 63


 1798              	.L144:
 168:../Drivers/STM32L4xx_HAL_Driver/Src/stm32l4xx_hal_flash_ex.c ****     {
 1799              		.loc 1 168 5 is_stmt 1 view .LVU557
 168:../Drivers/STM32L4xx_HAL_Driver/Src/stm32l4xx_hal_flash_ex.c ****     {
 1800              		.loc 1 168 19 is_stmt 0 view .LVU558
 1801 004c 2368     		ldr	r3, [r4]
 168:../Drivers/STM32L4xx_HAL_Driver/Src/stm32l4xx_hal_flash_ex.c ****     {
 1802              		.loc 1 168 8 view .LVU559
 1803 004e 012B     		cmp	r3, #1
 1804 0050 31D0     		beq	.L153
 190:../Drivers/STM32L4xx_HAL_Driver/Src/stm32l4xx_hal_flash_ex.c **** 
 1805              		.loc 1 190 7 is_stmt 1 view .LVU560
 190:../Drivers/STM32L4xx_HAL_Driver/Src/stm32l4xx_hal_flash_ex.c **** 
 1806              		.loc 1 190 18 is_stmt 0 view .LVU561
 1807 0052 4FF0FF33 		mov	r3, #-1
 1808 0056 3360     		str	r3, [r6]
 192:../Drivers/STM32L4xx_HAL_Driver/Src/stm32l4xx_hal_flash_ex.c ****       {
 1809              		.loc 1 192 7 is_stmt 1 view .LVU562
 192:../Drivers/STM32L4xx_HAL_Driver/Src/stm32l4xx_hal_flash_ex.c ****       {
 1810              		.loc 1 192 22 is_stmt 0 view .LVU563
 1811 0058 A568     		ldr	r5, [r4, #8]
 1812              	.LVL144:
 1813              	.L148:
 192:../Drivers/STM32L4xx_HAL_Driver/Src/stm32l4xx_hal_flash_ex.c ****       {
 1814              		.loc 1 192 53 is_stmt 1 discriminator 1 view .LVU564
 192:../Drivers/STM32L4xx_HAL_Driver/Src/stm32l4xx_hal_flash_ex.c ****       {
 1815              		.loc 1 192 66 is_stmt 0 discriminator 1 view .LVU565
 1816 005a A368     		ldr	r3, [r4, #8]
 192:../Drivers/STM32L4xx_HAL_Driver/Src/stm32l4xx_hal_flash_ex.c ****       {
 1817              		.loc 1 192 85 discriminator 1 view .LVU566
 1818 005c E268     		ldr	r2, [r4, #12]
 192:../Drivers/STM32L4xx_HAL_Driver/Src/stm32l4xx_hal_flash_ex.c ****       {
 1819              		.loc 1 192 73 discriminator 1 view .LVU567
 1820 005e 1344     		add	r3, r3, r2
 192:../Drivers/STM32L4xx_HAL_Driver/Src/stm32l4xx_hal_flash_ex.c ****       {
 1821              		.loc 1 192 53 discriminator 1 view .LVU568
 1822 0060 AB42     		cmp	r3, r5
 1823 0062 39D9     		bls	.L147
 194:../Drivers/STM32L4xx_HAL_Driver/Src/stm32l4xx_hal_flash_ex.c **** 
 1824              		.loc 1 194 9 is_stmt 1 view .LVU569
 1825 0064 6168     		ldr	r1, [r4, #4]
 1826 0066 2846     		mov	r0, r5
 1827 0068 FFF7FEFF 		bl	FLASH_PageErase
 1828              	.LVL145:
 197:../Drivers/STM32L4xx_HAL_Driver/Src/stm32l4xx_hal_flash_ex.c **** 
 1829              		.loc 1 197 9 view .LVU570
 197:../Drivers/STM32L4xx_HAL_Driver/Src/stm32l4xx_hal_flash_ex.c **** 
 1830              		.loc 1 197 18 is_stmt 0 view .LVU571
 1831 006c 4CF25030 		movw	r0, #50000
 1832 0070 FFF7FEFF 		bl	FLASH_WaitForLastOperation
 1833              	.LVL146:
 200:../Drivers/STM32L4xx_HAL_Driver/Src/stm32l4xx_hal_flash_ex.c **** 
 1834              		.loc 1 200 9 is_stmt 1 view .LVU572
 1835 0074 1E4A     		ldr	r2, .L155+4
 1836 0076 5369     		ldr	r3, [r2, #20]
 1837 0078 23F4FF63 		bic	r3, r3, #2040
 1838 007c 23F00203 		bic	r3, r3, #2
ARM GAS  Build/stm32l4xx_hal_flash_ex.s 			page 64


 1839 0080 5361     		str	r3, [r2, #20]
 202:../Drivers/STM32L4xx_HAL_Driver/Src/stm32l4xx_hal_flash_ex.c ****         {
 1840              		.loc 1 202 9 view .LVU573
 202:../Drivers/STM32L4xx_HAL_Driver/Src/stm32l4xx_hal_flash_ex.c ****         {
 1841              		.loc 1 202 12 is_stmt 0 view .LVU574
 1842 0082 0746     		mov	r7, r0
 1843 0084 38BB     		cbnz	r0, .L154
 192:../Drivers/STM32L4xx_HAL_Driver/Src/stm32l4xx_hal_flash_ex.c ****       {
 1844              		.loc 1 192 107 is_stmt 1 discriminator 2 view .LVU575
 1845 0086 0135     		adds	r5, r5, #1
 1846              	.LVL147:
 192:../Drivers/STM32L4xx_HAL_Driver/Src/stm32l4xx_hal_flash_ex.c ****       {
 1847              		.loc 1 192 107 is_stmt 0 discriminator 2 view .LVU576
 1848 0088 E7E7     		b	.L148
 1849              	.LVL148:
 1850              	.L143:
 154:../Drivers/STM32L4xx_HAL_Driver/Src/stm32l4xx_hal_flash_ex.c ****       }
 1851              		.loc 1 154 9 is_stmt 1 view .LVU577
 154:../Drivers/STM32L4xx_HAL_Driver/Src/stm32l4xx_hal_flash_ex.c ****       }
 1852              		.loc 1 154 34 is_stmt 0 view .LVU578
 1853 008a 184B     		ldr	r3, .L155
 1854 008c 0122     		movs	r2, #1
 1855 008e 1A77     		strb	r2, [r3, #28]
 1856 0090 DCE7     		b	.L144
 1857              	.L142:
 157:../Drivers/STM32L4xx_HAL_Driver/Src/stm32l4xx_hal_flash_ex.c ****     {
 1858              		.loc 1 157 10 is_stmt 1 view .LVU579
 157:../Drivers/STM32L4xx_HAL_Driver/Src/stm32l4xx_hal_flash_ex.c ****     {
 1859              		.loc 1 157 13 is_stmt 0 view .LVU580
 1860 0092 174B     		ldr	r3, .L155+4
 1861 0094 1B68     		ldr	r3, [r3]
 157:../Drivers/STM32L4xx_HAL_Driver/Src/stm32l4xx_hal_flash_ex.c ****     {
 1862              		.loc 1 157 12 view .LVU581
 1863 0096 13F4806F 		tst	r3, #1024
 1864 009a 08D0     		beq	.L145
 160:../Drivers/STM32L4xx_HAL_Driver/Src/stm32l4xx_hal_flash_ex.c ****       pFlash.CacheToReactivate = FLASH_CACHE_DCACHE_ENABLED;
 1865              		.loc 1 160 7 is_stmt 1 view .LVU582
 1866 009c 144A     		ldr	r2, .L155+4
 1867 009e 1368     		ldr	r3, [r2]
 1868 00a0 23F48063 		bic	r3, r3, #1024
 1869 00a4 1360     		str	r3, [r2]
 161:../Drivers/STM32L4xx_HAL_Driver/Src/stm32l4xx_hal_flash_ex.c ****     }
 1870              		.loc 1 161 7 view .LVU583
 161:../Drivers/STM32L4xx_HAL_Driver/Src/stm32l4xx_hal_flash_ex.c ****     }
 1871              		.loc 1 161 32 is_stmt 0 view .LVU584
 1872 00a6 114B     		ldr	r3, .L155
 1873 00a8 0222     		movs	r2, #2
 1874 00aa 1A77     		strb	r2, [r3, #28]
 1875 00ac CEE7     		b	.L144
 1876              	.L145:
 165:../Drivers/STM32L4xx_HAL_Driver/Src/stm32l4xx_hal_flash_ex.c ****     }
 1877              		.loc 1 165 7 is_stmt 1 view .LVU585
 165:../Drivers/STM32L4xx_HAL_Driver/Src/stm32l4xx_hal_flash_ex.c ****     }
 1878              		.loc 1 165 32 is_stmt 0 view .LVU586
 1879 00ae 0F4B     		ldr	r3, .L155
 1880 00b0 0022     		movs	r2, #0
 1881 00b2 1A77     		strb	r2, [r3, #28]
ARM GAS  Build/stm32l4xx_hal_flash_ex.s 			page 65


 1882 00b4 CAE7     		b	.L144
 1883              	.L153:
 171:../Drivers/STM32L4xx_HAL_Driver/Src/stm32l4xx_hal_flash_ex.c **** 
 1884              		.loc 1 171 7 is_stmt 1 view .LVU587
 1885 00b6 6068     		ldr	r0, [r4, #4]
 1886              	.LVL149:
 171:../Drivers/STM32L4xx_HAL_Driver/Src/stm32l4xx_hal_flash_ex.c **** 
 1887              		.loc 1 171 7 is_stmt 0 view .LVU588
 1888 00b8 FFF7FEFF 		bl	FLASH_MassErase
 1889              	.LVL150:
 174:../Drivers/STM32L4xx_HAL_Driver/Src/stm32l4xx_hal_flash_ex.c **** 
 1890              		.loc 1 174 7 is_stmt 1 view .LVU589
 174:../Drivers/STM32L4xx_HAL_Driver/Src/stm32l4xx_hal_flash_ex.c **** 
 1891              		.loc 1 174 16 is_stmt 0 view .LVU590
 1892 00bc 4CF25030 		movw	r0, #50000
 1893 00c0 FFF7FEFF 		bl	FLASH_WaitForLastOperation
 1894              	.LVL151:
 1895 00c4 0746     		mov	r7, r0
 1896              	.LVL152:
 181:../Drivers/STM32L4xx_HAL_Driver/Src/stm32l4xx_hal_flash_ex.c **** #else
 1897              		.loc 1 181 7 is_stmt 1 view .LVU591
 1898 00c6 0A4A     		ldr	r2, .L155+4
 1899 00c8 5369     		ldr	r3, [r2, #20]
 1900 00ca 23F40043 		bic	r3, r3, #32768
 1901 00ce 23F00403 		bic	r3, r3, #4
 1902 00d2 5361     		str	r3, [r2, #20]
 1903 00d4 00E0     		b	.L147
 1904              	.LVL153:
 1905              	.L154:
 205:../Drivers/STM32L4xx_HAL_Driver/Src/stm32l4xx_hal_flash_ex.c ****           break;
 1906              		.loc 1 205 11 view .LVU592
 205:../Drivers/STM32L4xx_HAL_Driver/Src/stm32l4xx_hal_flash_ex.c ****           break;
 1907              		.loc 1 205 22 is_stmt 0 view .LVU593
 1908 00d6 3560     		str	r5, [r6]
 206:../Drivers/STM32L4xx_HAL_Driver/Src/stm32l4xx_hal_flash_ex.c ****         }
 1909              		.loc 1 206 11 is_stmt 1 view .LVU594
 1910              	.LVL154:
 1911              	.L147:
 212:../Drivers/STM32L4xx_HAL_Driver/Src/stm32l4xx_hal_flash_ex.c ****   }
 1912              		.loc 1 212 5 view .LVU595
 1913 00d8 FFF7FEFF 		bl	FLASH_FlushCaches
 1914              	.LVL155:
 1915              	.L141:
 216:../Drivers/STM32L4xx_HAL_Driver/Src/stm32l4xx_hal_flash_ex.c **** 
 1916              		.loc 1 216 3 view .LVU596
 216:../Drivers/STM32L4xx_HAL_Driver/Src/stm32l4xx_hal_flash_ex.c **** 
 1917              		.loc 1 216 3 view .LVU597
 1918 00dc 034B     		ldr	r3, .L155
 1919 00de 0022     		movs	r2, #0
 1920 00e0 1A70     		strb	r2, [r3]
 216:../Drivers/STM32L4xx_HAL_Driver/Src/stm32l4xx_hal_flash_ex.c **** 
 1921              		.loc 1 216 3 view .LVU598
 218:../Drivers/STM32L4xx_HAL_Driver/Src/stm32l4xx_hal_flash_ex.c **** }
 1922              		.loc 1 218 3 view .LVU599
 1923              	.LVL156:
 1924              	.L140:
 219:../Drivers/STM32L4xx_HAL_Driver/Src/stm32l4xx_hal_flash_ex.c **** 
ARM GAS  Build/stm32l4xx_hal_flash_ex.s 			page 66


 1925              		.loc 1 219 1 is_stmt 0 view .LVU600
 1926 00e2 3846     		mov	r0, r7
 1927 00e4 F8BD     		pop	{r3, r4, r5, r6, r7, pc}
 1928              	.LVL157:
 1929              	.L151:
 131:../Drivers/STM32L4xx_HAL_Driver/Src/stm32l4xx_hal_flash_ex.c **** 
 1930              		.loc 1 131 3 view .LVU601
 1931 00e6 0227     		movs	r7, #2
 1932 00e8 FBE7     		b	.L140
 1933              	.L156:
 1934 00ea 00BF     		.align	2
 1935              	.L155:
 1936 00ec 00000000 		.word	pFlash
 1937 00f0 00200240 		.word	1073881088
 1938              		.cfi_endproc
 1939              	.LFE74:
 1941              		.text
 1942              	.Letext0:
 1943              		.file 2 "/home/emanuele/st/stm32cubeide_1.15.0/plugins/com.st.stm32cube.ide.mcu.externaltools.gnu-
 1944              		.file 3 "/home/emanuele/st/stm32cubeide_1.15.0/plugins/com.st.stm32cube.ide.mcu.externaltools.gnu-
 1945              		.file 4 "../Drivers/CMSIS/Device/ST/STM32L4xx/Include/stm32l475xx.h"
 1946              		.file 5 "../Drivers/STM32L4xx_HAL_Driver/Inc/stm32l4xx_hal_def.h"
 1947              		.file 6 "../Drivers/STM32L4xx_HAL_Driver/Inc/stm32l4xx_hal_flash.h"
ARM GAS  Build/stm32l4xx_hal_flash_ex.s 			page 67


DEFINED SYMBOLS
                            *ABS*:00000000 stm32l4xx_hal_flash_ex.c
Build/stm32l4xx_hal_flash_ex.s:19     .text.FLASH_MassErase:00000000 $t
Build/stm32l4xx_hal_flash_ex.s:24     .text.FLASH_MassErase:00000000 FLASH_MassErase
Build/stm32l4xx_hal_flash_ex.s:63     .text.FLASH_MassErase:0000002c $d
Build/stm32l4xx_hal_flash_ex.s:68     .text.FLASH_OB_GetWRP:00000000 $t
Build/stm32l4xx_hal_flash_ex.s:73     .text.FLASH_OB_GetWRP:00000000 FLASH_OB_GetWRP
Build/stm32l4xx_hal_flash_ex.s:86     .text.FLASH_OB_GetWRP:00000008 $d
Build/stm32l4xx_hal_flash_ex.s:173    .text.FLASH_OB_GetWRP:00000058 $d
Build/stm32l4xx_hal_flash_ex.s:178    .text.FLASH_OB_GetRDP:00000000 $t
Build/stm32l4xx_hal_flash_ex.s:183    .text.FLASH_OB_GetRDP:00000000 FLASH_OB_GetRDP
Build/stm32l4xx_hal_flash_ex.s:220    .text.FLASH_OB_GetRDP:0000001c $d
Build/stm32l4xx_hal_flash_ex.s:225    .text.FLASH_OB_GetUser:00000000 $t
Build/stm32l4xx_hal_flash_ex.s:230    .text.FLASH_OB_GetUser:00000000 FLASH_OB_GetUser
Build/stm32l4xx_hal_flash_ex.s:252    .text.FLASH_OB_GetUser:0000000c $d
Build/stm32l4xx_hal_flash_ex.s:257    .text.FLASH_OB_GetPCROP:00000000 $t
Build/stm32l4xx_hal_flash_ex.s:262    .text.FLASH_OB_GetPCROP:00000000 FLASH_OB_GetPCROP
Build/stm32l4xx_hal_flash_ex.s:441    .text.FLASH_OB_GetPCROP:000000b4 $d
Build/stm32l4xx_hal_flash_ex.s:451    .text.FLASH_OB_WRPConfig:00000000 $t
Build/stm32l4xx_hal_flash_ex.s:456    .text.FLASH_OB_WRPConfig:00000000 FLASH_OB_WRPConfig
Build/stm32l4xx_hal_flash_ex.s:493    .text.FLASH_OB_WRPConfig:0000001a $d
Build/stm32l4xx_hal_flash_ex.s:561    .text.FLASH_OB_WRPConfig:00000084 $d
Build/stm32l4xx_hal_flash_ex.s:566    .text.FLASH_OB_RDPConfig:00000000 $t
Build/stm32l4xx_hal_flash_ex.s:571    .text.FLASH_OB_RDPConfig:00000000 FLASH_OB_RDPConfig
Build/stm32l4xx_hal_flash_ex.s:629    .text.FLASH_OB_RDPConfig:00000038 $d
Build/stm32l4xx_hal_flash_ex.s:634    .text.FLASH_OB_UserConfig:00000000 $t
Build/stm32l4xx_hal_flash_ex.s:639    .text.FLASH_OB_UserConfig:00000000 FLASH_OB_UserConfig
Build/stm32l4xx_hal_flash_ex.s:917    .text.FLASH_OB_UserConfig:0000010c $d
Build/stm32l4xx_hal_flash_ex.s:922    .text.FLASH_OB_PCROPConfig:00000000 $t
Build/stm32l4xx_hal_flash_ex.s:927    .text.FLASH_OB_PCROPConfig:00000000 FLASH_OB_PCROPConfig
Build/stm32l4xx_hal_flash_ex.s:1120   .text.FLASH_OB_PCROPConfig:000000e0 $d
Build/stm32l4xx_hal_flash_ex.s:1129   .text.HAL_FLASHEx_OBProgram:00000000 $t
Build/stm32l4xx_hal_flash_ex.s:1135   .text.HAL_FLASHEx_OBProgram:00000000 HAL_FLASHEx_OBProgram
Build/stm32l4xx_hal_flash_ex.s:1295   .text.HAL_FLASHEx_OBProgram:00000090 $d
Build/stm32l4xx_hal_flash_ex.s:1300   .text.HAL_FLASHEx_OBGetConfig:00000000 $t
Build/stm32l4xx_hal_flash_ex.s:1306   .text.HAL_FLASHEx_OBGetConfig:00000000 HAL_FLASHEx_OBGetConfig
Build/stm32l4xx_hal_flash_ex.s:1388   .text.FLASH_PageErase:00000000 $t
Build/stm32l4xx_hal_flash_ex.s:1394   .text.FLASH_PageErase:00000000 FLASH_PageErase
Build/stm32l4xx_hal_flash_ex.s:1445   .text.FLASH_PageErase:00000040 $d
Build/stm32l4xx_hal_flash_ex.s:1450   .text.HAL_FLASHEx_Erase_IT:00000000 $t
Build/stm32l4xx_hal_flash_ex.s:1456   .text.HAL_FLASHEx_Erase_IT:00000000 HAL_FLASHEx_Erase_IT
Build/stm32l4xx_hal_flash_ex.s:1621   .text.HAL_FLASHEx_Erase_IT:000000a8 $d
Build/stm32l4xx_hal_flash_ex.s:1627   .text.FLASH_FlushCaches:00000000 $t
Build/stm32l4xx_hal_flash_ex.s:1633   .text.FLASH_FlushCaches:00000000 FLASH_FlushCaches
Build/stm32l4xx_hal_flash_ex.s:1712   .text.FLASH_FlushCaches:0000005c $d
Build/stm32l4xx_hal_flash_ex.s:1718   .text.HAL_FLASHEx_Erase:00000000 $t
Build/stm32l4xx_hal_flash_ex.s:1724   .text.HAL_FLASHEx_Erase:00000000 HAL_FLASHEx_Erase
Build/stm32l4xx_hal_flash_ex.s:1936   .text.HAL_FLASHEx_Erase:000000ec $d
Build/stm32l4xx_hal_flash_ex.s:91     .text.FLASH_OB_GetWRP:0000000d $d
Build/stm32l4xx_hal_flash_ex.s:91     .text.FLASH_OB_GetWRP:0000000e $t
Build/stm32l4xx_hal_flash_ex.s:498    .text.FLASH_OB_WRPConfig:0000001f $d
Build/stm32l4xx_hal_flash_ex.s:498    .text.FLASH_OB_WRPConfig:00000020 $t

UNDEFINED SYMBOLS
FLASH_WaitForLastOperation
pFlash
