	.cpu cortex-m3
	.arch armv7-m
	.fpu softvfp
	.eabi_attribute 20, 1
	.eabi_attribute 21, 1
	.eabi_attribute 23, 3
	.eabi_attribute 24, 1
	.eabi_attribute 25, 1
	.eabi_attribute 26, 1
	.eabi_attribute 30, 1
	.eabi_attribute 34, 1
	.eabi_attribute 18, 4
	.file	"stm32l4xx_hal_qspi.c"
	.text
.Ltext0:
	.cfi_sections	.debug_frame
	.file 1 "../Drivers/STM32L4xx_HAL_Driver/Src/stm32l4xx_hal_qspi.c"
	.section	.text.QSPI_DMARxCplt,"ax",%progbits
	.align	1
	.syntax unified
	.thumb
	.thumb_func
	.type	QSPI_DMARxCplt, %function
QSPI_DMARxCplt:
.LVL0:
.LFB107:
	.loc 1 2511 1 view -0
	.cfi_startproc
	@ args = 0, pretend = 0, frame = 0
	@ frame_needed = 0, uses_anonymous_args = 0
	@ link register save eliminated.
	.loc 1 2512 3 view .LVU1
	.loc 1 2512 23 is_stmt 0 view .LVU2
	ldr	r3, [r0, #40]
.LVL1:
	.loc 1 2513 3 is_stmt 1 view .LVU3
	.loc 1 2513 22 is_stmt 0 view .LVU4
	movs	r2, #0
	str	r2, [r3, #48]
	.loc 1 2516 3 is_stmt 1 view .LVU5
	ldr	r2, [r3]
	ldr	r3, [r2]
.LVL2:
	.loc 1 2516 3 is_stmt 0 view .LVU6
	orr	r3, r3, #131072
	str	r3, [r2]
	.loc 1 2517 1 view .LVU7
	bx	lr
	.cfi_endproc
.LFE107:
	.size	QSPI_DMARxCplt, .-QSPI_DMARxCplt
	.section	.text.QSPI_DMATxCplt,"ax",%progbits
	.align	1
	.syntax unified
	.thumb
	.thumb_func
	.type	QSPI_DMATxCplt, %function
QSPI_DMATxCplt:
.LVL3:
.LFB108:
	.loc 1 2525 1 is_stmt 1 view -0
	.cfi_startproc
	@ args = 0, pretend = 0, frame = 0
	@ frame_needed = 0, uses_anonymous_args = 0
	@ link register save eliminated.
	.loc 1 2526 3 view .LVU9
	.loc 1 2526 23 is_stmt 0 view .LVU10
	ldr	r3, [r0, #40]
.LVL4:
	.loc 1 2527 3 is_stmt 1 view .LVU11
	.loc 1 2527 22 is_stmt 0 view .LVU12
	movs	r2, #0
	str	r2, [r3, #36]
	.loc 1 2530 3 is_stmt 1 view .LVU13
	ldr	r2, [r3]
	ldr	r3, [r2]
.LVL5:
	.loc 1 2530 3 is_stmt 0 view .LVU14
	orr	r3, r3, #131072
	str	r3, [r2]
	.loc 1 2531 1 view .LVU15
	bx	lr
	.cfi_endproc
.LFE108:
	.size	QSPI_DMATxCplt, .-QSPI_DMATxCplt
	.section	.text.QSPI_Config,"ax",%progbits
	.align	1
	.syntax unified
	.thumb
	.thumb_func
	.type	QSPI_Config, %function
QSPI_Config:
.LVL6:
.LFB114:
	.loc 1 2668 1 is_stmt 1 view -0
	.cfi_startproc
	@ args = 0, pretend = 0, frame = 0
	@ frame_needed = 0, uses_anonymous_args = 0
	@ link register save eliminated.
	.loc 1 2668 1 is_stmt 0 view .LVU17
	push	{r4, r5, r6, r7}
.LCFI0:
	.cfi_def_cfa_offset 16
	.cfi_offset 4, -16
	.cfi_offset 5, -12
	.cfi_offset 6, -8
	.cfi_offset 7, -4
	.loc 1 2669 3 is_stmt 1 view .LVU18
	.loc 1 2671 3 view .LVU19
	.loc 1 2671 11 is_stmt 0 view .LVU20
	ldr	r3, [r1, #36]
	.loc 1 2671 6 view .LVU21
	cbz	r3, .L4
	.loc 1 2671 41 discriminator 1 view .LVU22
	cmp	r2, #201326592
	beq	.L4
	.loc 1 2674 5 is_stmt 1 view .LVU23
	ldr	r3, [r1, #40]
	ldr	r4, [r0]
	subs	r3, r3, #1
	str	r3, [r4, #16]
.L4:
	.loc 1 2677 3 view .LVU24
	.loc 1 2677 10 is_stmt 0 view .LVU25
	ldr	r4, [r1, #24]
	.loc 1 2677 6 view .LVU26
	cmp	r4, #0
	beq	.L5
	.loc 1 2679 5 is_stmt 1 view .LVU27
	.loc 1 2679 12 is_stmt 0 view .LVU28
	ldr	r6, [r1, #32]
	.loc 1 2679 8 view .LVU29
	cmp	r6, #0
	beq	.L6
	.loc 1 2682 7 is_stmt 1 view .LVU30
	ldr	r3, [r0]
	ldr	r4, [r1, #8]
	str	r4, [r3, #28]
	.loc 1 2684 7 view .LVU31
	.loc 1 2684 14 is_stmt 0 view .LVU32
	ldr	r4, [r1, #28]
	.loc 1 2684 10 view .LVU33
	cbz	r4, .L7
	.loc 1 2688 9 is_stmt 1 view .LVU34
	ldr	r3, [r1, #44]
	ldr	r5, [r1, #48]
	orrs	r3, r3, r5
	ldr	r5, [r1, #52]
	orrs	r3, r3, r5
	ldr	r5, [r1, #36]
	orrs	r3, r3, r5
	ldr	r5, [r1, #20]
	orr	r3, r3, r5, lsl #18
	ldr	r5, [r1, #16]
	orrs	r3, r3, r5
	ldr	r5, [r1, #32]
	orrs	r3, r3, r5
	ldr	r5, [r1, #12]
	orrs	r3, r3, r5
	orrs	r3, r3, r4
	ldr	r4, [r1, #24]
	orrs	r3, r3, r4
	ldr	r4, [r1]
	orrs	r3, r3, r4
	ldr	r4, [r0]
	orrs	r3, r3, r2
	str	r3, [r4, #20]
	.loc 1 2694 9 view .LVU35
	.loc 1 2694 12 is_stmt 0 view .LVU36
	cmp	r2, #201326592
	beq	.L3
	.loc 1 2697 11 is_stmt 1 view .LVU37
	ldr	r3, [r0]
	ldr	r2, [r1, #4]
.LVL7:
	.loc 1 2697 11 is_stmt 0 view .LVU38
	str	r2, [r3, #24]
	b	.L3
.LVL8:
.L7:
	.loc 1 2704 9 is_stmt 1 view .LVU39
	ldr	r3, [r1, #44]
	ldr	r5, [r1, #48]
	orrs	r3, r3, r5
	ldr	r5, [r1, #52]
	orrs	r3, r3, r5
	ldr	r5, [r1, #36]
	orrs	r3, r3, r5
	ldr	r5, [r1, #20]
	orr	r3, r3, r5, lsl #18
	ldr	r5, [r1, #16]
	orrs	r3, r3, r5
	ldr	r5, [r1, #32]
	orrs	r3, r3, r5
	orrs	r3, r3, r4
	ldr	r4, [r1, #24]
	orrs	r3, r3, r4
	ldr	r1, [r1]
.LVL9:
	.loc 1 2704 9 is_stmt 0 view .LVU40
	orrs	r3, r3, r1
	ldr	r1, [r0]
	orrs	r3, r3, r2
	str	r3, [r1, #20]
	.loc 1 2711 9 is_stmt 1 view .LVU41
	ldr	r3, [r0]
	movs	r2, #0
.LVL10:
	.loc 1 2711 9 is_stmt 0 view .LVU42
	str	r2, [r3, #24]
.L3:
	.loc 1 2815 1 view .LVU43
	pop	{r4, r5, r6, r7}
.LCFI1:
	.cfi_remember_state
	.cfi_restore 7
	.cfi_restore 6
	.cfi_restore 5
	.cfi_restore 4
	.cfi_def_cfa_offset 0
	bx	lr
.LVL11:
.L6:
.LCFI2:
	.cfi_restore_state
	.loc 1 2716 7 is_stmt 1 view .LVU44
	.loc 1 2716 14 is_stmt 0 view .LVU45
	ldr	r5, [r1, #28]
	.loc 1 2716 10 view .LVU46
	cbz	r5, .L9
	.loc 1 2720 9 is_stmt 1 view .LVU47
	ldr	r3, [r1, #44]
	ldr	r7, [r1, #48]
	orrs	r3, r3, r7
	ldr	r7, [r1, #52]
	orrs	r3, r3, r7
	ldr	r7, [r1, #36]
	orrs	r3, r3, r7
	ldr	r7, [r1, #20]
	orr	r3, r3, r7, lsl #18
	orrs	r3, r3, r6
	ldr	r6, [r1, #12]
	orrs	r3, r3, r6
	orrs	r3, r3, r5
	orrs	r3, r3, r4
	ldr	r4, [r1]
	orrs	r3, r3, r4
	ldr	r4, [r0]
	orrs	r3, r3, r2
	str	r3, [r4, #20]
	.loc 1 2725 9 view .LVU48
	.loc 1 2725 12 is_stmt 0 view .LVU49
	cmp	r2, #201326592
	beq	.L3
	.loc 1 2728 11 is_stmt 1 view .LVU50
	ldr	r3, [r0]
	ldr	r2, [r1, #4]
.LVL12:
	.loc 1 2728 11 is_stmt 0 view .LVU51
	str	r2, [r3, #24]
	b	.L3
.LVL13:
.L9:
	.loc 1 2735 9 is_stmt 1 view .LVU52
	ldr	r3, [r1, #44]
	ldr	r7, [r1, #48]
	orrs	r3, r3, r7
	ldr	r7, [r1, #52]
	orrs	r3, r3, r7
	ldr	r7, [r1, #36]
	orrs	r3, r3, r7
	ldr	r7, [r1, #20]
	orr	r3, r3, r7, lsl #18
	orrs	r6, r6, r3
	orr	r3, r5, r6
	orrs	r3, r3, r4
	ldr	r1, [r1]
.LVL14:
	.loc 1 2735 9 is_stmt 0 view .LVU53
	orrs	r3, r3, r1
	ldr	r1, [r0]
	orrs	r3, r3, r2
	str	r3, [r1, #20]
	.loc 1 2741 9 is_stmt 1 view .LVU54
	ldr	r3, [r0]
	movs	r2, #0
.LVL15:
	.loc 1 2741 9 is_stmt 0 view .LVU55
	str	r2, [r3, #24]
	b	.L3
.LVL16:
.L5:
	.loc 1 2747 5 is_stmt 1 view .LVU56
	.loc 1 2747 12 is_stmt 0 view .LVU57
	ldr	r5, [r1, #32]
	.loc 1 2747 8 view .LVU58
	cmp	r5, #0
	beq	.L10
	.loc 1 2750 7 is_stmt 1 view .LVU59
	ldr	r3, [r0]
	ldr	r4, [r1, #8]
	str	r4, [r3, #28]
	.loc 1 2752 7 view .LVU60
	.loc 1 2752 14 is_stmt 0 view .LVU61
	ldr	r4, [r1, #28]
	.loc 1 2752 10 view .LVU62
	cbz	r4, .L11
	.loc 1 2756 9 is_stmt 1 view .LVU63
	ldr	r3, [r1, #44]
	ldr	r5, [r1, #48]
	orrs	r3, r3, r5
	ldr	r5, [r1, #52]
	orrs	r3, r3, r5
	ldr	r5, [r1, #36]
	orrs	r3, r3, r5
	ldr	r5, [r1, #20]
	orr	r3, r3, r5, lsl #18
	ldr	r5, [r1, #16]
	orrs	r3, r3, r5
	ldr	r5, [r1, #32]
	orrs	r3, r3, r5
	ldr	r5, [r1, #12]
	orrs	r3, r3, r5
	orrs	r3, r3, r4
	ldr	r4, [r1, #24]
	orrs	r3, r3, r4
	ldr	r4, [r0]
	orrs	r3, r3, r2
	str	r3, [r4, #20]
	.loc 1 2762 9 view .LVU64
	.loc 1 2762 12 is_stmt 0 view .LVU65
	cmp	r2, #201326592
	beq	.L3
	.loc 1 2765 11 is_stmt 1 view .LVU66
	ldr	r3, [r0]
	ldr	r2, [r1, #4]
.LVL17:
	.loc 1 2765 11 is_stmt 0 view .LVU67
	str	r2, [r3, #24]
	b	.L3
.LVL18:
.L11:
	.loc 1 2772 9 is_stmt 1 view .LVU68
	ldr	r3, [r1, #44]
	ldr	r5, [r1, #48]
	orrs	r3, r3, r5
	ldr	r5, [r1, #52]
	orrs	r3, r3, r5
	ldr	r5, [r1, #36]
	orrs	r3, r3, r5
	ldr	r5, [r1, #20]
	orr	r3, r3, r5, lsl #18
	ldr	r5, [r1, #16]
	orrs	r3, r3, r5
	ldr	r5, [r1, #32]
	orrs	r3, r3, r5
	orrs	r4, r4, r3
	ldr	r3, [r1, #24]
	orrs	r4, r4, r3
	ldr	r3, [r0]
	orrs	r4, r4, r2
	str	r4, [r3, #20]
	.loc 1 2778 9 view .LVU69
	ldr	r3, [r0]
	movs	r2, #0
.LVL19:
	.loc 1 2778 9 is_stmt 0 view .LVU70
	str	r2, [r3, #24]
	b	.L3
.LVL20:
.L10:
	.loc 1 2783 7 is_stmt 1 view .LVU71
	.loc 1 2783 14 is_stmt 0 view .LVU72
	ldr	r6, [r1, #28]
	.loc 1 2783 10 view .LVU73
	cbz	r6, .L12
	.loc 1 2787 9 is_stmt 1 view .LVU74
	ldr	r3, [r1, #44]
	ldr	r7, [r1, #48]
	orrs	r3, r3, r7
	ldr	r7, [r1, #52]
	orrs	r3, r3, r7
	ldr	r7, [r1, #36]
	orrs	r3, r3, r7
	ldr	r7, [r1, #20]
	orr	r3, r3, r7, lsl #18
	orrs	r3, r3, r5
	ldr	r5, [r1, #12]
	orrs	r3, r3, r5
	orrs	r3, r3, r6
	orrs	r3, r3, r4
	ldr	r4, [r0]
	orrs	r3, r3, r2
	str	r3, [r4, #20]
	.loc 1 2792 9 view .LVU75
	.loc 1 2792 12 is_stmt 0 view .LVU76
	cmp	r2, #201326592
	beq	.L3
	.loc 1 2795 11 is_stmt 1 view .LVU77
	ldr	r3, [r0]
	ldr	r2, [r1, #4]
.LVL21:
	.loc 1 2795 11 is_stmt 0 view .LVU78
	str	r2, [r3, #24]
	b	.L3
.LVL22:
.L12:
	.loc 1 2801 9 is_stmt 1 view .LVU79
	.loc 1 2801 16 is_stmt 0 view .LVU80
	ldr	ip, [r1, #36]
	.loc 1 2801 12 view .LVU81
	cmp	ip, #0
	beq	.L3
	.loc 1 2804 11 is_stmt 1 view .LVU82
	ldr	r3, [r1, #44]
	ldr	r7, [r1, #48]
	orrs	r3, r3, r7
	ldr	r7, [r1, #52]
	orrs	r3, r3, r7
	orr	r7, ip, r3
	ldr	r3, [r1, #20]
	orr	r7, r7, r3, lsl #18
	orrs	r5, r5, r7
	orrs	r6, r6, r5
	orrs	r4, r4, r6
	ldr	r3, [r0]
	orrs	r4, r4, r2
	str	r4, [r3, #20]
	.loc 1 2810 11 view .LVU83
	ldr	r3, [r0]
	movs	r2, #0
.LVL23:
	.loc 1 2810 11 is_stmt 0 view .LVU84
	str	r2, [r3, #24]
	.loc 1 2815 1 view .LVU85
	b	.L3
	.cfi_endproc
.LFE114:
	.size	QSPI_Config, .-QSPI_Config
	.section	.text.QSPI_WaitFlagStateUntilTimeout,"ax",%progbits
	.align	1
	.syntax unified
	.thumb
	.thumb_func
	.type	QSPI_WaitFlagStateUntilTimeout, %function
QSPI_WaitFlagStateUntilTimeout:
.LVL24:
.LFB113:
	.loc 1 2636 1 is_stmt 1 view -0
	.cfi_startproc
	@ args = 4, pretend = 0, frame = 0
	@ frame_needed = 0, uses_anonymous_args = 0
	.loc 1 2636 1 is_stmt 0 view .LVU87
	push	{r3, r4, r5, r6, r7, r8, r9, lr}
.LCFI3:
	.cfi_def_cfa_offset 32
	.cfi_offset 3, -32
	.cfi_offset 4, -28
	.cfi_offset 5, -24
	.cfi_offset 6, -20
	.cfi_offset 7, -16
	.cfi_offset 8, -12
	.cfi_offset 9, -8
	.cfi_offset 14, -4
	mov	r5, r0
	mov	r7, r1
	mov	r6, r2
	mov	r9, r3
	ldr	r8, [sp, #32]
	.loc 1 2638 3 is_stmt 1 view .LVU88
.LVL25:
.L16:
	.loc 1 2638 44 view .LVU89
	.loc 1 2638 10 is_stmt 0 view .LVU90
	ldr	r4, [r5]
	ldr	r4, [r4, #8]
	tst	r4, r7
	ite	ne
	movne	ip, #1
	moveq	ip, #0
	.loc 1 2638 44 view .LVU91
	cmp	ip, r6
	beq	.L21
	.loc 1 2641 5 is_stmt 1 view .LVU92
	.loc 1 2641 8 is_stmt 0 view .LVU93
	cmp	r8, #-1
	beq	.L16
	.loc 1 2643 7 is_stmt 1 view .LVU94
	.loc 1 2643 12 is_stmt 0 view .LVU95
	bl	HAL_GetTick
.LVL26:
	.loc 1 2643 26 view .LVU96
	sub	r0, r0, r9
	.loc 1 2643 9 view .LVU97
	cmp	r0, r8
	bhi	.L17
	.loc 1 2643 50 discriminator 1 view .LVU98
	cmp	r8, #0
	bne	.L16
.L17:
	.loc 1 2645 9 is_stmt 1 view .LVU99
	.loc 1 2645 26 is_stmt 0 view .LVU100
	movs	r3, #4
	strb	r3, [r5, #57]
	.loc 1 2646 9 is_stmt 1 view .LVU101
	.loc 1 2646 14 is_stmt 0 view .LVU102
	ldr	r3, [r5, #60]
	.loc 1 2646 26 view .LVU103
	orr	r3, r3, #1
	str	r3, [r5, #60]
	.loc 1 2648 9 is_stmt 1 view .LVU104
	.loc 1 2648 16 is_stmt 0 view .LVU105
	movs	r0, #1
	b	.L18
.L21:
	.loc 1 2652 10 view .LVU106
	movs	r0, #0
.L18:
	.loc 1 2653 1 view .LVU107
	pop	{r3, r4, r5, r6, r7, r8, r9, pc}
	.loc 1 2653 1 view .LVU108
	.cfi_endproc
.LFE113:
	.size	QSPI_WaitFlagStateUntilTimeout, .-QSPI_WaitFlagStateUntilTimeout
	.section	.text.HAL_QSPI_MspInit,"ax",%progbits
	.align	1
	.weak	HAL_QSPI_MspInit
	.syntax unified
	.thumb
	.thumb_func
	.type	HAL_QSPI_MspInit, %function
HAL_QSPI_MspInit:
.LVL27:
.LFB76:
	.loc 1 442 1 is_stmt 1 view -0
	.cfi_startproc
	@ args = 0, pretend = 0, frame = 0
	@ frame_needed = 0, uses_anonymous_args = 0
	@ link register save eliminated.
	.loc 1 444 3 view .LVU110
	.loc 1 449 1 is_stmt 0 view .LVU111
	bx	lr
	.cfi_endproc
.LFE76:
	.size	HAL_QSPI_MspInit, .-HAL_QSPI_MspInit
	.section	.text.HAL_QSPI_MspDeInit,"ax",%progbits
	.align	1
	.weak	HAL_QSPI_MspDeInit
	.syntax unified
	.thumb
	.thumb_func
	.type	HAL_QSPI_MspDeInit, %function
HAL_QSPI_MspDeInit:
.LVL28:
.LFB77:
	.loc 1 457 1 is_stmt 1 view -0
	.cfi_startproc
	@ args = 0, pretend = 0, frame = 0
	@ frame_needed = 0, uses_anonymous_args = 0
	@ link register save eliminated.
	.loc 1 459 3 view .LVU113
	.loc 1 464 1 is_stmt 0 view .LVU114
	bx	lr
	.cfi_endproc
.LFE77:
	.size	HAL_QSPI_MspDeInit, .-HAL_QSPI_MspDeInit
	.section	.text.HAL_QSPI_DeInit,"ax",%progbits
	.align	1
	.global	HAL_QSPI_DeInit
	.syntax unified
	.thumb
	.thumb_func
	.type	HAL_QSPI_DeInit, %function
HAL_QSPI_DeInit:
.LVL29:
.LFB75:
	.loc 1 401 1 is_stmt 1 view -0
	.cfi_startproc
	@ args = 0, pretend = 0, frame = 0
	@ frame_needed = 0, uses_anonymous_args = 0
	.loc 1 403 3 view .LVU116
	.loc 1 403 5 is_stmt 0 view .LVU117
	cbz	r0, .L26
	.loc 1 401 1 view .LVU118
	push	{r4, lr}
.LCFI4:
	.cfi_def_cfa_offset 8
	.cfi_offset 4, -8
	.cfi_offset 14, -4
	mov	r4, r0
	.loc 1 409 3 is_stmt 1 view .LVU119
	ldr	r2, [r0]
	ldr	r3, [r2]
	bic	r3, r3, #1
	str	r3, [r2]
	.loc 1 421 3 view .LVU120
	bl	HAL_QSPI_MspDeInit
.LVL30:
	.loc 1 425 3 view .LVU121
	.loc 1 425 20 is_stmt 0 view .LVU122
	movs	r0, #0
	str	r0, [r4, #60]
	.loc 1 428 3 is_stmt 1 view .LVU123
	.loc 1 428 16 is_stmt 0 view .LVU124
	strb	r0, [r4, #57]
	.loc 1 431 3 is_stmt 1 view .LVU125
	.loc 1 431 3 view .LVU126
	strb	r0, [r4, #56]
	.loc 1 431 3 view .LVU127
	.loc 1 433 3 view .LVU128
	.loc 1 434 1 is_stmt 0 view .LVU129
	pop	{r4, pc}
.LVL31:
.L26:
.LCFI5:
	.cfi_def_cfa_offset 0
	.cfi_restore 4
	.cfi_restore 14
	.loc 1 405 12 view .LVU130
	movs	r0, #1
.LVL32:
	.loc 1 434 1 view .LVU131
	bx	lr
	.cfi_endproc
.LFE75:
	.size	HAL_QSPI_DeInit, .-HAL_QSPI_DeInit
	.section	.text.HAL_QSPI_Command,"ax",%progbits
	.align	1
	.global	HAL_QSPI_Command
	.syntax unified
	.thumb
	.thumb_func
	.type	HAL_QSPI_Command, %function
HAL_QSPI_Command:
.LVL33:
.LFB79:
	.loc 1 793 1 is_stmt 1 view -0
	.cfi_startproc
	@ args = 0, pretend = 0, frame = 0
	@ frame_needed = 0, uses_anonymous_args = 0
	.loc 1 793 1 is_stmt 0 view .LVU133
	push	{r4, r5, r6, r7, r8, lr}
.LCFI6:
	.cfi_def_cfa_offset 24
	.cfi_offset 4, -24
	.cfi_offset 5, -20
	.cfi_offset 6, -16
	.cfi_offset 7, -12
	.cfi_offset 8, -8
	.cfi_offset 14, -4
	sub	sp, sp, #8
.LCFI7:
	.cfi_def_cfa_offset 32
	mov	r4, r0
	mov	r7, r1
	mov	r6, r2
	.loc 1 794 3 is_stmt 1 view .LVU134
	.loc 1 795 3 view .LVU135
	.loc 1 795 24 is_stmt 0 view .LVU136
	bl	HAL_GetTick
.LVL34:
	.loc 1 798 3 is_stmt 1 view .LVU137
	.loc 1 799 3 view .LVU138
	.loc 1 801 5 view .LVU139
	.loc 1 804 3 view .LVU140
	.loc 1 805 3 view .LVU141
	.loc 1 807 5 view .LVU142
	.loc 1 810 3 view .LVU143
	.loc 1 811 3 view .LVU144
	.loc 1 813 5 view .LVU145
	.loc 1 816 3 view .LVU146
	.loc 1 817 3 view .LVU147
	.loc 1 819 3 view .LVU148
	.loc 1 820 3 view .LVU149
	.loc 1 821 3 view .LVU150
	.loc 1 824 3 view .LVU151
	.loc 1 824 3 view .LVU152
	ldrb	ip, [r4, #56]	@ zero_extendqisi2
	uxtb	ip, ip
	cmp	ip, #1
	beq	.L35
	mov	r5, r0
	.loc 1 824 3 discriminator 2 view .LVU153
	movs	r3, #1
	strb	r3, [r4, #56]
	.loc 1 824 3 discriminator 2 view .LVU154
	.loc 1 826 3 discriminator 2 view .LVU155
	.loc 1 826 11 is_stmt 0 discriminator 2 view .LVU156
	ldrb	ip, [r4, #57]	@ zero_extendqisi2
	uxtb	ip, ip
	.loc 1 826 5 discriminator 2 view .LVU157
	cmp	ip, r3
	beq	.L38
	.loc 1 864 12 view .LVU158
	mov	r8, #2
.LVL35:
.L33:
	.loc 1 868 3 is_stmt 1 view .LVU159
	.loc 1 868 3 view .LVU160
	movs	r3, #0
	strb	r3, [r4, #56]
	.loc 1 868 3 view .LVU161
	.loc 1 871 3 view .LVU162
.LVL36:
.L32:
	.loc 1 872 1 is_stmt 0 view .LVU163
	mov	r0, r8
	add	sp, sp, #8
.LCFI8:
	.cfi_remember_state
	.cfi_def_cfa_offset 24
	@ sp needed
	pop	{r4, r5, r6, r7, r8, pc}
.LVL37:
.L38:
.LCFI9:
	.cfi_restore_state
	.loc 1 828 5 is_stmt 1 view .LVU164
	.loc 1 828 22 is_stmt 0 view .LVU165
	movs	r2, #0
	str	r2, [r4, #60]
	.loc 1 831 5 is_stmt 1 view .LVU166
	.loc 1 831 18 is_stmt 0 view .LVU167
	movs	r3, #2
	strb	r3, [r4, #57]
	.loc 1 834 5 is_stmt 1 view .LVU168
	.loc 1 834 14 is_stmt 0 view .LVU169
	str	r6, [sp]
	mov	r3, r0
	movs	r1, #32
	mov	r0, r4
.LVL38:
	.loc 1 834 14 view .LVU170
	bl	QSPI_WaitFlagStateUntilTimeout
.LVL39:
	.loc 1 836 5 is_stmt 1 view .LVU171
	.loc 1 836 8 is_stmt 0 view .LVU172
	mov	r8, r0
	cmp	r0, #0
	bne	.L33
	.loc 1 839 7 is_stmt 1 view .LVU173
	movs	r2, #0
	mov	r1, r7
	mov	r0, r4
.LVL40:
	.loc 1 839 7 is_stmt 0 view .LVU174
	bl	QSPI_Config
.LVL41:
	.loc 1 841 7 is_stmt 1 view .LVU175
	.loc 1 841 14 is_stmt 0 view .LVU176
	ldr	r3, [r7, #36]
	.loc 1 841 10 view .LVU177
	cbz	r3, .L39
	.loc 1 858 9 is_stmt 1 view .LVU178
	.loc 1 858 22 is_stmt 0 view .LVU179
	movs	r3, #1
	strb	r3, [r4, #57]
	b	.L33
.L39:
	.loc 1 845 9 is_stmt 1 view .LVU180
	.loc 1 845 18 is_stmt 0 view .LVU181
	str	r6, [sp]
	mov	r3, r5
	movs	r2, #1
	movs	r1, #2
	mov	r0, r4
	bl	QSPI_WaitFlagStateUntilTimeout
.LVL42:
	.loc 1 847 9 is_stmt 1 view .LVU182
	.loc 1 847 12 is_stmt 0 view .LVU183
	mov	r8, r0
	cmp	r0, #0
	bne	.L33
	.loc 1 849 11 is_stmt 1 view .LVU184
	ldr	r3, [r4]
	movs	r2, #2
	str	r2, [r3, #12]
	.loc 1 852 11 view .LVU185
	.loc 1 852 24 is_stmt 0 view .LVU186
	movs	r3, #1
	strb	r3, [r4, #57]
	b	.L33
.LVL43:
.L35:
	.loc 1 824 3 view .LVU187
	mov	r8, #2
	b	.L32
	.cfi_endproc
.LFE79:
	.size	HAL_QSPI_Command, .-HAL_QSPI_Command
	.section	.text.HAL_QSPI_Command_IT,"ax",%progbits
	.align	1
	.global	HAL_QSPI_Command_IT
	.syntax unified
	.thumb
	.thumb_func
	.type	HAL_QSPI_Command_IT, %function
HAL_QSPI_Command_IT:
.LVL44:
.LFB80:
	.loc 1 882 1 is_stmt 1 view -0
	.cfi_startproc
	@ args = 0, pretend = 0, frame = 0
	@ frame_needed = 0, uses_anonymous_args = 0
	.loc 1 882 1 is_stmt 0 view .LVU189
	push	{r4, r5, r6, lr}
.LCFI10:
	.cfi_def_cfa_offset 16
	.cfi_offset 4, -16
	.cfi_offset 5, -12
	.cfi_offset 6, -8
	.cfi_offset 14, -4
	sub	sp, sp, #8
.LCFI11:
	.cfi_def_cfa_offset 24
	mov	r4, r0
	mov	r5, r1
	.loc 1 883 3 is_stmt 1 view .LVU190
	.loc 1 884 3 view .LVU191
	.loc 1 884 24 is_stmt 0 view .LVU192
	bl	HAL_GetTick
.LVL45:
	.loc 1 887 3 is_stmt 1 view .LVU193
	.loc 1 888 3 view .LVU194
	.loc 1 890 5 view .LVU195
	.loc 1 893 3 view .LVU196
	.loc 1 894 3 view .LVU197
	.loc 1 896 5 view .LVU198
	.loc 1 899 3 view .LVU199
	.loc 1 900 3 view .LVU200
	.loc 1 902 5 view .LVU201
	.loc 1 905 3 view .LVU202
	.loc 1 906 3 view .LVU203
	.loc 1 908 3 view .LVU204
	.loc 1 909 3 view .LVU205
	.loc 1 910 3 view .LVU206
	.loc 1 913 3 view .LVU207
	.loc 1 913 3 view .LVU208
	ldrb	r2, [r4, #56]	@ zero_extendqisi2
	uxtb	r2, r2
	cmp	r2, #1
	beq	.L46
	.loc 1 913 3 discriminator 2 view .LVU209
	movs	r3, #1
	strb	r3, [r4, #56]
	.loc 1 913 3 discriminator 2 view .LVU210
	.loc 1 915 3 discriminator 2 view .LVU211
	.loc 1 915 11 is_stmt 0 discriminator 2 view .LVU212
	ldrb	r2, [r4, #57]	@ zero_extendqisi2
	uxtb	r2, r2
	.loc 1 915 5 discriminator 2 view .LVU213
	cmp	r2, r3
	beq	.L48
	.loc 1 963 5 is_stmt 1 view .LVU214
.LVL46:
	.loc 1 966 5 view .LVU215
	.loc 1 966 5 view .LVU216
	movs	r3, #0
	strb	r3, [r4, #56]
	.loc 1 963 12 is_stmt 0 view .LVU217
	movs	r6, #2
.LVL47:
.L41:
	.loc 1 971 1 view .LVU218
	mov	r0, r6
	add	sp, sp, #8
.LCFI12:
	.cfi_remember_state
	.cfi_def_cfa_offset 16
	@ sp needed
	pop	{r4, r5, r6, pc}
.LVL48:
.L48:
.LCFI13:
	.cfi_restore_state
	.loc 1 917 5 is_stmt 1 view .LVU219
	.loc 1 917 22 is_stmt 0 view .LVU220
	movs	r2, #0
	str	r2, [r4, #60]
	.loc 1 920 5 is_stmt 1 view .LVU221
	.loc 1 920 18 is_stmt 0 view .LVU222
	movs	r3, #2
	strb	r3, [r4, #57]
	.loc 1 923 5 is_stmt 1 view .LVU223
	.loc 1 923 14 is_stmt 0 view .LVU224
	ldr	r3, [r4, #64]
	str	r3, [sp]
	mov	r3, r0
	movs	r1, #32
	mov	r0, r4
.LVL49:
	.loc 1 923 14 view .LVU225
	bl	QSPI_WaitFlagStateUntilTimeout
.LVL50:
	.loc 1 925 5 is_stmt 1 view .LVU226
	.loc 1 925 8 is_stmt 0 view .LVU227
	mov	r6, r0
	cbnz	r0, .L43
	.loc 1 927 7 is_stmt 1 view .LVU228
	.loc 1 927 14 is_stmt 0 view .LVU229
	ldr	r3, [r5, #36]
	.loc 1 927 10 view .LVU230
	cbnz	r3, .L44
	.loc 1 930 9 is_stmt 1 view .LVU231
	ldr	r3, [r4]
	movs	r2, #3
	str	r2, [r3, #12]
.L44:
	.loc 1 934 7 view .LVU232
	movs	r2, #0
	mov	r1, r5
	mov	r0, r4
.LVL51:
	.loc 1 934 7 is_stmt 0 view .LVU233
	bl	QSPI_Config
.LVL52:
	.loc 1 936 7 is_stmt 1 view .LVU234
	.loc 1 936 14 is_stmt 0 view .LVU235
	ldr	r3, [r5, #36]
	.loc 1 936 10 view .LVU236
	cbnz	r3, .L45
	.loc 1 941 9 is_stmt 1 view .LVU237
	.loc 1 941 9 view .LVU238
	strb	r3, [r4, #56]
	.loc 1 941 9 view .LVU239
	.loc 1 944 9 view .LVU240
	ldr	r2, [r4]
	ldr	r3, [r2]
	orr	r3, r3, #196608
	str	r3, [r2]
	b	.L41
.L45:
	.loc 1 949 9 view .LVU241
	.loc 1 949 22 is_stmt 0 view .LVU242
	movs	r3, #1
	strb	r3, [r4, #57]
	.loc 1 952 9 is_stmt 1 view .LVU243
	.loc 1 952 9 view .LVU244
	movs	r3, #0
	strb	r3, [r4, #56]
	b	.L41
.LVL53:
.L43:
	.loc 1 958 7 discriminator 1 view .LVU245
	.loc 1 958 7 discriminator 1 view .LVU246
	movs	r3, #0
	strb	r3, [r4, #56]
	b	.L41
.LVL54:
.L46:
	.loc 1 913 3 is_stmt 0 view .LVU247
	movs	r6, #2
	b	.L41
	.cfi_endproc
.LFE80:
	.size	HAL_QSPI_Command_IT, .-HAL_QSPI_Command_IT
	.section	.text.HAL_QSPI_Transmit_IT,"ax",%progbits
	.align	1
	.global	HAL_QSPI_Transmit_IT
	.syntax unified
	.thumb
	.thumb_func
	.type	HAL_QSPI_Transmit_IT, %function
HAL_QSPI_Transmit_IT:
.LVL55:
.LFB83:
	.loc 1 1158 1 is_stmt 1 view -0
	.cfi_startproc
	@ args = 0, pretend = 0, frame = 0
	@ frame_needed = 0, uses_anonymous_args = 0
	@ link register save eliminated.
	.loc 1 1158 1 is_stmt 0 view .LVU249
	mov	r3, r0
	.loc 1 1159 3 is_stmt 1 view .LVU250
.LVL56:
	.loc 1 1162 3 view .LVU251
	.loc 1 1162 3 view .LVU252
	ldrb	r2, [r0, #56]	@ zero_extendqisi2
	uxtb	r2, r2
	cmp	r2, #1
	beq	.L53
	.loc 1 1162 3 discriminator 2 view .LVU253
	movs	r2, #1
	strb	r2, [r0, #56]
	.loc 1 1162 3 discriminator 2 view .LVU254
	.loc 1 1164 3 discriminator 2 view .LVU255
	.loc 1 1164 11 is_stmt 0 discriminator 2 view .LVU256
	ldrb	r0, [r0, #57]	@ zero_extendqisi2
.LVL57:
	.loc 1 1164 11 discriminator 2 view .LVU257
	uxtb	r0, r0
	.loc 1 1164 5 discriminator 2 view .LVU258
	cmp	r0, r2
	beq	.L54
	.loc 1 1201 5 is_stmt 1 view .LVU259
.LVL58:
	.loc 1 1204 5 view .LVU260
	.loc 1 1204 5 view .LVU261
	movs	r2, #0
	strb	r2, [r3, #56]
	.loc 1 1201 12 is_stmt 0 view .LVU262
	movs	r0, #2
	bx	lr
.LVL59:
.L54:
	.loc 1 1166 5 is_stmt 1 view .LVU263
	.loc 1 1166 22 is_stmt 0 view .LVU264
	movs	r2, #0
	str	r2, [r3, #60]
	.loc 1 1168 5 is_stmt 1 view .LVU265
	.loc 1 1168 7 is_stmt 0 view .LVU266
	cbz	r1, .L52
	.loc 1 1171 7 is_stmt 1 view .LVU267
	.loc 1 1171 20 is_stmt 0 view .LVU268
	movs	r2, #18
	strb	r2, [r3, #57]
	.loc 1 1174 7 is_stmt 1 view .LVU269
	.loc 1 1174 28 is_stmt 0 view .LVU270
	ldr	r2, [r3]
	ldr	r0, [r2, #16]
	.loc 1 1174 59 view .LVU271
	adds	r0, r0, #1
	.loc 1 1174 26 view .LVU272
	str	r0, [r3, #36]
	.loc 1 1175 7 is_stmt 1 view .LVU273
	.loc 1 1175 27 is_stmt 0 view .LVU274
	ldr	r0, [r2, #16]
	.loc 1 1175 58 view .LVU275
	adds	r0, r0, #1
	.loc 1 1175 25 view .LVU276
	str	r0, [r3, #32]
	.loc 1 1176 7 is_stmt 1 view .LVU277
	.loc 1 1176 25 is_stmt 0 view .LVU278
	str	r1, [r3, #28]
	.loc 1 1179 7 is_stmt 1 view .LVU279
	movs	r1, #3
.LVL60:
	.loc 1 1179 7 is_stmt 0 view .LVU280
	str	r1, [r2, #12]
.LVL61:
	.loc 1 1182 7 is_stmt 1 view .LVU281
	ldr	r1, [r3]
	ldr	r2, [r1, #20]
	bic	r2, r2, #201326592
	str	r2, [r1, #20]
	.loc 1 1185 7 view .LVU282
	.loc 1 1185 7 view .LVU283
	movs	r0, #0
	strb	r0, [r3, #56]
	.loc 1 1185 7 view .LVU284
	.loc 1 1188 7 view .LVU285
	ldr	r2, [r3]
	ldr	r3, [r2]
.LVL62:
	.loc 1 1188 7 is_stmt 0 view .LVU286
	orr	r3, r3, #458752
	str	r3, [r2]
	bx	lr
.LVL63:
.L52:
	.loc 1 1192 7 is_stmt 1 view .LVU287
	.loc 1 1192 12 is_stmt 0 view .LVU288
	ldr	r2, [r3, #60]
	.loc 1 1192 24 view .LVU289
	orr	r2, r2, #8
	str	r2, [r3, #60]
	.loc 1 1193 7 is_stmt 1 view .LVU290
.LVL64:
	.loc 1 1196 7 view .LVU291
	.loc 1 1196 7 view .LVU292
	movs	r2, #0
	strb	r2, [r3, #56]
	bx	lr
.LVL65:
.L53:
	.loc 1 1162 3 is_stmt 0 view .LVU293
	movs	r0, #2
.LVL66:
	.loc 1 1208 1 view .LVU294
	bx	lr
	.cfi_endproc
.LFE83:
	.size	HAL_QSPI_Transmit_IT, .-HAL_QSPI_Transmit_IT
	.section	.text.HAL_QSPI_Receive_IT,"ax",%progbits
	.align	1
	.global	HAL_QSPI_Receive_IT
	.syntax unified
	.thumb
	.thumb_func
	.type	HAL_QSPI_Receive_IT, %function
HAL_QSPI_Receive_IT:
.LVL67:
.LFB84:
	.loc 1 1218 1 is_stmt 1 view -0
	.cfi_startproc
	@ args = 0, pretend = 0, frame = 0
	@ frame_needed = 0, uses_anonymous_args = 0
	@ link register save eliminated.
	.loc 1 1218 1 is_stmt 0 view .LVU296
	push	{r4, r5}
.LCFI14:
	.cfi_def_cfa_offset 8
	.cfi_offset 4, -8
	.cfi_offset 5, -4
	.loc 1 1219 3 is_stmt 1 view .LVU297
.LVL68:
	.loc 1 1220 3 view .LVU298
	.loc 1 1220 23 is_stmt 0 view .LVU299
	ldr	r4, [r0]
	.loc 1 1220 12 view .LVU300
	ldr	r5, [r4, #24]
.LVL69:
	.loc 1 1223 3 is_stmt 1 view .LVU301
	.loc 1 1223 3 view .LVU302
	ldrb	r2, [r0, #56]	@ zero_extendqisi2
	uxtb	r2, r2
	cmp	r2, #1
	beq	.L59
	mov	r3, r0
	.loc 1 1223 3 discriminator 2 view .LVU303
	movs	r2, #1
	strb	r2, [r0, #56]
	.loc 1 1223 3 discriminator 2 view .LVU304
	.loc 1 1225 3 discriminator 2 view .LVU305
	.loc 1 1225 11 is_stmt 0 discriminator 2 view .LVU306
	ldrb	r0, [r0, #57]	@ zero_extendqisi2
.LVL70:
	.loc 1 1225 11 discriminator 2 view .LVU307
	uxtb	r0, r0
	.loc 1 1225 5 discriminator 2 view .LVU308
	cmp	r0, r2
	beq	.L61
	.loc 1 1265 5 is_stmt 1 view .LVU309
.LVL71:
	.loc 1 1268 5 view .LVU310
	.loc 1 1268 5 view .LVU311
	movs	r2, #0
	strb	r2, [r3, #56]
	.loc 1 1265 12 is_stmt 0 view .LVU312
	movs	r0, #2
.LVL72:
.L56:
	.loc 1 1272 1 view .LVU313
	pop	{r4, r5}
.LCFI15:
	.cfi_remember_state
	.cfi_restore 5
	.cfi_restore 4
	.cfi_def_cfa_offset 0
.LVL73:
	.loc 1 1272 1 view .LVU314
	bx	lr
.LVL74:
.L61:
.LCFI16:
	.cfi_restore_state
	.loc 1 1227 5 is_stmt 1 view .LVU315
	.loc 1 1227 22 is_stmt 0 view .LVU316
	movs	r2, #0
	str	r2, [r3, #60]
	.loc 1 1229 5 is_stmt 1 view .LVU317
	.loc 1 1229 7 is_stmt 0 view .LVU318
	cbz	r1, .L58
	.loc 1 1232 7 is_stmt 1 view .LVU319
	.loc 1 1232 20 is_stmt 0 view .LVU320
	movs	r2, #34
	strb	r2, [r3, #57]
	.loc 1 1235 7 is_stmt 1 view .LVU321
	.loc 1 1235 28 is_stmt 0 view .LVU322
	ldr	r2, [r4, #16]
	.loc 1 1235 59 view .LVU323
	adds	r2, r2, #1
	.loc 1 1235 26 view .LVU324
	str	r2, [r3, #48]
	.loc 1 1236 7 is_stmt 1 view .LVU325
	.loc 1 1236 27 is_stmt 0 view .LVU326
	ldr	r2, [r4, #16]
	.loc 1 1236 58 view .LVU327
	adds	r2, r2, #1
	.loc 1 1236 25 view .LVU328
	str	r2, [r3, #44]
	.loc 1 1237 7 is_stmt 1 view .LVU329
	.loc 1 1237 25 is_stmt 0 view .LVU330
	str	r1, [r3, #40]
	.loc 1 1240 7 is_stmt 1 view .LVU331
	movs	r2, #3
	str	r2, [r4, #12]
	.loc 1 1243 7 view .LVU332
	ldr	r1, [r3]
.LVL75:
	.loc 1 1243 7 is_stmt 0 view .LVU333
	ldr	r2, [r1, #20]
	bic	r2, r2, #201326592
	orr	r2, r2, #67108864
	str	r2, [r1, #20]
	.loc 1 1246 7 is_stmt 1 view .LVU334
	ldr	r2, [r3]
	str	r5, [r2, #24]
	.loc 1 1249 7 view .LVU335
	.loc 1 1249 7 view .LVU336
	movs	r0, #0
	strb	r0, [r3, #56]
	.loc 1 1249 7 view .LVU337
	.loc 1 1252 7 view .LVU338
	ldr	r2, [r3]
	ldr	r3, [r2]
.LVL76:
	.loc 1 1252 7 is_stmt 0 view .LVU339
	orr	r3, r3, #458752
	str	r3, [r2]
	b	.L56
.LVL77:
.L58:
	.loc 1 1256 7 is_stmt 1 view .LVU340
	.loc 1 1256 12 is_stmt 0 view .LVU341
	ldr	r2, [r3, #60]
	.loc 1 1256 24 view .LVU342
	orr	r2, r2, #8
	str	r2, [r3, #60]
	.loc 1 1257 7 is_stmt 1 view .LVU343
.LVL78:
	.loc 1 1260 7 view .LVU344
	.loc 1 1260 7 view .LVU345
	movs	r2, #0
	strb	r2, [r3, #56]
	b	.L56
.LVL79:
.L59:
	.loc 1 1223 3 is_stmt 0 view .LVU346
	movs	r0, #2
.LVL80:
	.loc 1 1223 3 view .LVU347
	b	.L56
	.cfi_endproc
.LFE84:
	.size	HAL_QSPI_Receive_IT, .-HAL_QSPI_Receive_IT
	.section	.text.HAL_QSPI_Transmit_DMA,"ax",%progbits
	.align	1
	.global	HAL_QSPI_Transmit_DMA
	.syntax unified
	.thumb
	.thumb_func
	.type	HAL_QSPI_Transmit_DMA, %function
HAL_QSPI_Transmit_DMA:
.LVL81:
.LFB85:
	.loc 1 1286 1 is_stmt 1 view -0
	.cfi_startproc
	@ args = 0, pretend = 0, frame = 0
	@ frame_needed = 0, uses_anonymous_args = 0
	.loc 1 1286 1 is_stmt 0 view .LVU349
	push	{r3, r4, r5, lr}
.LCFI17:
	.cfi_def_cfa_offset 16
	.cfi_offset 3, -16
	.cfi_offset 4, -12
	.cfi_offset 5, -8
	.cfi_offset 14, -4
	mov	r4, r0
	.loc 1 1287 3 is_stmt 1 view .LVU350
.LVL82:
	.loc 1 1288 3 view .LVU351
	.loc 1 1288 25 is_stmt 0 view .LVU352
	ldr	r0, [r0]
.LVL83:
	.loc 1 1288 25 view .LVU353
	ldr	r2, [r0, #16]
.LVL84:
	.loc 1 1291 3 is_stmt 1 view .LVU354
	.loc 1 1291 3 view .LVU355
	ldrb	r3, [r4, #56]	@ zero_extendqisi2
	uxtb	r3, r3
	cmp	r3, #1
	beq	.L74
	adds	r2, r2, #1
.LVL85:
	.loc 1 1291 3 discriminator 2 view .LVU356
	movs	r3, #1
	strb	r3, [r4, #56]
	.loc 1 1291 3 discriminator 2 view .LVU357
	.loc 1 1293 3 discriminator 2 view .LVU358
	.loc 1 1293 11 is_stmt 0 discriminator 2 view .LVU359
	ldrb	r5, [r4, #57]	@ zero_extendqisi2
	uxtb	r5, r5
	.loc 1 1293 5 discriminator 2 view .LVU360
	cmp	r5, r3
	beq	.L76
	.loc 1 1409 5 is_stmt 1 view .LVU361
.LVL86:
	.loc 1 1412 5 view .LVU362
	.loc 1 1412 5 view .LVU363
	movs	r3, #0
	strb	r3, [r4, #56]
	.loc 1 1409 12 is_stmt 0 view .LVU364
	movs	r5, #2
.LVL87:
.L63:
	.loc 1 1416 1 view .LVU365
	mov	r0, r5
	pop	{r3, r4, r5, pc}
.LVL88:
.L76:
	.loc 1 1296 5 is_stmt 1 view .LVU366
	.loc 1 1296 22 is_stmt 0 view .LVU367
	movs	r3, #0
	str	r3, [r4, #60]
	.loc 1 1298 5 is_stmt 1 view .LVU368
	.loc 1 1298 7 is_stmt 0 view .LVU369
	cmp	r1, #0
	beq	.L65
	.loc 1 1301 7 is_stmt 1 view .LVU370
	.loc 1 1301 16 is_stmt 0 view .LVU371
	ldr	r3, [r4, #52]
	.loc 1 1301 28 view .LVU372
	ldr	r3, [r3, #20]
	.loc 1 1301 10 view .LVU373
	cmp	r3, #0
	bne	.L66
	.loc 1 1303 9 is_stmt 1 view .LVU374
	.loc 1 1303 28 is_stmt 0 view .LVU375
	str	r2, [r4, #36]
	.loc 1 1342 7 is_stmt 1 view .LVU376
	.loc 1 1344 7 view .LVU377
.LVL89:
.L67:
	.loc 1 1347 9 view .LVU378
	.loc 1 1347 22 is_stmt 0 view .LVU379
	movs	r3, #18
	strb	r3, [r4, #57]
	.loc 1 1350 9 is_stmt 1 view .LVU380
	movs	r3, #3
	str	r3, [r0, #12]
	.loc 1 1353 9 view .LVU381
	.loc 1 1353 34 is_stmt 0 view .LVU382
	ldr	r3, [r4, #36]
	.loc 1 1353 27 view .LVU383
	str	r3, [r4, #32]
	.loc 1 1354 9 is_stmt 1 view .LVU384
	.loc 1 1354 27 is_stmt 0 view .LVU385
	str	r1, [r4, #28]
	.loc 1 1357 9 is_stmt 1 view .LVU386
	ldr	r2, [r4]
	ldr	r3, [r2, #20]
	bic	r3, r3, #201326592
	str	r3, [r2, #20]
	.loc 1 1360 9 view .LVU387
	.loc 1 1360 14 is_stmt 0 view .LVU388
	ldr	r3, [r4, #52]
	.loc 1 1360 39 view .LVU389
	ldr	r2, .L78
	str	r2, [r3, #44]
	.loc 1 1363 9 is_stmt 1 view .LVU390
	.loc 1 1363 14 is_stmt 0 view .LVU391
	ldr	r3, [r4, #52]
	.loc 1 1363 43 view .LVU392
	ldr	r2, .L78+4
	str	r2, [r3, #48]
	.loc 1 1366 9 is_stmt 1 view .LVU393
	.loc 1 1366 14 is_stmt 0 view .LVU394
	ldr	r3, [r4, #52]
	.loc 1 1366 40 view .LVU395
	ldr	r2, .L78+8
	str	r2, [r3, #52]
	.loc 1 1369 9 is_stmt 1 view .LVU396
	.loc 1 1369 14 is_stmt 0 view .LVU397
	ldr	r3, [r4, #52]
	.loc 1 1369 40 view .LVU398
	movs	r2, #0
	str	r2, [r3, #56]
	.loc 1 1372 9 is_stmt 1 view .LVU399
	.loc 1 1372 14 is_stmt 0 view .LVU400
	ldr	r3, [r4, #52]
	.loc 1 1372 37 view .LVU401
	movs	r2, #16
	str	r2, [r3, #8]
	.loc 1 1373 9 is_stmt 1 view .LVU402
	ldr	r0, [r4, #52]
	ldr	r2, [r0]
	ldr	r3, [r2]
	bic	r3, r3, #16
	ldr	r0, [r0, #8]
	orrs	r3, r3, r0
	str	r3, [r2]
	.loc 1 1376 9 view .LVU403
	.loc 1 1376 76 is_stmt 0 view .LVU404
	ldr	r2, [r4]
	.loc 1 1376 97 view .LVU405
	ldr	r3, [r4, #32]
	.loc 1 1376 13 view .LVU406
	adds	r2, r2, #32
	ldr	r0, [r4, #52]
	bl	HAL_DMA_Start_IT
.LVL90:
	.loc 1 1376 12 view .LVU407
	cmp	r0, #0
	bne	.L73
	.loc 1 1379 11 is_stmt 1 view .LVU408
	.loc 1 1379 11 view .LVU409
	movs	r3, #0
	strb	r3, [r4, #56]
	.loc 1 1379 11 view .LVU410
	.loc 1 1382 11 view .LVU411
	ldr	r1, [r4]
	ldr	r3, [r1]
	orr	r3, r3, #65536
	str	r3, [r1]
	.loc 1 1385 11 view .LVU412
	ldr	r1, [r4]
	ldr	r3, [r1]
	orr	r3, r3, #4
	str	r3, [r1]
	mov	r5, r0
	b	.L63
.LVL91:
.L66:
	.loc 1 1305 12 view .LVU413
	.loc 1 1305 15 is_stmt 0 view .LVU414
	cmp	r3, #256
	beq	.L77
	.loc 1 1322 12 is_stmt 1 view .LVU415
	.loc 1 1322 15 is_stmt 0 view .LVU416
	cmp	r3, #512
	bne	.L67
	.loc 1 1324 9 is_stmt 1 view .LVU417
	.loc 1 1324 12 is_stmt 0 view .LVU418
	tst	r2, #3
	bne	.L71
	.loc 1 1324 54 discriminator 1 view .LVU419
	ldr	r3, [r4, #8]
	.loc 1 1324 38 discriminator 1 view .LVU420
	tst	r3, #3
	beq	.L72
.L71:
	.loc 1 1328 11 is_stmt 1 view .LVU421
	.loc 1 1328 16 is_stmt 0 view .LVU422
	ldr	r3, [r4, #60]
	.loc 1 1328 28 view .LVU423
	orr	r3, r3, #8
	str	r3, [r4, #60]
	.loc 1 1329 11 is_stmt 1 view .LVU424
.LVL92:
	.loc 1 1332 11 view .LVU425
	.loc 1 1332 11 view .LVU426
	movs	r3, #0
	strb	r3, [r4, #56]
	.loc 1 1332 11 view .LVU427
	.loc 1 1342 7 view .LVU428
	.loc 1 1344 7 view .LVU429
	b	.L63
.LVL93:
.L77:
	.loc 1 1307 9 view .LVU430
	.loc 1 1307 12 is_stmt 0 view .LVU431
	tst	r2, #1
	bne	.L69
	.loc 1 1307 54 discriminator 1 view .LVU432
	ldr	r3, [r4, #8]
	.loc 1 1307 38 discriminator 1 view .LVU433
	tst	r3, #1
	beq	.L70
.L69:
	.loc 1 1311 11 is_stmt 1 view .LVU434
	.loc 1 1311 16 is_stmt 0 view .LVU435
	ldr	r3, [r4, #60]
	.loc 1 1311 28 view .LVU436
	orr	r3, r3, #8
	str	r3, [r4, #60]
	.loc 1 1312 11 is_stmt 1 view .LVU437
.LVL94:
	.loc 1 1315 11 view .LVU438
	.loc 1 1315 11 view .LVU439
	movs	r3, #0
	strb	r3, [r4, #56]
	.loc 1 1315 11 view .LVU440
	.loc 1 1342 7 view .LVU441
	.loc 1 1344 7 view .LVU442
	b	.L63
.LVL95:
.L70:
	.loc 1 1319 11 view .LVU443
	.loc 1 1319 43 is_stmt 0 view .LVU444
	lsrs	r2, r2, #1
.LVL96:
	.loc 1 1319 30 view .LVU445
	str	r2, [r4, #36]
	.loc 1 1342 7 is_stmt 1 view .LVU446
	.loc 1 1344 7 view .LVU447
	b	.L67
.LVL97:
.L72:
	.loc 1 1336 11 view .LVU448
	.loc 1 1336 43 is_stmt 0 view .LVU449
	lsrs	r2, r2, #2
.LVL98:
	.loc 1 1336 30 view .LVU450
	str	r2, [r4, #36]
	.loc 1 1342 7 is_stmt 1 view .LVU451
	.loc 1 1344 7 view .LVU452
	b	.L67
.LVL99:
.L73:
	.loc 1 1389 11 view .LVU453
	.loc 1 1390 11 view .LVU454
	.loc 1 1390 16 is_stmt 0 view .LVU455
	ldr	r3, [r4, #60]
	.loc 1 1390 28 view .LVU456
	orr	r3, r3, #4
	str	r3, [r4, #60]
	.loc 1 1391 11 is_stmt 1 view .LVU457
	.loc 1 1391 24 is_stmt 0 view .LVU458
	movs	r3, #1
	strb	r3, [r4, #57]
	.loc 1 1394 11 is_stmt 1 view .LVU459
	.loc 1 1394 11 view .LVU460
	movs	r3, #0
	strb	r3, [r4, #56]
	b	.L63
.LVL100:
.L65:
	.loc 1 1400 7 discriminator 1 view .LVU461
	.loc 1 1400 12 is_stmt 0 discriminator 1 view .LVU462
	ldr	r3, [r4, #60]
	.loc 1 1400 24 discriminator 1 view .LVU463
	orr	r3, r3, #8
	str	r3, [r4, #60]
	.loc 1 1401 7 is_stmt 1 discriminator 1 view .LVU464
.LVL101:
	.loc 1 1404 7 discriminator 1 view .LVU465
	.loc 1 1404 7 discriminator 1 view .LVU466
	movs	r3, #0
	strb	r3, [r4, #56]
	b	.L63
.LVL102:
.L74:
	.loc 1 1291 3 is_stmt 0 view .LVU467
	movs	r5, #2
	b	.L63
.L79:
	.align	2
.L78:
	.word	QSPI_DMATxCplt
	.word	QSPI_DMATxHalfCplt
	.word	QSPI_DMAError
	.cfi_endproc
.LFE85:
	.size	HAL_QSPI_Transmit_DMA, .-HAL_QSPI_Transmit_DMA
	.section	.text.HAL_QSPI_Receive_DMA,"ax",%progbits
	.align	1
	.global	HAL_QSPI_Receive_DMA
	.syntax unified
	.thumb
	.thumb_func
	.type	HAL_QSPI_Receive_DMA, %function
HAL_QSPI_Receive_DMA:
.LVL103:
.LFB86:
	.loc 1 1430 1 is_stmt 1 view -0
	.cfi_startproc
	@ args = 0, pretend = 0, frame = 0
	@ frame_needed = 0, uses_anonymous_args = 0
	.loc 1 1430 1 is_stmt 0 view .LVU469
	push	{r4, r5, r6, lr}
.LCFI18:
	.cfi_def_cfa_offset 16
	.cfi_offset 4, -16
	.cfi_offset 5, -12
	.cfi_offset 6, -8
	.cfi_offset 14, -4
	mov	r4, r0
	.loc 1 1431 3 is_stmt 1 view .LVU470
.LVL104:
	.loc 1 1432 3 view .LVU471
	.loc 1 1432 23 is_stmt 0 view .LVU472
	ldr	r2, [r0]
	.loc 1 1432 12 view .LVU473
	ldr	r6, [r2, #24]
.LVL105:
	.loc 1 1433 3 is_stmt 1 view .LVU474
	.loc 1 1433 25 is_stmt 0 view .LVU475
	ldr	r0, [r2, #16]
.LVL106:
	.loc 1 1436 3 is_stmt 1 view .LVU476
	.loc 1 1436 3 view .LVU477
	ldrb	r3, [r4, #56]	@ zero_extendqisi2
	uxtb	r3, r3
	cmp	r3, #1
	beq	.L92
	adds	r0, r0, #1
.LVL107:
	.loc 1 1436 3 discriminator 2 view .LVU478
	movs	r3, #1
	strb	r3, [r4, #56]
	.loc 1 1436 3 discriminator 2 view .LVU479
	.loc 1 1438 3 discriminator 2 view .LVU480
	.loc 1 1438 11 is_stmt 0 discriminator 2 view .LVU481
	ldrb	r5, [r4, #57]	@ zero_extendqisi2
	uxtb	r5, r5
	.loc 1 1438 5 discriminator 2 view .LVU482
	cmp	r5, r3
	beq	.L94
	.loc 1 1557 5 is_stmt 1 view .LVU483
.LVL108:
	.loc 1 1560 5 view .LVU484
	.loc 1 1560 5 view .LVU485
	movs	r3, #0
	strb	r3, [r4, #56]
	.loc 1 1557 12 is_stmt 0 view .LVU486
	movs	r5, #2
.LVL109:
.L81:
	.loc 1 1564 1 view .LVU487
	mov	r0, r5
	pop	{r4, r5, r6, pc}
.LVL110:
.L94:
	.loc 1 1441 5 is_stmt 1 view .LVU488
	.loc 1 1441 22 is_stmt 0 view .LVU489
	movs	r3, #0
	str	r3, [r4, #60]
	.loc 1 1443 5 is_stmt 1 view .LVU490
	.loc 1 1443 7 is_stmt 0 view .LVU491
	cmp	r1, #0
	beq	.L83
	.loc 1 1446 7 is_stmt 1 view .LVU492
	.loc 1 1446 16 is_stmt 0 view .LVU493
	ldr	r3, [r4, #52]
	.loc 1 1446 28 view .LVU494
	ldr	r3, [r3, #20]
	.loc 1 1446 10 view .LVU495
	cmp	r3, #0
	bne	.L84
	.loc 1 1448 9 is_stmt 1 view .LVU496
	.loc 1 1448 28 is_stmt 0 view .LVU497
	str	r0, [r4, #48]
	.loc 1 1487 7 is_stmt 1 view .LVU498
	.loc 1 1489 7 view .LVU499
.LVL111:
.L85:
	.loc 1 1492 9 view .LVU500
	.loc 1 1492 22 is_stmt 0 view .LVU501
	movs	r3, #34
	strb	r3, [r4, #57]
	.loc 1 1495 9 is_stmt 1 view .LVU502
	movs	r3, #3
	str	r3, [r2, #12]
	.loc 1 1498 9 view .LVU503
	.loc 1 1498 34 is_stmt 0 view .LVU504
	ldr	r3, [r4, #48]
	.loc 1 1498 27 view .LVU505
	str	r3, [r4, #44]
	.loc 1 1499 9 is_stmt 1 view .LVU506
	.loc 1 1499 27 is_stmt 0 view .LVU507
	str	r1, [r4, #40]
	.loc 1 1502 9 is_stmt 1 view .LVU508
	.loc 1 1502 14 is_stmt 0 view .LVU509
	ldr	r3, [r4, #52]
	.loc 1 1502 39 view .LVU510
	ldr	r2, .L96
	str	r2, [r3, #44]
	.loc 1 1505 9 is_stmt 1 view .LVU511
	.loc 1 1505 14 is_stmt 0 view .LVU512
	ldr	r3, [r4, #52]
	.loc 1 1505 43 view .LVU513
	ldr	r2, .L96+4
	str	r2, [r3, #48]
	.loc 1 1508 9 is_stmt 1 view .LVU514
	.loc 1 1508 14 is_stmt 0 view .LVU515
	ldr	r3, [r4, #52]
	.loc 1 1508 40 view .LVU516
	ldr	r2, .L96+8
	str	r2, [r3, #52]
	.loc 1 1511 9 is_stmt 1 view .LVU517
	.loc 1 1511 14 is_stmt 0 view .LVU518
	ldr	r2, [r4, #52]
	.loc 1 1511 40 view .LVU519
	movs	r3, #0
	str	r3, [r2, #56]
	.loc 1 1514 9 is_stmt 1 view .LVU520
	.loc 1 1514 14 is_stmt 0 view .LVU521
	ldr	r2, [r4, #52]
	.loc 1 1514 37 view .LVU522
	str	r3, [r2, #8]
	.loc 1 1515 9 is_stmt 1 view .LVU523
	ldr	r0, [r4, #52]
	ldr	r2, [r0]
	ldr	r3, [r2]
	bic	r3, r3, #16
	ldr	r0, [r0, #8]
	orrs	r3, r3, r0
	str	r3, [r2]
	.loc 1 1518 9 view .LVU524
	.loc 1 1518 59 is_stmt 0 view .LVU525
	ldr	r0, [r4]
	.loc 1 1518 97 view .LVU526
	ldr	r3, [r4, #44]
	.loc 1 1518 13 view .LVU527
	mov	r2, r1
	add	r1, r0, #32
.LVL112:
	.loc 1 1518 13 view .LVU528
	ldr	r0, [r4, #52]
	bl	HAL_DMA_Start_IT
.LVL113:
	.loc 1 1518 12 view .LVU529
	cmp	r0, #0
	bne	.L91
	.loc 1 1521 11 is_stmt 1 view .LVU530
	ldr	r1, [r4]
	ldr	r3, [r1, #20]
	bic	r3, r3, #201326592
	orr	r3, r3, #67108864
	str	r3, [r1, #20]
	.loc 1 1524 11 view .LVU531
	ldr	r3, [r4]
	str	r6, [r3, #24]
	.loc 1 1527 11 view .LVU532
	.loc 1 1527 11 view .LVU533
	movs	r3, #0
	strb	r3, [r4, #56]
	.loc 1 1527 11 view .LVU534
	.loc 1 1530 11 view .LVU535
	ldr	r1, [r4]
	ldr	r3, [r1]
	orr	r3, r3, #65536
	str	r3, [r1]
	.loc 1 1533 11 view .LVU536
	ldr	r1, [r4]
	ldr	r3, [r1]
	orr	r3, r3, #4
	str	r3, [r1]
	mov	r5, r0
	b	.L81
.LVL114:
.L84:
	.loc 1 1450 12 view .LVU537
	.loc 1 1450 15 is_stmt 0 view .LVU538
	cmp	r3, #256
	beq	.L95
	.loc 1 1467 12 is_stmt 1 view .LVU539
	.loc 1 1467 15 is_stmt 0 view .LVU540
	cmp	r3, #512
	bne	.L85
	.loc 1 1469 9 is_stmt 1 view .LVU541
	.loc 1 1469 12 is_stmt 0 view .LVU542
	tst	r0, #3
	bne	.L89
	.loc 1 1469 54 discriminator 1 view .LVU543
	ldr	r3, [r4, #8]
	.loc 1 1469 38 discriminator 1 view .LVU544
	tst	r3, #3
	beq	.L90
.L89:
	.loc 1 1473 11 is_stmt 1 view .LVU545
	.loc 1 1473 16 is_stmt 0 view .LVU546
	ldr	r3, [r4, #60]
	.loc 1 1473 28 view .LVU547
	orr	r3, r3, #8
	str	r3, [r4, #60]
	.loc 1 1474 11 is_stmt 1 view .LVU548
.LVL115:
	.loc 1 1477 11 view .LVU549
	.loc 1 1477 11 view .LVU550
	movs	r3, #0
	strb	r3, [r4, #56]
	.loc 1 1477 11 view .LVU551
	.loc 1 1487 7 view .LVU552
	.loc 1 1489 7 view .LVU553
	b	.L81
.LVL116:
.L95:
	.loc 1 1452 9 view .LVU554
	.loc 1 1452 12 is_stmt 0 view .LVU555
	tst	r0, #1
	bne	.L87
	.loc 1 1452 54 discriminator 1 view .LVU556
	ldr	r3, [r4, #8]
	.loc 1 1452 38 discriminator 1 view .LVU557
	tst	r3, #1
	beq	.L88
.L87:
	.loc 1 1456 11 is_stmt 1 view .LVU558
	.loc 1 1456 16 is_stmt 0 view .LVU559
	ldr	r3, [r4, #60]
	.loc 1 1456 28 view .LVU560
	orr	r3, r3, #8
	str	r3, [r4, #60]
	.loc 1 1457 11 is_stmt 1 view .LVU561
.LVL117:
	.loc 1 1460 11 view .LVU562
	.loc 1 1460 11 view .LVU563
	movs	r3, #0
	strb	r3, [r4, #56]
	.loc 1 1460 11 view .LVU564
	.loc 1 1487 7 view .LVU565
	.loc 1 1489 7 view .LVU566
	b	.L81
.LVL118:
.L88:
	.loc 1 1464 11 view .LVU567
	.loc 1 1464 43 is_stmt 0 view .LVU568
	lsrs	r0, r0, #1
.LVL119:
	.loc 1 1464 30 view .LVU569
	str	r0, [r4, #48]
	.loc 1 1487 7 is_stmt 1 view .LVU570
	.loc 1 1489 7 view .LVU571
	b	.L85
.LVL120:
.L90:
	.loc 1 1481 11 view .LVU572
	.loc 1 1481 43 is_stmt 0 view .LVU573
	lsrs	r0, r0, #2
.LVL121:
	.loc 1 1481 30 view .LVU574
	str	r0, [r4, #48]
	.loc 1 1487 7 is_stmt 1 view .LVU575
	.loc 1 1489 7 view .LVU576
	b	.L85
.LVL122:
.L91:
	.loc 1 1537 11 view .LVU577
	.loc 1 1538 11 view .LVU578
	.loc 1 1538 16 is_stmt 0 view .LVU579
	ldr	r3, [r4, #60]
	.loc 1 1538 28 view .LVU580
	orr	r3, r3, #4
	str	r3, [r4, #60]
	.loc 1 1539 11 is_stmt 1 view .LVU581
	.loc 1 1539 24 is_stmt 0 view .LVU582
	movs	r3, #1
	strb	r3, [r4, #57]
	.loc 1 1542 11 is_stmt 1 view .LVU583
	.loc 1 1542 11 view .LVU584
	movs	r3, #0
	strb	r3, [r4, #56]
	b	.L81
.LVL123:
.L83:
	.loc 1 1548 7 discriminator 1 view .LVU585
	.loc 1 1548 12 is_stmt 0 discriminator 1 view .LVU586
	ldr	r3, [r4, #60]
	.loc 1 1548 24 discriminator 1 view .LVU587
	orr	r3, r3, #8
	str	r3, [r4, #60]
	.loc 1 1549 7 is_stmt 1 discriminator 1 view .LVU588
.LVL124:
	.loc 1 1552 7 discriminator 1 view .LVU589
	.loc 1 1552 7 discriminator 1 view .LVU590
	movs	r3, #0
	strb	r3, [r4, #56]
	b	.L81
.LVL125:
.L92:
	.loc 1 1436 3 is_stmt 0 view .LVU591
	movs	r5, #2
	b	.L81
.L97:
	.align	2
.L96:
	.word	QSPI_DMARxCplt
	.word	QSPI_DMARxHalfCplt
	.word	QSPI_DMAError
	.cfi_endproc
.LFE86:
	.size	HAL_QSPI_Receive_DMA, .-HAL_QSPI_Receive_DMA
	.section	.text.HAL_QSPI_AutoPolling,"ax",%progbits
	.align	1
	.global	HAL_QSPI_AutoPolling
	.syntax unified
	.thumb
	.thumb_func
	.type	HAL_QSPI_AutoPolling, %function
HAL_QSPI_AutoPolling:
.LVL126:
.LFB87:
	.loc 1 1576 1 is_stmt 1 view -0
	.cfi_startproc
	@ args = 0, pretend = 0, frame = 0
	@ frame_needed = 0, uses_anonymous_args = 0
	.loc 1 1576 1 is_stmt 0 view .LVU593
	push	{r4, r5, r6, r7, r8, lr}
.LCFI19:
	.cfi_def_cfa_offset 24
	.cfi_offset 4, -24
	.cfi_offset 5, -20
	.cfi_offset 6, -16
	.cfi_offset 7, -12
	.cfi_offset 8, -8
	.cfi_offset 14, -4
	sub	sp, sp, #8
.LCFI20:
	.cfi_def_cfa_offset 32
	mov	r4, r0
	mov	r8, r1
	mov	r5, r2
	mov	r7, r3
	.loc 1 1577 3 is_stmt 1 view .LVU594
	.loc 1 1578 3 view .LVU595
	.loc 1 1578 24 is_stmt 0 view .LVU596
	bl	HAL_GetTick
.LVL127:
	.loc 1 1581 3 is_stmt 1 view .LVU597
	.loc 1 1582 3 view .LVU598
	.loc 1 1584 5 view .LVU599
	.loc 1 1587 3 view .LVU600
	.loc 1 1588 3 view .LVU601
	.loc 1 1590 5 view .LVU602
	.loc 1 1593 3 view .LVU603
	.loc 1 1594 3 view .LVU604
	.loc 1 1596 5 view .LVU605
	.loc 1 1599 3 view .LVU606
	.loc 1 1600 3 view .LVU607
	.loc 1 1602 3 view .LVU608
	.loc 1 1603 3 view .LVU609
	.loc 1 1604 3 view .LVU610
	.loc 1 1606 3 view .LVU611
	.loc 1 1607 3 view .LVU612
	.loc 1 1608 3 view .LVU613
	.loc 1 1611 3 view .LVU614
	.loc 1 1611 3 view .LVU615
	ldrb	ip, [r4, #56]	@ zero_extendqisi2
	uxtb	ip, ip
	cmp	ip, #1
	beq	.L101
	mov	r6, r0
	.loc 1 1611 3 discriminator 2 view .LVU616
	movs	r3, #1
	strb	r3, [r4, #56]
	.loc 1 1611 3 discriminator 2 view .LVU617
	.loc 1 1613 3 discriminator 2 view .LVU618
	.loc 1 1613 11 is_stmt 0 discriminator 2 view .LVU619
	ldrb	ip, [r4, #57]	@ zero_extendqisi2
	uxtb	ip, ip
	.loc 1 1613 5 discriminator 2 view .LVU620
	cmp	ip, r3
	beq	.L104
	.loc 1 1657 12 view .LVU621
	movs	r0, #2
.LVL128:
.L100:
	.loc 1 1661 3 is_stmt 1 view .LVU622
	.loc 1 1661 3 view .LVU623
	movs	r3, #0
	strb	r3, [r4, #56]
	.loc 1 1661 3 view .LVU624
	.loc 1 1664 3 view .LVU625
.LVL129:
.L99:
	.loc 1 1665 1 is_stmt 0 view .LVU626
	add	sp, sp, #8
.LCFI21:
	.cfi_remember_state
	.cfi_def_cfa_offset 24
	@ sp needed
	pop	{r4, r5, r6, r7, r8, pc}
.LVL130:
.L104:
.LCFI22:
	.cfi_restore_state
	.loc 1 1615 5 is_stmt 1 view .LVU627
	.loc 1 1615 22 is_stmt 0 view .LVU628
	movs	r2, #0
	str	r2, [r4, #60]
	.loc 1 1618 5 is_stmt 1 view .LVU629
	.loc 1 1618 18 is_stmt 0 view .LVU630
	movs	r3, #66
	strb	r3, [r4, #57]
	.loc 1 1621 5 is_stmt 1 view .LVU631
	.loc 1 1621 14 is_stmt 0 view .LVU632
	str	r7, [sp]
	mov	r3, r0
	movs	r1, #32
	mov	r0, r4
.LVL131:
	.loc 1 1621 14 view .LVU633
	bl	QSPI_WaitFlagStateUntilTimeout
.LVL132:
	.loc 1 1623 5 is_stmt 1 view .LVU634
	.loc 1 1623 8 is_stmt 0 view .LVU635
	cmp	r0, #0
	bne	.L100
	.loc 1 1626 7 is_stmt 1 view .LVU636
	ldr	r3, [r4]
	ldr	r2, [r5]
	str	r2, [r3, #40]
	.loc 1 1629 7 view .LVU637
	ldr	r3, [r4]
	ldr	r2, [r5, #4]
	str	r2, [r3, #36]
	.loc 1 1632 7 view .LVU638
	ldr	r3, [r4]
	ldr	r2, [r5, #8]
	str	r2, [r3, #44]
	.loc 1 1636 7 view .LVU639
	ldr	r2, [r4]
	ldr	r3, [r2]
	bic	r3, r3, #12582912
	ldr	r1, [r5, #16]
	orrs	r3, r3, r1
	orr	r3, r3, #4194304
	str	r3, [r2]
	.loc 1 1640 7 view .LVU640
	.loc 1 1640 24 is_stmt 0 view .LVU641
	ldr	r3, [r5, #12]
	.loc 1 1640 19 view .LVU642
	str	r3, [r8, #40]
	.loc 1 1641 7 is_stmt 1 view .LVU643
	mov	r2, #134217728
	mov	r1, r8
	mov	r0, r4
.LVL133:
	.loc 1 1641 7 is_stmt 0 view .LVU644
	bl	QSPI_Config
.LVL134:
	.loc 1 1644 7 is_stmt 1 view .LVU645
	.loc 1 1644 16 is_stmt 0 view .LVU646
	str	r7, [sp]
	mov	r3, r6
	movs	r2, #1
	movs	r1, #8
	mov	r0, r4
	bl	QSPI_WaitFlagStateUntilTimeout
.LVL135:
	.loc 1 1646 7 is_stmt 1 view .LVU647
	.loc 1 1646 10 is_stmt 0 view .LVU648
	cmp	r0, #0
	bne	.L100
	.loc 1 1648 9 is_stmt 1 view .LVU649
	ldr	r3, [r4]
	movs	r2, #8
	str	r2, [r3, #12]
	.loc 1 1651 9 view .LVU650
	.loc 1 1651 22 is_stmt 0 view .LVU651
	movs	r3, #1
	strb	r3, [r4, #57]
	b	.L100
.LVL136:
.L101:
	.loc 1 1611 3 view .LVU652
	movs	r0, #2
.LVL137:
	.loc 1 1611 3 view .LVU653
	b	.L99
	.cfi_endproc
.LFE87:
	.size	HAL_QSPI_AutoPolling, .-HAL_QSPI_AutoPolling
	.section	.text.HAL_QSPI_AutoPolling_IT,"ax",%progbits
	.align	1
	.global	HAL_QSPI_AutoPolling_IT
	.syntax unified
	.thumb
	.thumb_func
	.type	HAL_QSPI_AutoPolling_IT, %function
HAL_QSPI_AutoPolling_IT:
.LVL138:
.LFB88:
	.loc 1 1676 1 is_stmt 1 view -0
	.cfi_startproc
	@ args = 0, pretend = 0, frame = 0
	@ frame_needed = 0, uses_anonymous_args = 0
	.loc 1 1676 1 is_stmt 0 view .LVU655
	push	{r4, r5, r6, r7, lr}
.LCFI23:
	.cfi_def_cfa_offset 20
	.cfi_offset 4, -20
	.cfi_offset 5, -16
	.cfi_offset 6, -12
	.cfi_offset 7, -8
	.cfi_offset 14, -4
	sub	sp, sp, #12
.LCFI24:
	.cfi_def_cfa_offset 32
	mov	r4, r0
	mov	r6, r1
	mov	r5, r2
	.loc 1 1677 3 is_stmt 1 view .LVU656
	.loc 1 1678 3 view .LVU657
	.loc 1 1678 24 is_stmt 0 view .LVU658
	bl	HAL_GetTick
.LVL139:
	.loc 1 1681 3 is_stmt 1 view .LVU659
	.loc 1 1682 3 view .LVU660
	.loc 1 1684 5 view .LVU661
	.loc 1 1687 3 view .LVU662
	.loc 1 1688 3 view .LVU663
	.loc 1 1690 5 view .LVU664
	.loc 1 1693 3 view .LVU665
	.loc 1 1694 3 view .LVU666
	.loc 1 1696 5 view .LVU667
	.loc 1 1699 3 view .LVU668
	.loc 1 1700 3 view .LVU669
	.loc 1 1702 3 view .LVU670
	.loc 1 1703 3 view .LVU671
	.loc 1 1704 3 view .LVU672
	.loc 1 1706 3 view .LVU673
	.loc 1 1707 3 view .LVU674
	.loc 1 1708 3 view .LVU675
	.loc 1 1709 3 view .LVU676
	.loc 1 1712 3 view .LVU677
	.loc 1 1712 3 view .LVU678
	ldrb	ip, [r4, #56]	@ zero_extendqisi2
	uxtb	ip, ip
	cmp	ip, #1
	beq	.L109
	.loc 1 1712 3 discriminator 2 view .LVU679
	movs	r3, #1
	strb	r3, [r4, #56]
	.loc 1 1712 3 discriminator 2 view .LVU680
	.loc 1 1714 3 discriminator 2 view .LVU681
	.loc 1 1714 11 is_stmt 0 discriminator 2 view .LVU682
	ldrb	r2, [r4, #57]	@ zero_extendqisi2
	uxtb	r2, r2
	.loc 1 1714 5 discriminator 2 view .LVU683
	cmp	r2, r3
	beq	.L111
	.loc 1 1761 5 is_stmt 1 view .LVU684
.LVL140:
	.loc 1 1764 5 view .LVU685
	.loc 1 1764 5 view .LVU686
	movs	r3, #0
	strb	r3, [r4, #56]
	.loc 1 1761 12 is_stmt 0 view .LVU687
	movs	r7, #2
.LVL141:
.L106:
	.loc 1 1769 1 view .LVU688
	mov	r0, r7
	add	sp, sp, #12
.LCFI25:
	.cfi_remember_state
	.cfi_def_cfa_offset 20
	@ sp needed
	pop	{r4, r5, r6, r7, pc}
.LVL142:
.L111:
.LCFI26:
	.cfi_restore_state
	.loc 1 1716 5 is_stmt 1 view .LVU689
	.loc 1 1716 22 is_stmt 0 view .LVU690
	movs	r2, #0
	str	r2, [r4, #60]
	.loc 1 1719 5 is_stmt 1 view .LVU691
	.loc 1 1719 18 is_stmt 0 view .LVU692
	movs	r3, #66
	strb	r3, [r4, #57]
	.loc 1 1722 5 is_stmt 1 view .LVU693
	.loc 1 1722 14 is_stmt 0 view .LVU694
	ldr	r3, [r4, #64]
	str	r3, [sp]
	mov	r3, r0
	movs	r1, #32
	mov	r0, r4
.LVL143:
	.loc 1 1722 14 view .LVU695
	bl	QSPI_WaitFlagStateUntilTimeout
.LVL144:
	.loc 1 1724 5 is_stmt 1 view .LVU696
	.loc 1 1724 8 is_stmt 0 view .LVU697
	mov	r7, r0
	cbz	r0, .L112
	.loc 1 1756 7 is_stmt 1 view .LVU698
	.loc 1 1756 7 view .LVU699
	movs	r3, #0
	strb	r3, [r4, #56]
	b	.L106
.L112:
	.loc 1 1727 7 view .LVU700
	ldr	r3, [r4]
	ldr	r2, [r5]
	str	r2, [r3, #40]
	.loc 1 1730 7 view .LVU701
	ldr	r3, [r4]
	ldr	r2, [r5, #4]
	str	r2, [r3, #36]
	.loc 1 1733 7 view .LVU702
	ldr	r3, [r4]
	ldr	r2, [r5, #8]
	str	r2, [r3, #44]
	.loc 1 1736 7 view .LVU703
	ldr	r1, [r4]
	ldr	r3, [r1]
	bic	r3, r3, #12582912
	ldr	r2, [r5, #16]
	ldr	r0, [r5, #20]
.LVL145:
	.loc 1 1736 7 is_stmt 0 view .LVU704
	orrs	r2, r2, r0
	orrs	r3, r3, r2
	str	r3, [r1]
	.loc 1 1740 7 is_stmt 1 view .LVU705
	ldr	r3, [r4]
	movs	r2, #9
	str	r2, [r3, #12]
	.loc 1 1743 7 view .LVU706
	.loc 1 1743 24 is_stmt 0 view .LVU707
	ldr	r3, [r5, #12]
	.loc 1 1743 19 view .LVU708
	str	r3, [r6, #40]
	.loc 1 1744 7 is_stmt 1 view .LVU709
	mov	r2, #134217728
	mov	r1, r6
	mov	r0, r4
	bl	QSPI_Config
.LVL146:
	.loc 1 1747 7 view .LVU710
	.loc 1 1747 7 view .LVU711
	movs	r3, #0
	strb	r3, [r4, #56]
	.loc 1 1747 7 view .LVU712
	.loc 1 1750 7 view .LVU713
	ldr	r2, [r4]
	ldr	r3, [r2]
	orr	r3, r3, #589824
	str	r3, [r2]
	b	.L106
.LVL147:
.L109:
	.loc 1 1712 3 is_stmt 0 view .LVU714
	movs	r7, #2
	b	.L106
	.cfi_endproc
.LFE88:
	.size	HAL_QSPI_AutoPolling_IT, .-HAL_QSPI_AutoPolling_IT
	.section	.text.HAL_QSPI_MemoryMapped,"ax",%progbits
	.align	1
	.global	HAL_QSPI_MemoryMapped
	.syntax unified
	.thumb
	.thumb_func
	.type	HAL_QSPI_MemoryMapped, %function
HAL_QSPI_MemoryMapped:
.LVL148:
.LFB89:
	.loc 1 1780 1 is_stmt 1 view -0
	.cfi_startproc
	@ args = 0, pretend = 0, frame = 0
	@ frame_needed = 0, uses_anonymous_args = 0
	.loc 1 1780 1 is_stmt 0 view .LVU716
	push	{r4, r5, r6, r7, lr}
.LCFI27:
	.cfi_def_cfa_offset 20
	.cfi_offset 4, -20
	.cfi_offset 5, -16
	.cfi_offset 6, -12
	.cfi_offset 7, -8
	.cfi_offset 14, -4
	sub	sp, sp, #12
.LCFI28:
	.cfi_def_cfa_offset 32
	mov	r4, r0
	mov	r6, r1
	mov	r5, r2
	.loc 1 1781 3 is_stmt 1 view .LVU717
	.loc 1 1782 3 view .LVU718
	.loc 1 1782 24 is_stmt 0 view .LVU719
	bl	HAL_GetTick
.LVL149:
	.loc 1 1785 3 is_stmt 1 view .LVU720
	.loc 1 1786 3 view .LVU721
	.loc 1 1788 3 view .LVU722
	.loc 1 1791 3 view .LVU723
	.loc 1 1792 3 view .LVU724
	.loc 1 1794 5 view .LVU725
	.loc 1 1797 3 view .LVU726
	.loc 1 1798 3 view .LVU727
	.loc 1 1800 5 view .LVU728
	.loc 1 1803 3 view .LVU729
	.loc 1 1804 3 view .LVU730
	.loc 1 1806 3 view .LVU731
	.loc 1 1807 3 view .LVU732
	.loc 1 1808 3 view .LVU733
	.loc 1 1810 3 view .LVU734
	.loc 1 1813 3 view .LVU735
	.loc 1 1813 3 view .LVU736
	ldrb	ip, [r4, #56]	@ zero_extendqisi2
	uxtb	ip, ip
	cmp	ip, #1
	beq	.L117
	.loc 1 1813 3 discriminator 2 view .LVU737
	movs	r3, #1
	strb	r3, [r4, #56]
	.loc 1 1813 3 discriminator 2 view .LVU738
	.loc 1 1815 3 discriminator 2 view .LVU739
	.loc 1 1815 11 is_stmt 0 discriminator 2 view .LVU740
	ldrb	ip, [r4, #57]	@ zero_extendqisi2
	uxtb	ip, ip
	.loc 1 1815 5 discriminator 2 view .LVU741
	cmp	ip, r3
	beq	.L120
	.loc 1 1850 12 view .LVU742
	movs	r7, #2
.LVL150:
.L115:
	.loc 1 1854 3 is_stmt 1 view .LVU743
	.loc 1 1854 3 view .LVU744
	movs	r3, #0
	strb	r3, [r4, #56]
	.loc 1 1854 3 view .LVU745
	.loc 1 1857 3 view .LVU746
.LVL151:
.L114:
	.loc 1 1858 1 is_stmt 0 view .LVU747
	mov	r0, r7
	add	sp, sp, #12
.LCFI29:
	.cfi_remember_state
	.cfi_def_cfa_offset 20
	@ sp needed
	pop	{r4, r5, r6, r7, pc}
.LVL152:
.L120:
.LCFI30:
	.cfi_restore_state
	.loc 1 1817 5 is_stmt 1 view .LVU748
	.loc 1 1817 22 is_stmt 0 view .LVU749
	movs	r2, #0
	str	r2, [r4, #60]
	.loc 1 1820 5 is_stmt 1 view .LVU750
	.loc 1 1820 18 is_stmt 0 view .LVU751
	movs	r3, #130
	strb	r3, [r4, #57]
	.loc 1 1823 5 is_stmt 1 view .LVU752
	.loc 1 1823 14 is_stmt 0 view .LVU753
	ldr	r3, [r4, #64]
	str	r3, [sp]
	mov	r3, r0
	movs	r1, #32
	mov	r0, r4
.LVL153:
	.loc 1 1823 14 view .LVU754
	bl	QSPI_WaitFlagStateUntilTimeout
.LVL154:
	.loc 1 1825 5 is_stmt 1 view .LVU755
	.loc 1 1825 8 is_stmt 0 view .LVU756
	mov	r7, r0
	cmp	r0, #0
	bne	.L115
	.loc 1 1828 5 is_stmt 1 view .LVU757
	ldr	r2, [r4]
	ldr	r3, [r2]
	bic	r3, r3, #8
	ldr	r1, [r5, #4]
	orrs	r3, r3, r1
	str	r3, [r2]
	.loc 1 1830 5 view .LVU758
	.loc 1 1830 12 is_stmt 0 view .LVU759
	ldr	r3, [r5, #4]
	.loc 1 1830 8 view .LVU760
	cmp	r3, #8
	beq	.L121
.L116:
	.loc 1 1845 7 is_stmt 1 view .LVU761
	mov	r2, #201326592
	mov	r1, r6
	mov	r0, r4
.LVL155:
	.loc 1 1845 7 is_stmt 0 view .LVU762
	bl	QSPI_Config
.LVL156:
	b	.L115
.LVL157:
.L121:
	.loc 1 1832 9 is_stmt 1 view .LVU763
	.loc 1 1835 9 view .LVU764
	ldr	r3, [r4]
	ldr	r2, [r5]
	str	r2, [r3, #48]
	.loc 1 1838 9 view .LVU765
	ldr	r3, [r4]
	movs	r2, #16
	str	r2, [r3, #12]
	.loc 1 1841 9 view .LVU766
	ldr	r2, [r4]
	ldr	r3, [r2]
	orr	r3, r3, #1048576
	str	r3, [r2]
	b	.L116
.LVL158:
.L117:
	.loc 1 1813 3 is_stmt 0 view .LVU767
	movs	r7, #2
	b	.L114
	.cfi_endproc
.LFE89:
	.size	HAL_QSPI_MemoryMapped, .-HAL_QSPI_MemoryMapped
	.section	.text.HAL_QSPI_ErrorCallback,"ax",%progbits
	.align	1
	.weak	HAL_QSPI_ErrorCallback
	.syntax unified
	.thumb
	.thumb_func
	.type	HAL_QSPI_ErrorCallback, %function
HAL_QSPI_ErrorCallback:
.LVL159:
.LFB90:
	.loc 1 1866 1 is_stmt 1 view -0
	.cfi_startproc
	@ args = 0, pretend = 0, frame = 0
	@ frame_needed = 0, uses_anonymous_args = 0
	@ link register save eliminated.
	.loc 1 1868 3 view .LVU769
	.loc 1 1873 1 is_stmt 0 view .LVU770
	bx	lr
	.cfi_endproc
.LFE90:
	.size	HAL_QSPI_ErrorCallback, .-HAL_QSPI_ErrorCallback
	.section	.text.QSPI_DMAAbortCplt,"ax",%progbits
	.align	1
	.syntax unified
	.thumb
	.thumb_func
	.type	QSPI_DMAAbortCplt, %function
QSPI_DMAAbortCplt:
.LVL160:
.LFB112:
	.loc 1 2592 1 is_stmt 1 view -0
	.cfi_startproc
	@ args = 0, pretend = 0, frame = 0
	@ frame_needed = 0, uses_anonymous_args = 0
	.loc 1 2592 1 is_stmt 0 view .LVU772
	push	{r3, lr}
.LCFI31:
	.cfi_def_cfa_offset 8
	.cfi_offset 3, -8
	.cfi_offset 14, -4
	.loc 1 2593 3 is_stmt 1 view .LVU773
	.loc 1 2593 23 is_stmt 0 view .LVU774
	ldr	r0, [r0, #40]
.LVL161:
	.loc 1 2595 3 is_stmt 1 view .LVU775
	.loc 1 2595 22 is_stmt 0 view .LVU776
	movs	r3, #0
	str	r3, [r0, #48]
	.loc 1 2596 3 is_stmt 1 view .LVU777
	.loc 1 2596 22 is_stmt 0 view .LVU778
	str	r3, [r0, #36]
	.loc 1 2598 3 is_stmt 1 view .LVU779
	.loc 1 2598 11 is_stmt 0 view .LVU780
	ldrb	r3, [r0, #57]	@ zero_extendqisi2
	uxtb	r3, r3
	.loc 1 2598 5 view .LVU781
	cmp	r3, #8
	bne	.L124
	.loc 1 2602 5 is_stmt 1 view .LVU782
	ldr	r3, [r0]
	movs	r2, #2
	str	r2, [r3, #12]
	.loc 1 2605 5 view .LVU783
	ldr	r2, [r0]
	ldr	r3, [r2]
	orr	r3, r3, #131072
	str	r3, [r2]
	.loc 1 2608 5 view .LVU784
	ldr	r2, [r0]
	ldr	r3, [r2]
	orr	r3, r3, #2
	str	r3, [r2]
.LVL162:
.L123:
	.loc 1 2623 1 is_stmt 0 view .LVU785
	pop	{r3, pc}
.LVL163:
.L124:
	.loc 1 2614 5 is_stmt 1 view .LVU786
	.loc 1 2614 18 is_stmt 0 view .LVU787
	movs	r3, #1
	strb	r3, [r0, #57]
	.loc 1 2620 5 is_stmt 1 view .LVU788
	bl	HAL_QSPI_ErrorCallback
.LVL164:
	.loc 1 2623 1 is_stmt 0 view .LVU789
	b	.L123
	.cfi_endproc
.LFE112:
	.size	QSPI_DMAAbortCplt, .-QSPI_DMAAbortCplt
	.section	.text.HAL_QSPI_AbortCpltCallback,"ax",%progbits
	.align	1
	.weak	HAL_QSPI_AbortCpltCallback
	.syntax unified
	.thumb
	.thumb_func
	.type	HAL_QSPI_AbortCpltCallback, %function
HAL_QSPI_AbortCpltCallback:
.LVL165:
.LFB91:
	.loc 1 1881 1 is_stmt 1 view -0
	.cfi_startproc
	@ args = 0, pretend = 0, frame = 0
	@ frame_needed = 0, uses_anonymous_args = 0
	@ link register save eliminated.
	.loc 1 1883 3 view .LVU791
	.loc 1 1888 1 is_stmt 0 view .LVU792
	bx	lr
	.cfi_endproc
.LFE91:
	.size	HAL_QSPI_AbortCpltCallback, .-HAL_QSPI_AbortCpltCallback
	.section	.text.HAL_QSPI_CmdCpltCallback,"ax",%progbits
	.align	1
	.weak	HAL_QSPI_CmdCpltCallback
	.syntax unified
	.thumb
	.thumb_func
	.type	HAL_QSPI_CmdCpltCallback, %function
HAL_QSPI_CmdCpltCallback:
.LVL166:
.LFB92:
	.loc 1 1896 1 is_stmt 1 view -0
	.cfi_startproc
	@ args = 0, pretend = 0, frame = 0
	@ frame_needed = 0, uses_anonymous_args = 0
	@ link register save eliminated.
	.loc 1 1898 3 view .LVU794
	.loc 1 1903 1 is_stmt 0 view .LVU795
	bx	lr
	.cfi_endproc
.LFE92:
	.size	HAL_QSPI_CmdCpltCallback, .-HAL_QSPI_CmdCpltCallback
	.section	.text.HAL_QSPI_RxCpltCallback,"ax",%progbits
	.align	1
	.weak	HAL_QSPI_RxCpltCallback
	.syntax unified
	.thumb
	.thumb_func
	.type	HAL_QSPI_RxCpltCallback, %function
HAL_QSPI_RxCpltCallback:
.LVL167:
.LFB93:
	.loc 1 1911 1 is_stmt 1 view -0
	.cfi_startproc
	@ args = 0, pretend = 0, frame = 0
	@ frame_needed = 0, uses_anonymous_args = 0
	@ link register save eliminated.
	.loc 1 1913 3 view .LVU797
	.loc 1 1918 1 is_stmt 0 view .LVU798
	bx	lr
	.cfi_endproc
.LFE93:
	.size	HAL_QSPI_RxCpltCallback, .-HAL_QSPI_RxCpltCallback
	.section	.text.HAL_QSPI_TxCpltCallback,"ax",%progbits
	.align	1
	.weak	HAL_QSPI_TxCpltCallback
	.syntax unified
	.thumb
	.thumb_func
	.type	HAL_QSPI_TxCpltCallback, %function
HAL_QSPI_TxCpltCallback:
.LVL168:
.LFB94:
	.loc 1 1926 1 is_stmt 1 view -0
	.cfi_startproc
	@ args = 0, pretend = 0, frame = 0
	@ frame_needed = 0, uses_anonymous_args = 0
	@ link register save eliminated.
	.loc 1 1928 3 view .LVU800
	.loc 1 1933 1 is_stmt 0 view .LVU801
	bx	lr
	.cfi_endproc
.LFE94:
	.size	HAL_QSPI_TxCpltCallback, .-HAL_QSPI_TxCpltCallback
	.section	.text.HAL_QSPI_RxHalfCpltCallback,"ax",%progbits
	.align	1
	.weak	HAL_QSPI_RxHalfCpltCallback
	.syntax unified
	.thumb
	.thumb_func
	.type	HAL_QSPI_RxHalfCpltCallback, %function
HAL_QSPI_RxHalfCpltCallback:
.LVL169:
.LFB95:
	.loc 1 1941 1 is_stmt 1 view -0
	.cfi_startproc
	@ args = 0, pretend = 0, frame = 0
	@ frame_needed = 0, uses_anonymous_args = 0
	@ link register save eliminated.
	.loc 1 1943 3 view .LVU803
	.loc 1 1948 1 is_stmt 0 view .LVU804
	bx	lr
	.cfi_endproc
.LFE95:
	.size	HAL_QSPI_RxHalfCpltCallback, .-HAL_QSPI_RxHalfCpltCallback
	.section	.text.QSPI_DMARxHalfCplt,"ax",%progbits
	.align	1
	.syntax unified
	.thumb
	.thumb_func
	.type	QSPI_DMARxHalfCplt, %function
QSPI_DMARxHalfCplt:
.LVL170:
.LFB109:
	.loc 1 2539 1 is_stmt 1 view -0
	.cfi_startproc
	@ args = 0, pretend = 0, frame = 0
	@ frame_needed = 0, uses_anonymous_args = 0
	.loc 1 2539 1 is_stmt 0 view .LVU806
	push	{r3, lr}
.LCFI32:
	.cfi_def_cfa_offset 8
	.cfi_offset 3, -8
	.cfi_offset 14, -4
	.loc 1 2540 3 is_stmt 1 view .LVU807
.LVL171:
	.loc 1 2545 3 view .LVU808
	ldr	r0, [r0, #40]
.LVL172:
	.loc 1 2545 3 is_stmt 0 view .LVU809
	bl	HAL_QSPI_RxHalfCpltCallback
.LVL173:
	.loc 1 2547 1 view .LVU810
	pop	{r3, pc}
	.cfi_endproc
.LFE109:
	.size	QSPI_DMARxHalfCplt, .-QSPI_DMARxHalfCplt
	.section	.text.HAL_QSPI_TxHalfCpltCallback,"ax",%progbits
	.align	1
	.weak	HAL_QSPI_TxHalfCpltCallback
	.syntax unified
	.thumb
	.thumb_func
	.type	HAL_QSPI_TxHalfCpltCallback, %function
HAL_QSPI_TxHalfCpltCallback:
.LVL174:
.LFB96:
	.loc 1 1956 1 is_stmt 1 view -0
	.cfi_startproc
	@ args = 0, pretend = 0, frame = 0
	@ frame_needed = 0, uses_anonymous_args = 0
	@ link register save eliminated.
	.loc 1 1958 3 view .LVU812
	.loc 1 1963 1 is_stmt 0 view .LVU813
	bx	lr
	.cfi_endproc
.LFE96:
	.size	HAL_QSPI_TxHalfCpltCallback, .-HAL_QSPI_TxHalfCpltCallback
	.section	.text.QSPI_DMATxHalfCplt,"ax",%progbits
	.align	1
	.syntax unified
	.thumb
	.thumb_func
	.type	QSPI_DMATxHalfCplt, %function
QSPI_DMATxHalfCplt:
.LVL175:
.LFB110:
	.loc 1 2555 1 is_stmt 1 view -0
	.cfi_startproc
	@ args = 0, pretend = 0, frame = 0
	@ frame_needed = 0, uses_anonymous_args = 0
	.loc 1 2555 1 is_stmt 0 view .LVU815
	push	{r3, lr}
.LCFI33:
	.cfi_def_cfa_offset 8
	.cfi_offset 3, -8
	.cfi_offset 14, -4
	.loc 1 2556 3 is_stmt 1 view .LVU816
.LVL176:
	.loc 1 2561 3 view .LVU817
	ldr	r0, [r0, #40]
.LVL177:
	.loc 1 2561 3 is_stmt 0 view .LVU818
	bl	HAL_QSPI_TxHalfCpltCallback
.LVL178:
	.loc 1 2563 1 view .LVU819
	pop	{r3, pc}
	.cfi_endproc
.LFE110:
	.size	QSPI_DMATxHalfCplt, .-QSPI_DMATxHalfCplt
	.section	.text.HAL_QSPI_FifoThresholdCallback,"ax",%progbits
	.align	1
	.weak	HAL_QSPI_FifoThresholdCallback
	.syntax unified
	.thumb
	.thumb_func
	.type	HAL_QSPI_FifoThresholdCallback, %function
HAL_QSPI_FifoThresholdCallback:
.LVL179:
.LFB97:
	.loc 1 1971 1 is_stmt 1 view -0
	.cfi_startproc
	@ args = 0, pretend = 0, frame = 0
	@ frame_needed = 0, uses_anonymous_args = 0
	@ link register save eliminated.
	.loc 1 1973 3 view .LVU821
	.loc 1 1978 1 is_stmt 0 view .LVU822
	bx	lr
	.cfi_endproc
.LFE97:
	.size	HAL_QSPI_FifoThresholdCallback, .-HAL_QSPI_FifoThresholdCallback
	.section	.text.HAL_QSPI_StatusMatchCallback,"ax",%progbits
	.align	1
	.weak	HAL_QSPI_StatusMatchCallback
	.syntax unified
	.thumb
	.thumb_func
	.type	HAL_QSPI_StatusMatchCallback, %function
HAL_QSPI_StatusMatchCallback:
.LVL180:
.LFB98:
	.loc 1 1986 1 is_stmt 1 view -0
	.cfi_startproc
	@ args = 0, pretend = 0, frame = 0
	@ frame_needed = 0, uses_anonymous_args = 0
	@ link register save eliminated.
	.loc 1 1988 3 view .LVU824
	.loc 1 1993 1 is_stmt 0 view .LVU825
	bx	lr
	.cfi_endproc
.LFE98:
	.size	HAL_QSPI_StatusMatchCallback, .-HAL_QSPI_StatusMatchCallback
	.section	.text.HAL_QSPI_TimeOutCallback,"ax",%progbits
	.align	1
	.weak	HAL_QSPI_TimeOutCallback
	.syntax unified
	.thumb
	.thumb_func
	.type	HAL_QSPI_TimeOutCallback, %function
HAL_QSPI_TimeOutCallback:
.LVL181:
.LFB99:
	.loc 1 2001 1 is_stmt 1 view -0
	.cfi_startproc
	@ args = 0, pretend = 0, frame = 0
	@ frame_needed = 0, uses_anonymous_args = 0
	@ link register save eliminated.
	.loc 1 2003 3 view .LVU827
	.loc 1 2008 1 is_stmt 0 view .LVU828
	bx	lr
	.cfi_endproc
.LFE99:
	.size	HAL_QSPI_TimeOutCallback, .-HAL_QSPI_TimeOutCallback
	.section	.text.HAL_QSPI_GetState,"ax",%progbits
	.align	1
	.global	HAL_QSPI_GetState
	.syntax unified
	.thumb
	.thumb_func
	.type	HAL_QSPI_GetState, %function
HAL_QSPI_GetState:
.LVL182:
.LFB100:
	.loc 1 2259 1 is_stmt 1 view -0
	.cfi_startproc
	@ args = 0, pretend = 0, frame = 0
	@ frame_needed = 0, uses_anonymous_args = 0
	@ link register save eliminated.
	.loc 1 2261 3 view .LVU830
	.loc 1 2261 15 is_stmt 0 view .LVU831
	ldrb	r0, [r0, #57]	@ zero_extendqisi2
.LVL183:
	.loc 1 2262 1 view .LVU832
	bx	lr
	.cfi_endproc
.LFE100:
	.size	HAL_QSPI_GetState, .-HAL_QSPI_GetState
	.section	.text.HAL_QSPI_GetError,"ax",%progbits
	.align	1
	.global	HAL_QSPI_GetError
	.syntax unified
	.thumb
	.thumb_func
	.type	HAL_QSPI_GetError, %function
HAL_QSPI_GetError:
.LVL184:
.LFB101:
	.loc 1 2270 1 is_stmt 1 view -0
	.cfi_startproc
	@ args = 0, pretend = 0, frame = 0
	@ frame_needed = 0, uses_anonymous_args = 0
	@ link register save eliminated.
	.loc 1 2271 3 view .LVU834
	.loc 1 2271 15 is_stmt 0 view .LVU835
	ldr	r0, [r0, #60]
.LVL185:
	.loc 1 2272 1 view .LVU836
	bx	lr
	.cfi_endproc
.LFE101:
	.size	HAL_QSPI_GetError, .-HAL_QSPI_GetError
	.section	.text.HAL_QSPI_Abort,"ax",%progbits
	.align	1
	.global	HAL_QSPI_Abort
	.syntax unified
	.thumb
	.thumb_func
	.type	HAL_QSPI_Abort, %function
HAL_QSPI_Abort:
.LVL186:
.LFB102:
	.loc 1 2280 1 is_stmt 1 view -0
	.cfi_startproc
	@ args = 0, pretend = 0, frame = 0
	@ frame_needed = 0, uses_anonymous_args = 0
	.loc 1 2280 1 is_stmt 0 view .LVU838
	push	{r4, r5, lr}
.LCFI34:
	.cfi_def_cfa_offset 12
	.cfi_offset 4, -12
	.cfi_offset 5, -8
	.cfi_offset 14, -4
	sub	sp, sp, #12
.LCFI35:
	.cfi_def_cfa_offset 24
	mov	r4, r0
	.loc 1 2281 3 is_stmt 1 view .LVU839
.LVL187:
	.loc 1 2282 3 view .LVU840
	.loc 1 2282 24 is_stmt 0 view .LVU841
	bl	HAL_GetTick
.LVL188:
	.loc 1 2282 24 view .LVU842
	mov	r5, r0
.LVL189:
	.loc 1 2285 3 is_stmt 1 view .LVU843
	.loc 1 2285 23 is_stmt 0 view .LVU844
	ldrb	r2, [r4, #57]	@ zero_extendqisi2
	.loc 1 2285 6 view .LVU845
	ands	r0, r2, #2
.LVL190:
	.loc 1 2285 6 view .LVU846
	beq	.L143
	.loc 1 2288 5 is_stmt 1 view .LVU847
	.loc 1 2288 5 view .LVU848
	movs	r3, #0
	strb	r3, [r4, #56]
	.loc 1 2288 5 view .LVU849
	.loc 1 2290 5 view .LVU850
	.loc 1 2290 15 is_stmt 0 view .LVU851
	ldr	r3, [r4]
	.loc 1 2290 25 view .LVU852
	ldr	r2, [r3]
	.loc 1 2290 8 view .LVU853
	tst	r2, #4
	bne	.L148
	.loc 1 2281 21 view .LVU854
	movs	r0, #0
.LVL191:
.L144:
	.loc 1 2303 5 is_stmt 1 view .LVU855
	.loc 1 2303 9 is_stmt 0 view .LVU856
	ldr	r3, [r4]
	ldr	r2, [r3, #8]
	.loc 1 2303 8 view .LVU857
	tst	r2, #32
	bne	.L149
	.loc 1 2331 7 is_stmt 1 view .LVU858
	.loc 1 2331 20 is_stmt 0 view .LVU859
	movs	r3, #1
	strb	r3, [r4, #57]
.LVL192:
.L143:
	.loc 1 2335 3 is_stmt 1 view .LVU860
	.loc 1 2336 1 is_stmt 0 view .LVU861
	add	sp, sp, #12
.LCFI36:
	.cfi_remember_state
	.cfi_def_cfa_offset 12
	@ sp needed
	pop	{r4, r5, pc}
.LVL193:
.L148:
.LCFI37:
	.cfi_restore_state
	.loc 1 2293 7 is_stmt 1 view .LVU862
	ldr	r2, [r3]
	bic	r2, r2, #4
	str	r2, [r3]
	.loc 1 2296 7 view .LVU863
	.loc 1 2296 16 is_stmt 0 view .LVU864
	ldr	r0, [r4, #52]
	bl	HAL_DMA_Abort
.LVL194:
	.loc 1 2297 7 is_stmt 1 view .LVU865
	.loc 1 2297 9 is_stmt 0 view .LVU866
	cmp	r0, #0
	beq	.L144
	.loc 1 2299 9 is_stmt 1 view .LVU867
	.loc 1 2299 14 is_stmt 0 view .LVU868
	ldr	r3, [r4, #60]
	.loc 1 2299 26 view .LVU869
	orr	r3, r3, #4
	str	r3, [r4, #60]
	b	.L144
.L149:
	.loc 1 2306 7 is_stmt 1 view .LVU870
	ldr	r2, [r3]
	orr	r2, r2, #2
	str	r2, [r3]
	.loc 1 2309 7 view .LVU871
	.loc 1 2309 16 is_stmt 0 view .LVU872
	ldr	r3, [r4, #64]
	str	r3, [sp]
	mov	r3, r5
	movs	r2, #1
	movs	r1, #2
	mov	r0, r4
.LVL195:
	.loc 1 2309 16 view .LVU873
	bl	QSPI_WaitFlagStateUntilTimeout
.LVL196:
	.loc 1 2311 7 is_stmt 1 view .LVU874
	.loc 1 2311 10 is_stmt 0 view .LVU875
	cmp	r0, #0
	bne	.L143
	.loc 1 2313 9 is_stmt 1 view .LVU876
	ldr	r3, [r4]
	movs	r2, #2
	str	r2, [r3, #12]
	.loc 1 2316 9 view .LVU877
	.loc 1 2316 18 is_stmt 0 view .LVU878
	ldr	r3, [r4, #64]
	str	r3, [sp]
	mov	r3, r5
	movs	r2, #0
	movs	r1, #32
	mov	r0, r4
.LVL197:
	.loc 1 2316 18 view .LVU879
	bl	QSPI_WaitFlagStateUntilTimeout
.LVL198:
	.loc 1 2319 7 is_stmt 1 view .LVU880
	.loc 1 2319 10 is_stmt 0 view .LVU881
	cmp	r0, #0
	bne	.L143
	.loc 1 2322 9 is_stmt 1 view .LVU882
	ldr	r2, [r4]
	ldr	r3, [r2, #20]
	bic	r3, r3, #201326592
	str	r3, [r2, #20]
	.loc 1 2325 9 view .LVU883
	.loc 1 2325 22 is_stmt 0 view .LVU884
	movs	r3, #1
	strb	r3, [r4, #57]
	b	.L143
	.cfi_endproc
.LFE102:
	.size	HAL_QSPI_Abort, .-HAL_QSPI_Abort
	.section	.text.HAL_QSPI_Transmit,"ax",%progbits
	.align	1
	.global	HAL_QSPI_Transmit
	.syntax unified
	.thumb
	.thumb_func
	.type	HAL_QSPI_Transmit, %function
HAL_QSPI_Transmit:
.LVL199:
.LFB81:
	.loc 1 982 1 is_stmt 1 view -0
	.cfi_startproc
	@ args = 0, pretend = 0, frame = 0
	@ frame_needed = 0, uses_anonymous_args = 0
	.loc 1 982 1 is_stmt 0 view .LVU886
	push	{r4, r5, r6, r7, r8, r9, lr}
.LCFI38:
	.cfi_def_cfa_offset 28
	.cfi_offset 4, -28
	.cfi_offset 5, -24
	.cfi_offset 6, -20
	.cfi_offset 7, -16
	.cfi_offset 8, -12
	.cfi_offset 9, -8
	.cfi_offset 14, -4
	sub	sp, sp, #12
.LCFI39:
	.cfi_def_cfa_offset 40
	mov	r4, r0
	mov	r9, r1
	mov	r7, r2
	.loc 1 983 3 is_stmt 1 view .LVU887
.LVL200:
	.loc 1 984 3 view .LVU888
	.loc 1 984 24 is_stmt 0 view .LVU889
	bl	HAL_GetTick
.LVL201:
	.loc 1 985 3 is_stmt 1 view .LVU890
	.loc 1 985 35 is_stmt 0 view .LVU891
	ldr	r8, [r4]
.LVL202:
	.loc 1 988 3 is_stmt 1 view .LVU892
	.loc 1 988 3 view .LVU893
	ldrb	r3, [r4, #56]	@ zero_extendqisi2
	uxtb	r3, r3
	cmp	r3, #1
	beq	.L158
	mov	r6, r0
	.loc 1 988 3 discriminator 2 view .LVU894
	movs	r3, #1
	strb	r3, [r4, #56]
	.loc 1 988 3 discriminator 2 view .LVU895
	.loc 1 990 3 discriminator 2 view .LVU896
	.loc 1 990 11 is_stmt 0 discriminator 2 view .LVU897
	ldrb	r5, [r4, #57]	@ zero_extendqisi2
	uxtb	r5, r5
	.loc 1 990 5 discriminator 2 view .LVU898
	cmp	r5, r3
	beq	.L161
	.loc 1 1050 12 view .LVU899
	movs	r5, #2
.LVL203:
.L152:
	.loc 1 1054 3 is_stmt 1 view .LVU900
	.loc 1 1054 3 view .LVU901
	movs	r3, #0
	strb	r3, [r4, #56]
	.loc 1 1054 3 view .LVU902
	.loc 1 1056 3 view .LVU903
.LVL204:
.L151:
	.loc 1 1057 1 is_stmt 0 view .LVU904
	mov	r0, r5
	add	sp, sp, #12
.LCFI40:
	.cfi_remember_state
	.cfi_def_cfa_offset 28
	@ sp needed
	pop	{r4, r5, r6, r7, r8, r9, pc}
.LVL205:
.L161:
.LCFI41:
	.cfi_restore_state
	.loc 1 992 5 is_stmt 1 view .LVU905
	.loc 1 992 22 is_stmt 0 view .LVU906
	movs	r3, #0
	str	r3, [r4, #60]
	.loc 1 994 5 is_stmt 1 view .LVU907
	.loc 1 994 7 is_stmt 0 view .LVU908
	cmp	r9, #0
	beq	.L153
	.loc 1 997 7 is_stmt 1 view .LVU909
	.loc 1 997 20 is_stmt 0 view .LVU910
	movs	r3, #18
	strb	r3, [r4, #57]
	.loc 1 1000 7 is_stmt 1 view .LVU911
	.loc 1 1000 28 is_stmt 0 view .LVU912
	ldr	r3, [r8, #16]
	.loc 1 1000 59 view .LVU913
	adds	r3, r3, #1
	.loc 1 1000 26 view .LVU914
	str	r3, [r4, #36]
	.loc 1 1001 7 is_stmt 1 view .LVU915
	.loc 1 1001 27 is_stmt 0 view .LVU916
	ldr	r3, [r8, #16]
	.loc 1 1001 58 view .LVU917
	adds	r3, r3, #1
	.loc 1 1001 25 view .LVU918
	str	r3, [r4, #32]
	.loc 1 1002 7 is_stmt 1 view .LVU919
	.loc 1 1002 25 is_stmt 0 view .LVU920
	str	r9, [r4, #28]
	.loc 1 1005 7 is_stmt 1 view .LVU921
	ldr	r3, [r8, #20]
	bic	r3, r3, #201326592
	str	r3, [r8, #20]
	.loc 1 1007 7 view .LVU922
	.loc 1 983 21 is_stmt 0 view .LVU923
	movs	r5, #0
.LVL206:
.L154:
	.loc 1 1007 32 is_stmt 1 view .LVU924
	.loc 1 1007 18 is_stmt 0 view .LVU925
	ldr	r3, [r4, #36]
	.loc 1 1007 32 view .LVU926
	cbz	r3, .L155
	.loc 1 1010 9 is_stmt 1 view .LVU927
	.loc 1 1010 18 is_stmt 0 view .LVU928
	str	r7, [sp]
	mov	r3, r6
	movs	r2, #1
	movs	r1, #4
	mov	r0, r4
	bl	QSPI_WaitFlagStateUntilTimeout
.LVL207:
	.loc 1 1012 9 is_stmt 1 view .LVU929
	.loc 1 1012 12 is_stmt 0 view .LVU930
	mov	r5, r0
	cbnz	r0, .L155
	.loc 1 1017 9 is_stmt 1 view .LVU931
	.loc 1 1017 45 is_stmt 0 view .LVU932
	ldr	r3, [r4, #28]
	.loc 1 1017 39 view .LVU933
	ldrb	r3, [r3]	@ zero_extendqisi2
	.loc 1 1017 37 view .LVU934
	strb	r3, [r8, #32]
	.loc 1 1018 9 is_stmt 1 view .LVU935
	.loc 1 1018 14 is_stmt 0 view .LVU936
	ldr	r1, [r4, #28]
	.loc 1 1018 26 view .LVU937
	adds	r1, r1, #1
	str	r1, [r4, #28]
	.loc 1 1019 9 is_stmt 1 view .LVU938
	.loc 1 1019 14 is_stmt 0 view .LVU939
	ldr	r1, [r4, #36]
	.loc 1 1019 27 view .LVU940
	subs	r1, r1, #1
	str	r1, [r4, #36]
	b	.L154
.LVL208:
.L155:
	.loc 1 1022 7 is_stmt 1 view .LVU941
	.loc 1 1022 10 is_stmt 0 view .LVU942
	cbz	r5, .L162
.LVL209:
.L157:
	.loc 1 1040 7 is_stmt 1 view .LVU943
	.loc 1 1040 20 is_stmt 0 view .LVU944
	movs	r3, #1
	strb	r3, [r4, #57]
	b	.L152
.L162:
	.loc 1 1025 9 is_stmt 1 view .LVU945
	.loc 1 1025 18 is_stmt 0 view .LVU946
	str	r7, [sp]
	mov	r3, r6
	movs	r2, #1
	movs	r1, #2
	mov	r0, r4
	bl	QSPI_WaitFlagStateUntilTimeout
.LVL210:
	.loc 1 1027 9 is_stmt 1 view .LVU947
	.loc 1 1027 12 is_stmt 0 view .LVU948
	mov	r5, r0
	cmp	r0, #0
	bne	.L157
	.loc 1 1030 11 is_stmt 1 view .LVU949
	ldr	r3, [r4]
	movs	r2, #2
	str	r2, [r3, #12]
	.loc 1 1034 11 view .LVU950
	.loc 1 1034 20 is_stmt 0 view .LVU951
	mov	r0, r4
.LVL211:
	.loc 1 1034 20 view .LVU952
	bl	HAL_QSPI_Abort
.LVL212:
	mov	r5, r0
.LVL213:
	.loc 1 1034 20 view .LVU953
	b	.L157
.LVL214:
.L153:
	.loc 1 1044 7 is_stmt 1 view .LVU954
	.loc 1 1044 12 is_stmt 0 view .LVU955
	ldr	r3, [r4, #60]
	.loc 1 1044 24 view .LVU956
	orr	r3, r3, #8
	str	r3, [r4, #60]
	.loc 1 1045 7 is_stmt 1 view .LVU957
.LVL215:
	.loc 1 1045 7 is_stmt 0 view .LVU958
	b	.L152
.LVL216:
.L158:
	.loc 1 988 3 view .LVU959
	movs	r5, #2
	b	.L151
	.cfi_endproc
.LFE81:
	.size	HAL_QSPI_Transmit, .-HAL_QSPI_Transmit
	.section	.text.HAL_QSPI_Receive,"ax",%progbits
	.align	1
	.global	HAL_QSPI_Receive
	.syntax unified
	.thumb
	.thumb_func
	.type	HAL_QSPI_Receive, %function
HAL_QSPI_Receive:
.LVL217:
.LFB82:
	.loc 1 1069 1 is_stmt 1 view -0
	.cfi_startproc
	@ args = 0, pretend = 0, frame = 0
	@ frame_needed = 0, uses_anonymous_args = 0
	.loc 1 1069 1 is_stmt 0 view .LVU961
	push	{r4, r5, r6, r7, r8, r9, lr}
.LCFI42:
	.cfi_def_cfa_offset 28
	.cfi_offset 4, -28
	.cfi_offset 5, -24
	.cfi_offset 6, -20
	.cfi_offset 7, -16
	.cfi_offset 8, -12
	.cfi_offset 9, -8
	.cfi_offset 14, -4
	sub	sp, sp, #12
.LCFI43:
	.cfi_def_cfa_offset 40
	mov	r4, r0
	mov	r9, r1
	mov	r7, r2
	.loc 1 1070 3 is_stmt 1 view .LVU962
.LVL218:
	.loc 1 1071 3 view .LVU963
	.loc 1 1071 24 is_stmt 0 view .LVU964
	bl	HAL_GetTick
.LVL219:
	.loc 1 1072 3 is_stmt 1 view .LVU965
	.loc 1 1072 23 is_stmt 0 view .LVU966
	ldr	r8, [r4]
	.loc 1 1072 12 view .LVU967
	ldr	r2, [r8, #24]
.LVL220:
	.loc 1 1073 3 is_stmt 1 view .LVU968
	.loc 1 1076 3 view .LVU969
	.loc 1 1076 3 view .LVU970
	ldrb	r3, [r4, #56]	@ zero_extendqisi2
	uxtb	r3, r3
	cmp	r3, #1
	beq	.L171
	mov	r6, r0
	.loc 1 1076 3 discriminator 2 view .LVU971
	movs	r3, #1
	strb	r3, [r4, #56]
	.loc 1 1076 3 discriminator 2 view .LVU972
	.loc 1 1078 3 discriminator 2 view .LVU973
	.loc 1 1078 11 is_stmt 0 discriminator 2 view .LVU974
	ldrb	r5, [r4, #57]	@ zero_extendqisi2
	uxtb	r5, r5
	.loc 1 1078 5 discriminator 2 view .LVU975
	cmp	r5, r3
	beq	.L174
	.loc 1 1141 12 view .LVU976
	movs	r5, #2
.LVL221:
.L165:
	.loc 1 1145 3 is_stmt 1 view .LVU977
	.loc 1 1145 3 view .LVU978
	movs	r3, #0
	strb	r3, [r4, #56]
	.loc 1 1145 3 view .LVU979
	.loc 1 1147 3 view .LVU980
.LVL222:
.L164:
	.loc 1 1148 1 is_stmt 0 view .LVU981
	mov	r0, r5
	add	sp, sp, #12
.LCFI44:
	.cfi_remember_state
	.cfi_def_cfa_offset 28
	@ sp needed
	pop	{r4, r5, r6, r7, r8, r9, pc}
.LVL223:
.L174:
.LCFI45:
	.cfi_restore_state
	.loc 1 1080 5 is_stmt 1 view .LVU982
	.loc 1 1080 22 is_stmt 0 view .LVU983
	movs	r3, #0
	str	r3, [r4, #60]
	.loc 1 1082 5 is_stmt 1 view .LVU984
	.loc 1 1082 7 is_stmt 0 view .LVU985
	cmp	r9, #0
	beq	.L166
	.loc 1 1085 7 is_stmt 1 view .LVU986
	.loc 1 1085 20 is_stmt 0 view .LVU987
	movs	r3, #34
	strb	r3, [r4, #57]
	.loc 1 1088 7 is_stmt 1 view .LVU988
	.loc 1 1088 28 is_stmt 0 view .LVU989
	ldr	r3, [r8, #16]
	.loc 1 1088 59 view .LVU990
	adds	r3, r3, #1
	.loc 1 1088 26 view .LVU991
	str	r3, [r4, #48]
	.loc 1 1089 7 is_stmt 1 view .LVU992
	.loc 1 1089 27 is_stmt 0 view .LVU993
	ldr	r3, [r8, #16]
	.loc 1 1089 58 view .LVU994
	adds	r3, r3, #1
	.loc 1 1089 25 view .LVU995
	str	r3, [r4, #44]
	.loc 1 1090 7 is_stmt 1 view .LVU996
	.loc 1 1090 25 is_stmt 0 view .LVU997
	str	r9, [r4, #40]
	.loc 1 1093 7 is_stmt 1 view .LVU998
	ldr	r3, [r8, #20]
	bic	r3, r3, #201326592
	orr	r3, r3, #67108864
	str	r3, [r8, #20]
	.loc 1 1096 7 view .LVU999
	ldr	r3, [r4]
	str	r2, [r3, #24]
	.loc 1 1098 7 view .LVU1000
	.loc 1 1070 21 is_stmt 0 view .LVU1001
	movs	r5, #0
.LVL224:
.L167:
	.loc 1 1098 32 is_stmt 1 view .LVU1002
	.loc 1 1098 18 is_stmt 0 view .LVU1003
	ldr	r3, [r4, #48]
	.loc 1 1098 32 view .LVU1004
	cbz	r3, .L168
	.loc 1 1101 9 is_stmt 1 view .LVU1005
	.loc 1 1101 18 is_stmt 0 view .LVU1006
	str	r7, [sp]
	mov	r3, r6
	movs	r2, #1
	movs	r1, #6
	mov	r0, r4
	bl	QSPI_WaitFlagStateUntilTimeout
.LVL225:
	.loc 1 1103 9 is_stmt 1 view .LVU1007
	.loc 1 1103 13 is_stmt 0 view .LVU1008
	mov	r5, r0
	cbnz	r0, .L168
	.loc 1 1108 9 is_stmt 1 view .LVU1009
	.loc 1 1108 15 is_stmt 0 view .LVU1010
	ldr	r3, [r4, #40]
	.loc 1 1108 30 view .LVU1011
	ldrb	r2, [r8, #32]	@ zero_extendqisi2
	.loc 1 1108 28 view .LVU1012
	strb	r2, [r3]
	.loc 1 1109 9 is_stmt 1 view .LVU1013
	.loc 1 1109 14 is_stmt 0 view .LVU1014
	ldr	r1, [r4, #40]
	.loc 1 1109 26 view .LVU1015
	adds	r1, r1, #1
	str	r1, [r4, #40]
	.loc 1 1110 9 is_stmt 1 view .LVU1016
	.loc 1 1110 14 is_stmt 0 view .LVU1017
	ldr	r1, [r4, #48]
	.loc 1 1110 27 view .LVU1018
	subs	r1, r1, #1
	str	r1, [r4, #48]
	b	.L167
.LVL226:
.L168:
	.loc 1 1113 7 is_stmt 1 view .LVU1019
	.loc 1 1113 10 is_stmt 0 view .LVU1020
	cbz	r5, .L175
.LVL227:
.L170:
	.loc 1 1131 7 is_stmt 1 view .LVU1021
	.loc 1 1131 20 is_stmt 0 view .LVU1022
	movs	r3, #1
	strb	r3, [r4, #57]
	b	.L165
.L175:
	.loc 1 1116 9 is_stmt 1 view .LVU1023
	.loc 1 1116 18 is_stmt 0 view .LVU1024
	str	r7, [sp]
	mov	r3, r6
	movs	r2, #1
	movs	r1, #2
	mov	r0, r4
	bl	QSPI_WaitFlagStateUntilTimeout
.LVL228:
	.loc 1 1118 9 is_stmt 1 view .LVU1025
	.loc 1 1118 13 is_stmt 0 view .LVU1026
	mov	r5, r0
	cmp	r0, #0
	bne	.L170
	.loc 1 1121 11 is_stmt 1 view .LVU1027
	ldr	r3, [r4]
	movs	r2, #2
	str	r2, [r3, #12]
	.loc 1 1125 11 view .LVU1028
	.loc 1 1125 20 is_stmt 0 view .LVU1029
	mov	r0, r4
.LVL229:
	.loc 1 1125 20 view .LVU1030
	bl	HAL_QSPI_Abort
.LVL230:
	mov	r5, r0
.LVL231:
	.loc 1 1125 20 view .LVU1031
	b	.L170
.LVL232:
.L166:
	.loc 1 1135 7 is_stmt 1 view .LVU1032
	.loc 1 1135 12 is_stmt 0 view .LVU1033
	ldr	r3, [r4, #60]
	.loc 1 1135 24 view .LVU1034
	orr	r3, r3, #8
	str	r3, [r4, #60]
	.loc 1 1136 7 is_stmt 1 view .LVU1035
.LVL233:
	.loc 1 1136 7 is_stmt 0 view .LVU1036
	b	.L165
.LVL234:
.L171:
	.loc 1 1076 3 view .LVU1037
	movs	r5, #2
	b	.L164
	.cfi_endproc
.LFE82:
	.size	HAL_QSPI_Receive, .-HAL_QSPI_Receive
	.section	.text.HAL_QSPI_Abort_IT,"ax",%progbits
	.align	1
	.global	HAL_QSPI_Abort_IT
	.syntax unified
	.thumb
	.thumb_func
	.type	HAL_QSPI_Abort_IT, %function
HAL_QSPI_Abort_IT:
.LVL235:
.LFB103:
	.loc 1 2344 1 is_stmt 1 view -0
	.cfi_startproc
	@ args = 0, pretend = 0, frame = 0
	@ frame_needed = 0, uses_anonymous_args = 0
	.loc 1 2345 3 view .LVU1039
	.loc 1 2348 3 view .LVU1040
	.loc 1 2348 23 is_stmt 0 view .LVU1041
	ldrb	r3, [r0, #57]	@ zero_extendqisi2
	.loc 1 2348 6 view .LVU1042
	tst	r3, #2
	beq	.L181
	.loc 1 2344 1 view .LVU1043
	push	{r4, lr}
.LCFI46:
	.cfi_def_cfa_offset 8
	.cfi_offset 4, -8
	.cfi_offset 14, -4
	mov	r4, r0
	.loc 1 2351 5 is_stmt 1 view .LVU1044
	.loc 1 2351 5 view .LVU1045
	movs	r3, #0
	strb	r3, [r0, #56]
	.loc 1 2351 5 view .LVU1046
	.loc 1 2354 5 view .LVU1047
	.loc 1 2354 18 is_stmt 0 view .LVU1048
	movs	r3, #8
	strb	r3, [r0, #57]
	.loc 1 2357 5 is_stmt 1 view .LVU1049
	ldr	r2, [r0]
	ldr	r3, [r2]
	bic	r3, r3, #2031616
	str	r3, [r2]
	.loc 1 2359 5 view .LVU1050
	.loc 1 2359 15 is_stmt 0 view .LVU1051
	ldr	r3, [r0]
	.loc 1 2359 25 view .LVU1052
	ldr	r2, [r3]
	.loc 1 2359 8 view .LVU1053
	tst	r2, #4
	bne	.L184
	.loc 1 2381 7 is_stmt 1 view .LVU1054
	.loc 1 2381 11 is_stmt 0 view .LVU1055
	ldr	r2, [r3, #8]
	.loc 1 2381 10 view .LVU1056
	tst	r2, #32
	beq	.L179
	.loc 1 2384 9 is_stmt 1 view .LVU1057
	movs	r2, #2
	str	r2, [r3, #12]
	.loc 1 2387 9 view .LVU1058
	ldr	r2, [r0]
	ldr	r3, [r2]
	orr	r3, r3, #131072
	str	r3, [r2]
	.loc 1 2390 9 view .LVU1059
	ldr	r2, [r0]
	ldr	r3, [r2]
	orr	r3, r3, #2
	str	r3, [r2]
.LVL236:
.L177:
	.loc 1 2399 3 view .LVU1060
	.loc 1 2400 1 is_stmt 0 view .LVU1061
	movs	r0, #0
	pop	{r4, pc}
.LVL237:
.L184:
	.loc 1 2362 7 is_stmt 1 view .LVU1062
	ldr	r2, [r3]
	bic	r2, r2, #4
	str	r2, [r3]
	.loc 1 2365 7 view .LVU1063
	.loc 1 2365 12 is_stmt 0 view .LVU1064
	ldr	r3, [r0, #52]
	.loc 1 2365 38 view .LVU1065
	ldr	r2, .L185
	str	r2, [r3, #56]
	.loc 1 2366 7 is_stmt 1 view .LVU1066
	.loc 1 2366 11 is_stmt 0 view .LVU1067
	ldr	r0, [r0, #52]
.LVL238:
	.loc 1 2366 11 view .LVU1068
	bl	HAL_DMA_Abort_IT
.LVL239:
	.loc 1 2366 10 view .LVU1069
	cmp	r0, #0
	beq	.L177
	.loc 1 2369 9 is_stmt 1 view .LVU1070
	.loc 1 2369 22 is_stmt 0 view .LVU1071
	movs	r3, #1
	strb	r3, [r4, #57]
	.loc 1 2375 9 is_stmt 1 view .LVU1072
	mov	r0, r4
	bl	HAL_QSPI_AbortCpltCallback
.LVL240:
	b	.L177
.LVL241:
.L179:
	.loc 1 2395 9 view .LVU1073
	.loc 1 2395 22 is_stmt 0 view .LVU1074
	movs	r3, #1
	strb	r3, [r0, #57]
	b	.L177
.L181:
.LCFI47:
	.cfi_def_cfa_offset 0
	.cfi_restore 4
	.cfi_restore 14
	.loc 1 2399 3 is_stmt 1 view .LVU1075
	.loc 1 2400 1 is_stmt 0 view .LVU1076
	movs	r0, #0
.LVL242:
	.loc 1 2400 1 view .LVU1077
	bx	lr
.L186:
	.align	2
.L185:
	.word	QSPI_DMAAbortCplt
	.cfi_endproc
.LFE103:
	.size	HAL_QSPI_Abort_IT, .-HAL_QSPI_Abort_IT
	.section	.text.HAL_QSPI_IRQHandler,"ax",%progbits
	.align	1
	.global	HAL_QSPI_IRQHandler
	.syntax unified
	.thumb
	.thumb_func
	.type	HAL_QSPI_IRQHandler, %function
HAL_QSPI_IRQHandler:
.LVL243:
.LFB78:
	.loc 1 496 1 is_stmt 1 view -0
	.cfi_startproc
	@ args = 0, pretend = 0, frame = 0
	@ frame_needed = 0, uses_anonymous_args = 0
	.loc 1 496 1 is_stmt 0 view .LVU1079
	push	{r4, lr}
.LCFI48:
	.cfi_def_cfa_offset 8
	.cfi_offset 4, -8
	.cfi_offset 14, -4
	mov	r4, r0
	.loc 1 497 3 is_stmt 1 view .LVU1080
	.loc 1 498 3 view .LVU1081
	.loc 1 498 19 is_stmt 0 view .LVU1082
	ldr	r3, [r0]
	.loc 1 498 12 view .LVU1083
	ldr	r2, [r3, #8]
.LVL244:
	.loc 1 499 3 is_stmt 1 view .LVU1084
	.loc 1 499 12 is_stmt 0 view .LVU1085
	ldr	r1, [r3]
.LVL245:
	.loc 1 502 3 is_stmt 1 view .LVU1086
	.loc 1 502 5 is_stmt 0 view .LVU1087
	tst	r2, #4
	beq	.L188
	.loc 1 502 36 discriminator 1 view .LVU1088
	tst	r1, #262144
	beq	.L188
	.loc 1 504 5 is_stmt 1 view .LVU1089
.LVL246:
	.loc 1 506 5 view .LVU1090
	.loc 1 506 13 is_stmt 0 view .LVU1091
	ldrb	r2, [r0, #57]	@ zero_extendqisi2
.LVL247:
	.loc 1 506 13 view .LVU1092
	uxtb	r2, r2
	.loc 1 506 7 view .LVU1093
	cmp	r2, #18
	beq	.L189
	.loc 1 527 10 is_stmt 1 view .LVU1094
	.loc 1 527 18 is_stmt 0 view .LVU1095
	ldrb	r2, [r0, #57]	@ zero_extendqisi2
	uxtb	r2, r2
	.loc 1 527 12 view .LVU1096
	cmp	r2, #34
	beq	.L194
.LVL248:
.L192:
	.loc 1 551 5 is_stmt 1 view .LVU1097
	.loc 1 557 5 view .LVU1098
	mov	r0, r4
.LVL249:
	.loc 1 557 5 is_stmt 0 view .LVU1099
	bl	HAL_QSPI_FifoThresholdCallback
.LVL250:
.L187:
	.loc 1 782 1 view .LVU1100
	pop	{r4, pc}
.LVL251:
.L213:
	.loc 1 514 11 is_stmt 1 view .LVU1101
	.loc 1 514 47 is_stmt 0 view .LVU1102
	ldr	r2, [r4, #28]
	.loc 1 514 41 view .LVU1103
	ldrb	r2, [r2]	@ zero_extendqisi2
	.loc 1 514 39 view .LVU1104
	strb	r2, [r3, #32]
	.loc 1 515 11 is_stmt 1 view .LVU1105
	.loc 1 515 16 is_stmt 0 view .LVU1106
	ldr	r2, [r4, #28]
	.loc 1 515 28 view .LVU1107
	adds	r2, r2, #1
	str	r2, [r4, #28]
	.loc 1 516 11 is_stmt 1 view .LVU1108
	.loc 1 516 16 is_stmt 0 view .LVU1109
	ldr	r2, [r4, #36]
	.loc 1 516 29 view .LVU1110
	subs	r2, r2, #1
	str	r2, [r4, #36]
.L189:
	.loc 1 509 54 is_stmt 1 view .LVU1111
	.loc 1 509 13 is_stmt 0 view .LVU1112
	ldr	r2, [r4]
	ldr	r1, [r2, #8]
	.loc 1 509 54 view .LVU1113
	tst	r1, #4
	beq	.L192
	.loc 1 511 9 is_stmt 1 view .LVU1114
	.loc 1 511 18 is_stmt 0 view .LVU1115
	ldr	r1, [r4, #36]
	.loc 1 511 12 view .LVU1116
	cmp	r1, #0
	bne	.L213
	.loc 1 522 11 is_stmt 1 view .LVU1117
	ldr	r3, [r2]
.LVL252:
	.loc 1 522 11 is_stmt 0 view .LVU1118
	bic	r3, r3, #262144
	str	r3, [r2]
	.loc 1 523 11 is_stmt 1 view .LVU1119
	b	.L192
.LVL253:
.L195:
	.loc 1 543 11 view .LVU1120
	ldr	r3, [r2]
.LVL254:
	.loc 1 543 11 is_stmt 0 view .LVU1121
	bic	r3, r3, #262144
	str	r3, [r2]
	.loc 1 544 11 is_stmt 1 view .LVU1122
	b	.L192
.LVL255:
.L194:
	.loc 1 530 54 view .LVU1123
	.loc 1 530 13 is_stmt 0 view .LVU1124
	ldr	r2, [r4]
	ldr	r1, [r2, #8]
	.loc 1 530 54 view .LVU1125
	tst	r1, #4
	beq	.L192
	.loc 1 532 9 is_stmt 1 view .LVU1126
	.loc 1 532 18 is_stmt 0 view .LVU1127
	ldr	r1, [r4, #48]
	.loc 1 532 12 view .LVU1128
	cmp	r1, #0
	beq	.L195
	.loc 1 535 11 is_stmt 1 view .LVU1129
	.loc 1 535 17 is_stmt 0 view .LVU1130
	ldr	r2, [r4, #40]
	.loc 1 535 32 view .LVU1131
	ldrb	r1, [r3, #32]	@ zero_extendqisi2
	.loc 1 535 30 view .LVU1132
	strb	r1, [r2]
	.loc 1 536 11 is_stmt 1 view .LVU1133
	.loc 1 536 16 is_stmt 0 view .LVU1134
	ldr	r2, [r4, #40]
	.loc 1 536 28 view .LVU1135
	adds	r2, r2, #1
	str	r2, [r4, #40]
	.loc 1 537 11 is_stmt 1 view .LVU1136
	.loc 1 537 16 is_stmt 0 view .LVU1137
	ldr	r2, [r4, #48]
	.loc 1 537 29 view .LVU1138
	subs	r2, r2, #1
	str	r2, [r4, #48]
	b	.L194
.LVL256:
.L188:
	.loc 1 562 8 is_stmt 1 view .LVU1139
	.loc 1 562 10 is_stmt 0 view .LVU1140
	tst	r2, #2
	beq	.L198
	.loc 1 562 41 discriminator 1 view .LVU1141
	tst	r1, #131072
	beq	.L198
	.loc 1 565 5 is_stmt 1 view .LVU1142
	movs	r2, #2
.LVL257:
	.loc 1 565 5 is_stmt 0 view .LVU1143
	str	r2, [r3, #12]
	.loc 1 568 5 is_stmt 1 view .LVU1144
	ldr	r2, [r4]
	ldr	r3, [r2]
	bic	r3, r3, #458752
	str	r3, [r2]
	.loc 1 571 5 view .LVU1145
	.loc 1 571 13 is_stmt 0 view .LVU1146
	ldrb	r3, [r4, #57]	@ zero_extendqisi2
	uxtb	r3, r3
	.loc 1 571 7 view .LVU1147
	cmp	r3, #18
	beq	.L214
	.loc 1 597 10 is_stmt 1 view .LVU1148
	.loc 1 597 18 is_stmt 0 view .LVU1149
	ldrb	r3, [r4, #57]	@ zero_extendqisi2
	uxtb	r3, r3
	.loc 1 597 12 view .LVU1150
	cmp	r3, #34
	beq	.L215
	.loc 1 642 10 is_stmt 1 view .LVU1151
	.loc 1 642 18 is_stmt 0 view .LVU1152
	ldrb	r3, [r4, #57]	@ zero_extendqisi2
	uxtb	r3, r3
	.loc 1 642 12 view .LVU1153
	cmp	r3, #2
	beq	.L216
	.loc 1 654 10 is_stmt 1 view .LVU1154
	.loc 1 654 18 is_stmt 0 view .LVU1155
	ldrb	r3, [r4, #57]	@ zero_extendqisi2
	uxtb	r3, r3
	.loc 1 654 12 view .LVU1156
	cmp	r3, #8
	bne	.L187
	.loc 1 657 7 is_stmt 1 view .LVU1157
	ldr	r2, [r4]
	ldr	r3, [r2, #20]
	bic	r3, r3, #201326592
	str	r3, [r2, #20]
	.loc 1 660 7 view .LVU1158
	.loc 1 660 20 is_stmt 0 view .LVU1159
	movs	r3, #1
	strb	r3, [r4, #57]
	.loc 1 662 7 is_stmt 1 view .LVU1160
	.loc 1 662 16 is_stmt 0 view .LVU1161
	ldr	r3, [r4, #60]
	.loc 1 662 10 view .LVU1162
	cmp	r3, #0
	bne	.L206
	.loc 1 670 9 is_stmt 1 view .LVU1163
	mov	r0, r4
.LVL258:
	.loc 1 670 9 is_stmt 0 view .LVU1164
	bl	HAL_QSPI_AbortCpltCallback
.LVL259:
	.loc 1 670 9 view .LVU1165
	b	.L187
.LVL260:
.L214:
	.loc 1 573 7 is_stmt 1 view .LVU1166
	.loc 1 573 17 is_stmt 0 view .LVU1167
	ldr	r3, [r4]
	.loc 1 573 27 view .LVU1168
	ldr	r2, [r3]
	.loc 1 573 10 view .LVU1169
	tst	r2, #4
	beq	.L200
	.loc 1 576 9 is_stmt 1 view .LVU1170
	ldr	r2, [r3]
	bic	r2, r2, #4
	str	r2, [r3]
	.loc 1 579 9 view .LVU1171
	ldr	r3, [r4, #52]
	ldr	r2, [r3]
	ldr	r3, [r2]
	bic	r3, r3, #1
	str	r3, [r2]
.L200:
	.loc 1 584 7 view .LVU1172
	.loc 1 584 13 is_stmt 0 view .LVU1173
	mov	r0, r4
.LVL261:
	.loc 1 584 13 view .LVU1174
	bl	HAL_QSPI_Abort_IT
.LVL262:
	.loc 1 588 7 is_stmt 1 view .LVU1175
	.loc 1 588 20 is_stmt 0 view .LVU1176
	movs	r3, #1
	strb	r3, [r4, #57]
	.loc 1 594 7 is_stmt 1 view .LVU1177
	mov	r0, r4
	bl	HAL_QSPI_TxCpltCallback
.LVL263:
	b	.L187
.LVL264:
.L215:
	.loc 1 599 7 view .LVU1178
	.loc 1 599 17 is_stmt 0 view .LVU1179
	ldr	r1, [r4]
.LVL265:
	.loc 1 599 27 view .LVU1180
	ldr	r3, [r1]
	.loc 1 599 10 view .LVU1181
	tst	r3, #4
	beq	.L202
	.loc 1 602 9 is_stmt 1 view .LVU1182
	ldr	r3, [r1]
	bic	r3, r3, #4
	str	r3, [r1]
	.loc 1 605 9 view .LVU1183
	ldr	r3, [r4, #52]
	ldr	r2, [r3]
	ldr	r3, [r2]
	bic	r3, r3, #1
	str	r3, [r2]
.L203:
	.loc 1 629 7 view .LVU1184
	.loc 1 629 13 is_stmt 0 view .LVU1185
	mov	r0, r4
.LVL266:
	.loc 1 629 13 view .LVU1186
	bl	HAL_QSPI_Abort_IT
.LVL267:
	.loc 1 633 7 is_stmt 1 view .LVU1187
	.loc 1 633 20 is_stmt 0 view .LVU1188
	movs	r3, #1
	strb	r3, [r4, #57]
	.loc 1 639 7 is_stmt 1 view .LVU1189
	mov	r0, r4
	bl	HAL_QSPI_RxCpltCallback
.LVL268:
	b	.L187
.LVL269:
.L202:
	.loc 1 610 64 view .LVU1190
	.loc 1 610 15 is_stmt 0 view .LVU1191
	ldr	r3, [r4]
	ldr	r3, [r3, #8]
	.loc 1 610 64 view .LVU1192
	tst	r3, #7936
	beq	.L203
	.loc 1 612 11 is_stmt 1 view .LVU1193
	.loc 1 612 20 is_stmt 0 view .LVU1194
	ldr	r3, [r4, #48]
	.loc 1 612 14 view .LVU1195
	cmp	r3, #0
	beq	.L203
	.loc 1 615 13 is_stmt 1 view .LVU1196
	.loc 1 615 19 is_stmt 0 view .LVU1197
	ldr	r3, [r4, #40]
	.loc 1 615 34 view .LVU1198
	ldrb	r2, [r1, #32]	@ zero_extendqisi2
	.loc 1 615 32 view .LVU1199
	strb	r2, [r3]
	.loc 1 616 13 is_stmt 1 view .LVU1200
	.loc 1 616 18 is_stmt 0 view .LVU1201
	ldr	r3, [r4, #40]
	.loc 1 616 30 view .LVU1202
	adds	r3, r3, #1
	str	r3, [r4, #40]
	.loc 1 617 13 is_stmt 1 view .LVU1203
	.loc 1 617 18 is_stmt 0 view .LVU1204
	ldr	r3, [r4, #48]
	.loc 1 617 31 view .LVU1205
	subs	r3, r3, #1
	str	r3, [r4, #48]
	b	.L202
.LVL270:
.L216:
	.loc 1 645 7 is_stmt 1 view .LVU1206
	.loc 1 645 20 is_stmt 0 view .LVU1207
	movs	r3, #1
	strb	r3, [r4, #57]
	.loc 1 651 7 is_stmt 1 view .LVU1208
	mov	r0, r4
.LVL271:
	.loc 1 651 7 is_stmt 0 view .LVU1209
	bl	HAL_QSPI_CmdCpltCallback
.LVL272:
	.loc 1 651 7 view .LVU1210
	b	.L187
.LVL273:
.L206:
	.loc 1 681 9 is_stmt 1 view .LVU1211
	mov	r0, r4
.LVL274:
	.loc 1 681 9 is_stmt 0 view .LVU1212
	bl	HAL_QSPI_ErrorCallback
.LVL275:
	.loc 1 681 9 view .LVU1213
	b	.L187
.LVL276:
.L198:
	.loc 1 692 8 is_stmt 1 view .LVU1214
	.loc 1 692 10 is_stmt 0 view .LVU1215
	tst	r2, #8
	beq	.L207
	.loc 1 692 41 discriminator 1 view .LVU1216
	tst	r1, #524288
	beq	.L207
	.loc 1 695 5 is_stmt 1 view .LVU1217
	movs	r2, #8
.LVL277:
	.loc 1 695 5 is_stmt 0 view .LVU1218
	str	r2, [r3, #12]
	.loc 1 698 5 is_stmt 1 view .LVU1219
	.loc 1 698 8 is_stmt 0 view .LVU1220
	ldr	r3, [r4]
	ldr	r2, [r3]
	.loc 1 698 7 view .LVU1221
	tst	r2, #4194304
	beq	.L208
	.loc 1 701 7 is_stmt 1 view .LVU1222
	ldr	r2, [r3]
	bic	r2, r2, #589824
	str	r2, [r3]
	.loc 1 704 7 view .LVU1223
	.loc 1 704 20 is_stmt 0 view .LVU1224
	movs	r3, #1
	strb	r3, [r4, #57]
.L208:
	.loc 1 711 5 is_stmt 1 view .LVU1225
	mov	r0, r4
.LVL278:
	.loc 1 711 5 is_stmt 0 view .LVU1226
	bl	HAL_QSPI_StatusMatchCallback
.LVL279:
	.loc 1 711 5 view .LVU1227
	b	.L187
.LVL280:
.L207:
	.loc 1 716 8 is_stmt 1 view .LVU1228
	.loc 1 716 10 is_stmt 0 view .LVU1229
	tst	r2, #1
	beq	.L209
	.loc 1 716 41 discriminator 1 view .LVU1230
	tst	r1, #65536
	beq	.L209
	.loc 1 719 5 is_stmt 1 view .LVU1231
	movs	r2, #1
.LVL281:
	.loc 1 719 5 is_stmt 0 view .LVU1232
	str	r2, [r3, #12]
	.loc 1 722 5 is_stmt 1 view .LVU1233
	ldr	r2, [r4]
	ldr	r3, [r2]
	bic	r3, r3, #983040
	str	r3, [r2]
	.loc 1 725 5 view .LVU1234
	.loc 1 725 10 is_stmt 0 view .LVU1235
	ldr	r3, [r4, #60]
	.loc 1 725 22 view .LVU1236
	orr	r3, r3, #2
	str	r3, [r4, #60]
	.loc 1 727 5 is_stmt 1 view .LVU1237
	.loc 1 727 15 is_stmt 0 view .LVU1238
	ldr	r3, [r4]
	.loc 1 727 25 view .LVU1239
	ldr	r2, [r3]
	.loc 1 727 8 view .LVU1240
	tst	r2, #4
	beq	.L210
	.loc 1 730 7 is_stmt 1 view .LVU1241
	ldr	r2, [r3]
	bic	r2, r2, #4
	str	r2, [r3]
	.loc 1 733 7 view .LVU1242
	.loc 1 733 12 is_stmt 0 view .LVU1243
	ldr	r3, [r4, #52]
	.loc 1 733 38 view .LVU1244
	ldr	r2, .L217
	str	r2, [r3, #56]
	.loc 1 734 7 is_stmt 1 view .LVU1245
	.loc 1 734 11 is_stmt 0 view .LVU1246
	ldr	r0, [r4, #52]
.LVL282:
	.loc 1 734 11 view .LVU1247
	bl	HAL_DMA_Abort_IT
.LVL283:
	.loc 1 734 10 view .LVU1248
	cmp	r0, #0
	beq	.L187
	.loc 1 737 9 is_stmt 1 view .LVU1249
	.loc 1 737 14 is_stmt 0 view .LVU1250
	ldr	r3, [r4, #60]
	.loc 1 737 26 view .LVU1251
	orr	r3, r3, #4
	str	r3, [r4, #60]
	.loc 1 740 9 is_stmt 1 view .LVU1252
	.loc 1 740 22 is_stmt 0 view .LVU1253
	movs	r3, #1
	strb	r3, [r4, #57]
	.loc 1 746 9 is_stmt 1 view .LVU1254
	mov	r0, r4
	bl	HAL_QSPI_ErrorCallback
.LVL284:
	b	.L187
.LVL285:
.L210:
	.loc 1 753 7 view .LVU1255
	.loc 1 753 20 is_stmt 0 view .LVU1256
	movs	r3, #1
	strb	r3, [r4, #57]
	.loc 1 759 7 is_stmt 1 view .LVU1257
	mov	r0, r4
.LVL286:
	.loc 1 759 7 is_stmt 0 view .LVU1258
	bl	HAL_QSPI_ErrorCallback
.LVL287:
	.loc 1 759 7 view .LVU1259
	b	.L187
.LVL288:
.L209:
	.loc 1 765 8 is_stmt 1 view .LVU1260
	.loc 1 765 10 is_stmt 0 view .LVU1261
	tst	r2, #16
	beq	.L187
	.loc 1 765 41 discriminator 1 view .LVU1262
	tst	r1, #1048576
	beq	.L187
	.loc 1 768 5 is_stmt 1 view .LVU1263
	movs	r2, #16
.LVL289:
	.loc 1 768 5 is_stmt 0 view .LVU1264
	str	r2, [r3, #12]
	.loc 1 774 5 is_stmt 1 view .LVU1265
	mov	r0, r4
.LVL290:
	.loc 1 774 5 is_stmt 0 view .LVU1266
	bl	HAL_QSPI_TimeOutCallback
.LVL291:
	.loc 1 781 3 is_stmt 1 view .LVU1267
	.loc 1 782 1 is_stmt 0 view .LVU1268
	b	.L187
.L218:
	.align	2
.L217:
	.word	QSPI_DMAAbortCplt
	.cfi_endproc
.LFE78:
	.size	HAL_QSPI_IRQHandler, .-HAL_QSPI_IRQHandler
	.section	.text.QSPI_DMAError,"ax",%progbits
	.align	1
	.syntax unified
	.thumb
	.thumb_func
	.type	QSPI_DMAError, %function
QSPI_DMAError:
.LVL292:
.LFB111:
	.loc 1 2571 1 is_stmt 1 view -0
	.cfi_startproc
	@ args = 0, pretend = 0, frame = 0
	@ frame_needed = 0, uses_anonymous_args = 0
	.loc 1 2571 1 is_stmt 0 view .LVU1270
	push	{r3, lr}
.LCFI49:
	.cfi_def_cfa_offset 8
	.cfi_offset 3, -8
	.cfi_offset 14, -4
	.loc 1 2572 3 is_stmt 1 view .LVU1271
	.loc 1 2572 23 is_stmt 0 view .LVU1272
	ldr	r0, [r0, #40]
.LVL293:
	.loc 1 2574 3 is_stmt 1 view .LVU1273
	.loc 1 2574 22 is_stmt 0 view .LVU1274
	movs	r3, #0
	str	r3, [r0, #48]
	.loc 1 2575 3 is_stmt 1 view .LVU1275
	.loc 1 2575 22 is_stmt 0 view .LVU1276
	str	r3, [r0, #36]
	.loc 1 2576 3 is_stmt 1 view .LVU1277
	.loc 1 2576 8 is_stmt 0 view .LVU1278
	ldr	r3, [r0, #60]
	.loc 1 2576 22 view .LVU1279
	orr	r3, r3, #4
	str	r3, [r0, #60]
	.loc 1 2579 3 is_stmt 1 view .LVU1280
	ldr	r2, [r0]
	ldr	r3, [r2]
	bic	r3, r3, #4
	str	r3, [r2]
	.loc 1 2582 3 view .LVU1281
	.loc 1 2582 9 is_stmt 0 view .LVU1282
	bl	HAL_QSPI_Abort_IT
.LVL294:
	.loc 1 2584 1 view .LVU1283
	pop	{r3, pc}
	.cfi_endproc
.LFE111:
	.size	QSPI_DMAError, .-QSPI_DMAError
	.section	.text.HAL_QSPI_SetTimeout,"ax",%progbits
	.align	1
	.global	HAL_QSPI_SetTimeout
	.syntax unified
	.thumb
	.thumb_func
	.type	HAL_QSPI_SetTimeout, %function
HAL_QSPI_SetTimeout:
.LVL295:
.LFB104:
	.loc 1 2408 1 is_stmt 1 view -0
	.cfi_startproc
	@ args = 0, pretend = 0, frame = 0
	@ frame_needed = 0, uses_anonymous_args = 0
	@ link register save eliminated.
	.loc 1 2409 3 view .LVU1285
	.loc 1 2409 18 is_stmt 0 view .LVU1286
	str	r1, [r0, #64]
	.loc 1 2410 1 view .LVU1287
	bx	lr
	.cfi_endproc
.LFE104:
	.size	HAL_QSPI_SetTimeout, .-HAL_QSPI_SetTimeout
	.section	.text.HAL_QSPI_Init,"ax",%progbits
	.align	1
	.global	HAL_QSPI_Init
	.syntax unified
	.thumb
	.thumb_func
	.type	HAL_QSPI_Init, %function
HAL_QSPI_Init:
.LVL296:
.LFB74:
	.loc 1 292 1 is_stmt 1 view -0
	.cfi_startproc
	@ args = 0, pretend = 0, frame = 0
	@ frame_needed = 0, uses_anonymous_args = 0
	.loc 1 292 1 is_stmt 0 view .LVU1289
	push	{r4, r5, r6, lr}
.LCFI50:
	.cfi_def_cfa_offset 16
	.cfi_offset 4, -16
	.cfi_offset 5, -12
	.cfi_offset 6, -8
	.cfi_offset 14, -4
	sub	sp, sp, #8
.LCFI51:
	.cfi_def_cfa_offset 24
	mov	r4, r0
	.loc 1 293 3 is_stmt 1 view .LVU1290
	.loc 1 294 3 view .LVU1291
	.loc 1 294 24 is_stmt 0 view .LVU1292
	bl	HAL_GetTick
.LVL297:
	.loc 1 297 3 is_stmt 1 view .LVU1293
	.loc 1 297 5 is_stmt 0 view .LVU1294
	cmp	r4, #0
	beq	.L226
	mov	r6, r0
	.loc 1 303 3 is_stmt 1 view .LVU1295
	.loc 1 304 3 view .LVU1296
	.loc 1 305 3 view .LVU1297
	.loc 1 306 3 view .LVU1298
	.loc 1 307 3 view .LVU1299
	.loc 1 308 3 view .LVU1300
	.loc 1 309 3 view .LVU1301
	.loc 1 319 3 view .LVU1302
	.loc 1 319 11 is_stmt 0 view .LVU1303
	ldrb	r3, [r4, #57]	@ zero_extendqisi2
	.loc 1 319 5 view .LVU1304
	cmp	r3, #0
	beq	.L228
.LVL298:
.L224:
	.loc 1 354 3 is_stmt 1 view .LVU1305
	ldr	r5, [r4]
	ldr	r2, [r5]
	bic	r2, r2, #3840
	ldr	r1, [r4, #8]
	subs	r1, r1, #1
	orr	r2, r2, r1, lsl #8
	str	r2, [r5]
	.loc 1 358 3 view .LVU1306
	.loc 1 358 12 is_stmt 0 view .LVU1307
	ldr	r3, [r4, #64]
	str	r3, [sp]
	mov	r3, r6
	movs	r2, #0
	movs	r1, #32
	mov	r0, r4
	bl	QSPI_WaitFlagStateUntilTimeout
.LVL299:
	.loc 1 360 3 is_stmt 1 view .LVU1308
	.loc 1 360 5 is_stmt 0 view .LVU1309
	cbnz	r0, .L225
	.loc 1 368 5 is_stmt 1 view .LVU1310
	ldr	r1, [r4]
	ldr	r3, [r1]
	bic	r3, r3, #-16777216
	bic	r3, r3, #16
	ldr	r5, [r4, #4]
	ldr	r2, [r4, #12]
	orr	r2, r2, r5, lsl #24
	orrs	r3, r3, r2
	str	r3, [r1]
	.loc 1 374 5 view .LVU1311
	ldr	r1, [r4]
	ldr	r2, [r1, #4]
	ldr	r3, .L229
	ands	r3, r3, r2
	ldr	r5, [r4, #16]
	ldr	r2, [r4, #20]
	orr	r2, r2, r5, lsl #16
	ldr	r5, [r4, #24]
	orrs	r2, r2, r5
	orrs	r3, r3, r2
	str	r3, [r1, #4]
	.loc 1 379 5 view .LVU1312
	ldr	r2, [r4]
	ldr	r3, [r2]
	orr	r3, r3, #1
	str	r3, [r2]
	.loc 1 382 5 view .LVU1313
	.loc 1 382 22 is_stmt 0 view .LVU1314
	movs	r3, #0
	str	r3, [r4, #60]
	.loc 1 385 5 is_stmt 1 view .LVU1315
	.loc 1 385 18 is_stmt 0 view .LVU1316
	movs	r3, #1
	strb	r3, [r4, #57]
.L225:
	.loc 1 389 3 is_stmt 1 view .LVU1317
	.loc 1 389 3 view .LVU1318
	movs	r3, #0
	strb	r3, [r4, #56]
	.loc 1 389 3 view .LVU1319
	.loc 1 392 3 view .LVU1320
.LVL300:
.L223:
	.loc 1 393 1 is_stmt 0 view .LVU1321
	add	sp, sp, #8
.LCFI52:
	.cfi_remember_state
	.cfi_def_cfa_offset 16
	@ sp needed
	pop	{r4, r5, r6, pc}
.LVL301:
.L228:
.LCFI53:
	.cfi_restore_state
	.loc 1 322 5 is_stmt 1 view .LVU1322
	.loc 1 322 17 is_stmt 0 view .LVU1323
	strb	r3, [r4, #56]
	.loc 1 346 5 is_stmt 1 view .LVU1324
	mov	r0, r4
.LVL302:
	.loc 1 346 5 is_stmt 0 view .LVU1325
	bl	HAL_QSPI_MspInit
.LVL303:
	.loc 1 350 5 is_stmt 1 view .LVU1326
	movw	r1, #5000
	mov	r0, r4
	bl	HAL_QSPI_SetTimeout
.LVL304:
	b	.L224
.LVL305:
.L226:
	.loc 1 299 12 is_stmt 0 view .LVU1327
	movs	r0, #1
.LVL306:
	.loc 1 299 12 view .LVU1328
	b	.L223
.L230:
	.align	2
.L229:
	.word	-2033410
	.cfi_endproc
.LFE74:
	.size	HAL_QSPI_Init, .-HAL_QSPI_Init
	.section	.text.HAL_QSPI_SetFifoThreshold,"ax",%progbits
	.align	1
	.global	HAL_QSPI_SetFifoThreshold
	.syntax unified
	.thumb
	.thumb_func
	.type	HAL_QSPI_SetFifoThreshold, %function
HAL_QSPI_SetFifoThreshold:
.LVL307:
.LFB105:
	.loc 1 2418 1 is_stmt 1 view -0
	.cfi_startproc
	@ args = 0, pretend = 0, frame = 0
	@ frame_needed = 0, uses_anonymous_args = 0
	@ link register save eliminated.
	.loc 1 2418 1 is_stmt 0 view .LVU1330
	mov	r3, r0
	.loc 1 2419 3 is_stmt 1 view .LVU1331
.LVL308:
	.loc 1 2422 3 view .LVU1332
	.loc 1 2422 3 view .LVU1333
	ldrb	r2, [r0, #56]	@ zero_extendqisi2
	uxtb	r2, r2
	cmp	r2, #1
	beq	.L234
	.loc 1 2422 3 discriminator 2 view .LVU1334
	movs	r2, #1
	strb	r2, [r0, #56]
	.loc 1 2422 3 discriminator 2 view .LVU1335
	.loc 1 2424 3 discriminator 2 view .LVU1336
	.loc 1 2424 11 is_stmt 0 discriminator 2 view .LVU1337
	ldrb	r2, [r0, #57]	@ zero_extendqisi2
	uxtb	r2, r2
	.loc 1 2424 5 discriminator 2 view .LVU1338
	cmp	r2, #1
	beq	.L236
	.loc 1 2435 12 view .LVU1339
	movs	r0, #2
.LVL309:
.L233:
	.loc 1 2439 3 is_stmt 1 view .LVU1340
	.loc 1 2439 3 view .LVU1341
	movs	r2, #0
	strb	r2, [r3, #56]
	.loc 1 2439 3 view .LVU1342
	.loc 1 2442 3 view .LVU1343
	.loc 1 2442 10 is_stmt 0 view .LVU1344
	bx	lr
.LVL310:
.L236:
	.loc 1 2427 5 is_stmt 1 view .LVU1345
	.loc 1 2427 31 is_stmt 0 view .LVU1346
	str	r1, [r0, #8]
	.loc 1 2430 5 is_stmt 1 view .LVU1347
	ldr	r0, [r0]
.LVL311:
	.loc 1 2430 5 is_stmt 0 view .LVU1348
	ldr	r2, [r0]
	bic	r2, r2, #3840
	subs	r1, r1, #1
.LVL312:
	.loc 1 2430 5 view .LVU1349
	orr	r2, r2, r1, lsl #8
	str	r2, [r0]
.LVL313:
	.loc 1 2419 21 view .LVU1350
	movs	r0, #0
	b	.L233
.LVL314:
.L234:
	.loc 1 2422 3 view .LVU1351
	movs	r0, #2
.LVL315:
	.loc 1 2443 1 view .LVU1352
	bx	lr
	.cfi_endproc
.LFE105:
	.size	HAL_QSPI_SetFifoThreshold, .-HAL_QSPI_SetFifoThreshold
	.section	.text.HAL_QSPI_GetFifoThreshold,"ax",%progbits
	.align	1
	.global	HAL_QSPI_GetFifoThreshold
	.syntax unified
	.thumb
	.thumb_func
	.type	HAL_QSPI_GetFifoThreshold, %function
HAL_QSPI_GetFifoThreshold:
.LVL316:
.LFB106:
	.loc 1 2450 1 is_stmt 1 view -0
	.cfi_startproc
	@ args = 0, pretend = 0, frame = 0
	@ frame_needed = 0, uses_anonymous_args = 0
	@ link register save eliminated.
	.loc 1 2451 3 view .LVU1354
	.loc 1 2451 12 is_stmt 0 view .LVU1355
	ldr	r3, [r0]
	ldr	r0, [r3]
.LVL317:
	.loc 1 2451 61 view .LVU1356
	ubfx	r0, r0, #8, #4
	.loc 1 2452 1 view .LVU1357
	adds	r0, r0, #1
	bx	lr
	.cfi_endproc
.LFE106:
	.size	HAL_QSPI_GetFifoThreshold, .-HAL_QSPI_GetFifoThreshold
	.text
.Letext0:
	.file 2 "/home/emanuele/st/stm32cubeide_1.15.0/plugins/com.st.stm32cube.ide.mcu.externaltools.gnu-tools-for-stm32.12.3.rel1.linux64_1.0.200.202406132123/tools/arm-none-eabi/include/machine/_default_types.h"
	.file 3 "/home/emanuele/st/stm32cubeide_1.15.0/plugins/com.st.stm32cube.ide.mcu.externaltools.gnu-tools-for-stm32.12.3.rel1.linux64_1.0.200.202406132123/tools/arm-none-eabi/include/sys/_stdint.h"
	.file 4 "../Drivers/CMSIS/Device/ST/STM32L4xx/Include/stm32l475xx.h"
	.file 5 "../Drivers/CMSIS/Device/ST/STM32L4xx/Include/stm32l4xx.h"
	.file 6 "../Drivers/STM32L4xx_HAL_Driver/Inc/stm32l4xx_hal_def.h"
	.file 7 "../Drivers/STM32L4xx_HAL_Driver/Inc/stm32l4xx_hal_dma.h"
	.file 8 "../Drivers/STM32L4xx_HAL_Driver/Inc/stm32l4xx_hal_qspi.h"
	.file 9 "../Drivers/STM32L4xx_HAL_Driver/Inc/stm32l4xx_hal.h"