	.cpu cortex-m3
	.arch armv7-m
	.fpu softvfp
	.eabi_attribute 20, 1
	.eabi_attribute 21, 1
	.eabi_attribute 23, 3
	.eabi_attribute 24, 1
	.eabi_attribute 25, 1
	.eabi_attribute 26, 1
	.eabi_attribute 30, 1
	.eabi_attribute 34, 1
	.eabi_attribute 18, 4
	.file	"stm32l4xx_hal_dma.c"
	.text
.Ltext0:
	.cfi_sections	.debug_frame
	.file 1 "../Drivers/STM32L4xx_HAL_Driver/Src/stm32l4xx_hal_dma.c"
	.section	.text.DMA_SetConfig,"ax",%progbits
	.align	1
	.syntax unified
	.thumb
	.thumb_func
	.type	DMA_SetConfig, %function
DMA_SetConfig:
.LVL0:
.LFB86:
	.loc 1 1070 1 view -0
	.cfi_startproc
	@ args = 0, pretend = 0, frame = 0
	@ frame_needed = 0, uses_anonymous_args = 0
	@ link register save eliminated.
	.loc 1 1070 1 is_stmt 0 view .LVU1
	push	{r4}
.LCFI0:
	.cfi_def_cfa_offset 4
	.cfi_offset 4, -4
	.loc 1 1083 3 is_stmt 1 view .LVU2
	.loc 1 1083 54 is_stmt 0 view .LVU3
	ldr	r4, [r0, #68]
	.loc 1 1083 69 view .LVU4
	and	ip, r4, #28
	.loc 1 1083 46 view .LVU5
	movs	r4, #1
	lsl	r4, r4, ip
	.loc 1 1083 30 view .LVU6
	ldr	ip, [r0, #64]
	str	r4, [ip, #4]
	.loc 1 1086 3 is_stmt 1 view .LVU7
	.loc 1 1086 7 is_stmt 0 view .LVU8
	ldr	r4, [r0]
	.loc 1 1086 25 view .LVU9
	str	r3, [r4, #4]
	.loc 1 1089 3 is_stmt 1 view .LVU10
	.loc 1 1089 18 is_stmt 0 view .LVU11
	ldr	r3, [r0, #8]
.LVL1:
	.loc 1 1089 6 view .LVU12
	cmp	r3, #16
	beq	.L5
	.loc 1 1101 5 is_stmt 1 view .LVU13
	.loc 1 1101 9 is_stmt 0 view .LVU14
	ldr	r3, [r0]
	.loc 1 1101 26 view .LVU15
	str	r1, [r3, #8]
.LVL2:
	.loc 1 1104 5 is_stmt 1 view .LVU16
	.loc 1 1104 9 is_stmt 0 view .LVU17
	ldr	r3, [r0]
	.loc 1 1104 26 view .LVU18
	str	r2, [r3, #12]
.L1:
	.loc 1 1106 1 view .LVU19
	pop	{r4}
.LCFI1:
	.cfi_remember_state
	.cfi_restore 4
	.cfi_def_cfa_offset 0
	bx	lr
.LVL3:
.L5:
.LCFI2:
	.cfi_restore_state
	.loc 1 1092 5 is_stmt 1 view .LVU20
	.loc 1 1092 9 is_stmt 0 view .LVU21
	ldr	r3, [r0]
	.loc 1 1092 26 view .LVU22
	str	r2, [r3, #8]
.LVL4:
	.loc 1 1095 5 is_stmt 1 view .LVU23
	.loc 1 1095 9 is_stmt 0 view .LVU24
	ldr	r3, [r0]
	.loc 1 1095 26 view .LVU25
	str	r1, [r3, #12]
	b	.L1
	.cfi_endproc
.LFE86:
	.size	DMA_SetConfig, .-DMA_SetConfig
	.section	.text.HAL_DMA_Init,"ax",%progbits
	.align	1
	.global	HAL_DMA_Init
	.syntax unified
	.thumb
	.thumb_func
	.type	HAL_DMA_Init, %function
HAL_DMA_Init:
.LVL5:
.LFB74:
	.loc 1 155 1 is_stmt 1 view -0
	.cfi_startproc
	@ args = 0, pretend = 0, frame = 0
	@ frame_needed = 0, uses_anonymous_args = 0
	@ link register save eliminated.
	.loc 1 156 3 view .LVU27
	.loc 1 159 3 view .LVU28
	.loc 1 159 6 is_stmt 0 view .LVU29
	cmp	r0, #0
	beq	.L12
	.loc 1 155 1 view .LVU30
	push	{r4}
.LCFI3:
	.cfi_def_cfa_offset 4
	.cfi_offset 4, -4
	mov	r3, r0
	.loc 1 165 3 is_stmt 1 view .LVU31
	.loc 1 166 3 view .LVU32
	.loc 1 167 3 view .LVU33
	.loc 1 168 3 view .LVU34
	.loc 1 169 3 view .LVU35
	.loc 1 170 3 view .LVU36
	.loc 1 171 3 view .LVU37
	.loc 1 172 3 view .LVU38
	.loc 1 174 3 view .LVU39
	.loc 1 177 3 view .LVU40
	.loc 1 177 22 is_stmt 0 view .LVU41
	ldr	r0, [r0]
.LVL6:
	.loc 1 177 6 view .LVU42
	ldr	r2, .L18
	cmp	r0, r2
	bhi	.L8
	.loc 1 180 5 is_stmt 1 view .LVU43
	.loc 1 180 53 is_stmt 0 view .LVU44
	ldr	r2, .L18+4
	add	r2, r2, r0
	.loc 1 180 80 view .LVU45
	ldr	r1, .L18+8
	umull	r1, r2, r1, r2
	lsrs	r2, r2, #4
	.loc 1 180 135 view .LVU46
	lsls	r2, r2, #2
	.loc 1 180 24 view .LVU47
	str	r2, [r3, #68]
	.loc 1 181 5 is_stmt 1 view .LVU48
	.loc 1 181 26 is_stmt 0 view .LVU49
	ldr	r2, .L18+12
	str	r2, [r3, #64]
.L9:
	.loc 1 191 3 is_stmt 1 view .LVU50
	.loc 1 191 15 is_stmt 0 view .LVU51
	movs	r2, #2
	strb	r2, [r3, #37]
	.loc 1 194 3 is_stmt 1 view .LVU52
	.loc 1 194 7 is_stmt 0 view .LVU53
	ldr	r1, [r0]
.LVL7:
	.loc 1 197 3 is_stmt 1 view .LVU54
	.loc 1 197 7 is_stmt 0 view .LVU55
	bic	r1, r1, #32640
.LVL8:
	.loc 1 197 7 view .LVU56
	bic	r1, r1, #112
.LVL9:
	.loc 1 202 3 is_stmt 1 view .LVU57
	.loc 1 202 21 is_stmt 0 view .LVU58
	ldr	r2, [r3, #8]
	.loc 1 202 39 view .LVU59
	ldr	r4, [r3, #12]
	orrs	r2, r2, r4
	.loc 1 203 42 view .LVU60
	ldr	r4, [r3, #16]
	orrs	r2, r2, r4
	.loc 1 203 72 view .LVU61
	ldr	r4, [r3, #20]
	orrs	r2, r2, r4
	.loc 1 204 42 view .LVU62
	ldr	r4, [r3, #24]
	orrs	r2, r2, r4
	.loc 1 204 72 view .LVU63
	ldr	r4, [r3, #28]
	orrs	r2, r2, r4
	.loc 1 205 42 view .LVU64
	ldr	r4, [r3, #32]
	orrs	r2, r2, r4
	.loc 1 202 7 view .LVU65
	orrs	r2, r2, r1
.LVL10:
	.loc 1 208 3 is_stmt 1 view .LVU66
	.loc 1 208 23 is_stmt 0 view .LVU67
	str	r2, [r0]
	.loc 1 252 3 is_stmt 1 view .LVU68
	.loc 1 252 17 is_stmt 0 view .LVU69
	ldr	r2, [r3, #8]
.LVL11:
	.loc 1 252 6 view .LVU70
	cmp	r2, #16384
	beq	.L10
	.loc 1 255 5 is_stmt 1 view .LVU71
	.loc 1 255 21 is_stmt 0 view .LVU72
	ldr	r1, [r3, #64]
	.loc 1 255 8 view .LVU73
	ldr	r2, .L18+12
	cmp	r1, r2
	beq	.L17
	.loc 1 266 7 is_stmt 1 view .LVU74
	.loc 1 266 17 is_stmt 0 view .LVU75
	ldr	r2, .L18+12
	ldr	r1, [r2, #1192]
	.loc 1 266 52 view .LVU76
	ldr	r0, [r3, #68]
.LVL12:
	.loc 1 266 67 view .LVU77
	and	ip, r0, #28
	.loc 1 266 44 view .LVU78
	movs	r0, #15
	lsl	r0, r0, ip
	.loc 1 266 25 view .LVU79
	bic	r1, r1, r0
	str	r1, [r2, #1192]
	.loc 1 269 7 is_stmt 1 view .LVU80
	.loc 1 269 17 is_stmt 0 view .LVU81
	ldr	r1, [r2, #1192]
	.loc 1 269 49 view .LVU82
	ldr	r0, [r3, #4]
	.loc 1 269 81 view .LVU83
	ldr	r4, [r3, #68]
	and	ip, r4, #28
	.loc 1 269 58 view .LVU84
	lsl	r0, r0, ip
	.loc 1 269 25 view .LVU85
	orrs	r1, r1, r0
	str	r1, [r2, #1192]
.L10:
	.loc 1 278 3 is_stmt 1 view .LVU86
	.loc 1 278 19 is_stmt 0 view .LVU87
	movs	r0, #0
	str	r0, [r3, #60]
	.loc 1 281 3 is_stmt 1 view .LVU88
	.loc 1 281 15 is_stmt 0 view .LVU89
	movs	r2, #1
	strb	r2, [r3, #37]
	.loc 1 284 3 is_stmt 1 view .LVU90
	.loc 1 284 14 is_stmt 0 view .LVU91
	strb	r0, [r3, #36]
	.loc 1 286 3 is_stmt 1 view .LVU92
	.loc 1 287 1 is_stmt 0 view .LVU93
	pop	{r4}
.LCFI4:
	.cfi_remember_state
	.cfi_restore 4
	.cfi_def_cfa_offset 0
	bx	lr
.LVL13:
.L8:
.LCFI5:
	.cfi_restore_state
	.loc 1 186 5 is_stmt 1 view .LVU94
	.loc 1 186 53 is_stmt 0 view .LVU95
	ldr	r2, .L18+16
	add	r2, r2, r0
	.loc 1 186 80 view .LVU96
	ldr	r1, .L18+8
	umull	r1, r2, r1, r2
	lsrs	r2, r2, #4
	.loc 1 186 135 view .LVU97
	lsls	r2, r2, #2
	.loc 1 186 24 view .LVU98
	str	r2, [r3, #68]
	.loc 1 187 5 is_stmt 1 view .LVU99
	.loc 1 187 26 is_stmt 0 view .LVU100
	ldr	r2, .L18+20
	str	r2, [r3, #64]
	b	.L9
.LVL14:
.L17:
	.loc 1 258 7 is_stmt 1 view .LVU101
	.loc 1 258 17 is_stmt 0 view .LVU102
	ldr	r1, [r2, #168]
	.loc 1 258 52 view .LVU103
	ldr	r0, [r3, #68]
.LVL15:
	.loc 1 258 67 view .LVU104
	and	ip, r0, #28
	.loc 1 258 44 view .LVU105
	movs	r0, #15
	lsl	r0, r0, ip
	.loc 1 258 25 view .LVU106
	bic	r1, r1, r0
	str	r1, [r2, #168]
	.loc 1 261 7 is_stmt 1 view .LVU107
	.loc 1 261 17 is_stmt 0 view .LVU108
	ldr	r1, [r2, #168]
	.loc 1 261 49 view .LVU109
	ldr	r0, [r3, #4]
	.loc 1 261 81 view .LVU110
	ldr	r4, [r3, #68]
	and	ip, r4, #28
	.loc 1 261 58 view .LVU111
	lsl	r0, r0, ip
	.loc 1 261 25 view .LVU112
	orrs	r1, r1, r0
	str	r1, [r2, #168]
	b	.L10
.LVL16:
.L12:
.LCFI6:
	.cfi_def_cfa_offset 0
	.cfi_restore 4
	.loc 1 161 12 view .LVU113
	movs	r0, #1
.LVL17:
	.loc 1 287 1 view .LVU114
	bx	lr
.L19:
	.align	2
.L18:
	.word	1073873927
	.word	-1073872904
	.word	-858993459
	.word	1073872896
	.word	-1073873928
	.word	1073873920
	.cfi_endproc
.LFE74:
	.size	HAL_DMA_Init, .-HAL_DMA_Init
	.section	.text.HAL_DMA_DeInit,"ax",%progbits
	.align	1
	.global	HAL_DMA_DeInit
	.syntax unified
	.thumb
	.thumb_func
	.type	HAL_DMA_DeInit, %function
HAL_DMA_DeInit:
.LVL18:
.LFB75:
	.loc 1 296 1 is_stmt 1 view -0
	.cfi_startproc
	@ args = 0, pretend = 0, frame = 0
	@ frame_needed = 0, uses_anonymous_args = 0
	@ link register save eliminated.
	.loc 1 299 3 view .LVU116
	.loc 1 299 6 is_stmt 0 view .LVU117
	cmp	r0, #0
	beq	.L26
	.loc 1 296 1 view .LVU118
	push	{r4}
.LCFI7:
	.cfi_def_cfa_offset 4
	.cfi_offset 4, -4
	mov	r3, r0
	.loc 1 305 3 is_stmt 1 view .LVU119
	.loc 1 308 3 view .LVU120
	ldr	r1, [r0]
	ldr	r2, [r1]
	bic	r2, r2, #1
	str	r2, [r1]
	.loc 1 311 3 view .LVU121
	.loc 1 311 22 is_stmt 0 view .LVU122
	ldr	r1, [r0]
	.loc 1 311 6 view .LVU123
	ldr	r2, .L32
	cmp	r1, r2
	bhi	.L22
	.loc 1 314 5 is_stmt 1 view .LVU124
	.loc 1 314 53 is_stmt 0 view .LVU125
	ldr	r2, .L32+4
	add	r2, r2, r1
	.loc 1 314 80 view .LVU126
	ldr	r0, .L32+8
.LVL19:
	.loc 1 314 80 view .LVU127
	umull	r0, r2, r0, r2
	lsrs	r2, r2, #4
	.loc 1 314 135 view .LVU128
	lsls	r2, r2, #2
	.loc 1 314 24 view .LVU129
	str	r2, [r3, #68]
	.loc 1 315 5 is_stmt 1 view .LVU130
	.loc 1 315 26 is_stmt 0 view .LVU131
	ldr	r2, .L32+12
	str	r2, [r3, #64]
.L23:
	.loc 1 325 3 is_stmt 1 view .LVU132
	.loc 1 325 23 is_stmt 0 view .LVU133
	movs	r2, #0
	str	r2, [r1]
	.loc 1 328 3 is_stmt 1 view .LVU134
	.loc 1 328 54 is_stmt 0 view .LVU135
	ldr	r2, [r3, #68]
	.loc 1 328 69 view .LVU136
	and	r1, r2, #28
	.loc 1 328 7 view .LVU137
	ldr	r0, [r3, #64]
	.loc 1 328 46 view .LVU138
	movs	r2, #1
	lsls	r2, r2, r1
	.loc 1 328 30 view .LVU139
	str	r2, [r0, #4]
	.loc 1 333 3 is_stmt 1 view .LVU140
	.loc 1 333 19 is_stmt 0 view .LVU141
	ldr	r1, [r3, #64]
	.loc 1 333 6 view .LVU142
	ldr	r2, .L32+12
	cmp	r1, r2
	beq	.L31
	.loc 1 341 5 is_stmt 1 view .LVU143
	.loc 1 341 15 is_stmt 0 view .LVU144
	ldr	r4, .L32+12
	ldr	r2, [r4, #1192]
	.loc 1 341 50 view .LVU145
	ldr	r1, [r3, #68]
	.loc 1 341 65 view .LVU146
	and	r0, r1, #28
	.loc 1 341 42 view .LVU147
	movs	r1, #15
	lsls	r1, r1, r0
	.loc 1 341 23 view .LVU148
	bic	r2, r2, r1
	str	r2, [r4, #1192]
.L25:
	.loc 1 382 3 is_stmt 1 view .LVU149
	.loc 1 382 26 is_stmt 0 view .LVU150
	movs	r0, #0
	str	r0, [r3, #44]
	.loc 1 383 3 is_stmt 1 view .LVU151
	.loc 1 383 30 is_stmt 0 view .LVU152
	str	r0, [r3, #48]
	.loc 1 384 3 is_stmt 1 view .LVU153
	.loc 1 384 27 is_stmt 0 view .LVU154
	str	r0, [r3, #52]
	.loc 1 385 3 is_stmt 1 view .LVU155
	.loc 1 385 27 is_stmt 0 view .LVU156
	str	r0, [r3, #56]
	.loc 1 388 3 is_stmt 1 view .LVU157
	.loc 1 388 19 is_stmt 0 view .LVU158
	str	r0, [r3, #60]
	.loc 1 391 3 is_stmt 1 view .LVU159
	.loc 1 391 15 is_stmt 0 view .LVU160
	strb	r0, [r3, #37]
	.loc 1 394 3 is_stmt 1 view .LVU161
	.loc 1 394 3 view .LVU162
	strb	r0, [r3, #36]
	.loc 1 394 3 view .LVU163
	.loc 1 396 3 view .LVU164
	.loc 1 397 1 is_stmt 0 view .LVU165
	pop	{r4}
.LCFI8:
	.cfi_remember_state
	.cfi_restore 4
	.cfi_def_cfa_offset 0
	bx	lr
.LVL20:
.L22:
.LCFI9:
	.cfi_restore_state
	.loc 1 320 5 is_stmt 1 view .LVU166
	.loc 1 320 53 is_stmt 0 view .LVU167
	ldr	r2, .L32+16
	add	r2, r2, r1
	.loc 1 320 80 view .LVU168
	ldr	r0, .L32+8
.LVL21:
	.loc 1 320 80 view .LVU169
	umull	r0, r2, r0, r2
	lsrs	r2, r2, #4
	.loc 1 320 135 view .LVU170
	lsls	r2, r2, #2
	.loc 1 320 24 view .LVU171
	str	r2, [r3, #68]
	.loc 1 321 5 is_stmt 1 view .LVU172
	.loc 1 321 26 is_stmt 0 view .LVU173
	ldr	r2, .L32+20
	str	r2, [r3, #64]
	b	.L23
.L31:
	.loc 1 336 5 is_stmt 1 view .LVU174
	.loc 1 336 15 is_stmt 0 view .LVU175
	mov	r4, r2
	ldr	r2, [r2, #168]
	.loc 1 336 50 view .LVU176
	ldr	r1, [r3, #68]
	.loc 1 336 65 view .LVU177
	and	r0, r1, #28
	.loc 1 336 42 view .LVU178
	movs	r1, #15
	lsls	r1, r1, r0
	.loc 1 336 23 view .LVU179
	bic	r2, r2, r1
	str	r2, [r4, #168]
	b	.L25
.LVL22:
.L26:
.LCFI10:
	.cfi_def_cfa_offset 0
	.cfi_restore 4
	.loc 1 301 12 view .LVU180
	movs	r0, #1
.LVL23:
	.loc 1 397 1 view .LVU181
	bx	lr
.L33:
	.align	2
.L32:
	.word	1073873927
	.word	-1073872904
	.word	-858993459
	.word	1073872896
	.word	-1073873928
	.word	1073873920
	.cfi_endproc
.LFE75:
	.size	HAL_DMA_DeInit, .-HAL_DMA_DeInit
	.section	.text.HAL_DMA_Start,"ax",%progbits
	.align	1
	.global	HAL_DMA_Start
	.syntax unified
	.thumb
	.thumb_func
	.type	HAL_DMA_Start, %function
HAL_DMA_Start:
.LVL24:
.LFB76:
	.loc 1 432 1 is_stmt 1 view -0
	.cfi_startproc
	@ args = 0, pretend = 0, frame = 0
	@ frame_needed = 0, uses_anonymous_args = 0
	.loc 1 432 1 is_stmt 0 view .LVU183
	push	{r4, r5, r6, lr}
.LCFI11:
	.cfi_def_cfa_offset 16
	.cfi_offset 4, -16
	.cfi_offset 5, -12
	.cfi_offset 6, -8
	.cfi_offset 14, -4
	mov	r4, r0
	.loc 1 433 3 is_stmt 1 view .LVU184
.LVL25:
	.loc 1 436 3 view .LVU185
	.loc 1 439 3 view .LVU186
	.loc 1 439 3 view .LVU187
	ldrb	r0, [r0, #36]	@ zero_extendqisi2
.LVL26:
	.loc 1 439 3 is_stmt 0 view .LVU188
	cmp	r0, #1
	beq	.L37
	.loc 1 439 3 is_stmt 1 discriminator 2 view .LVU189
	movs	r0, #1
	strb	r0, [r4, #36]
	.loc 1 439 3 discriminator 2 view .LVU190
	.loc 1 441 3 discriminator 2 view .LVU191
	.loc 1 441 34 is_stmt 0 discriminator 2 view .LVU192
	ldrb	r0, [r4, #37]	@ zero_extendqisi2
	uxtb	r0, r0
	.loc 1 441 6 discriminator 2 view .LVU193
	cmp	r0, #1
	beq	.L39
	.loc 1 459 5 is_stmt 1 view .LVU194
	.loc 1 459 5 view .LVU195
	movs	r3, #0
.LVL27:
	.loc 1 459 5 is_stmt 0 view .LVU196
	strb	r3, [r4, #36]
	.loc 1 459 5 is_stmt 1 view .LVU197
	.loc 1 460 5 view .LVU198
.LVL28:
	.loc 1 460 12 is_stmt 0 view .LVU199
	movs	r0, #2
.LVL29:
.L35:
	.loc 1 463 1 view .LVU200
	pop	{r4, r5, r6, pc}
.LVL30:
.L39:
	.loc 1 444 5 is_stmt 1 view .LVU201
	.loc 1 444 17 is_stmt 0 view .LVU202
	movs	r0, #2
	strb	r0, [r4, #37]
	.loc 1 445 5 is_stmt 1 view .LVU203
	.loc 1 445 21 is_stmt 0 view .LVU204
	movs	r5, #0
	str	r5, [r4, #60]
	.loc 1 448 5 is_stmt 1 view .LVU205
	ldr	r6, [r4]
	ldr	r0, [r6]
	bic	r0, r0, #1
	str	r0, [r6]
	.loc 1 451 5 view .LVU206
	mov	r0, r4
	bl	DMA_SetConfig
.LVL31:
	.loc 1 454 5 view .LVU207
	ldr	r2, [r4]
	ldr	r3, [r2]
	orr	r3, r3, #1
	str	r3, [r2]
	.loc 1 433 21 is_stmt 0 view .LVU208
	mov	r0, r5
	b	.L35
.LVL32:
.L37:
	.loc 1 439 3 view .LVU209
	movs	r0, #2
	b	.L35
	.cfi_endproc
.LFE76:
	.size	HAL_DMA_Start, .-HAL_DMA_Start
	.section	.text.HAL_DMA_Start_IT,"ax",%progbits
	.align	1
	.global	HAL_DMA_Start_IT
	.syntax unified
	.thumb
	.thumb_func
	.type	HAL_DMA_Start_IT, %function
HAL_DMA_Start_IT:
.LVL33:
.LFB77:
	.loc 1 475 1 is_stmt 1 view -0
	.cfi_startproc
	@ args = 0, pretend = 0, frame = 0
	@ frame_needed = 0, uses_anonymous_args = 0
	.loc 1 475 1 is_stmt 0 view .LVU211
	push	{r3, r4, r5, lr}
.LCFI12:
	.cfi_def_cfa_offset 16
	.cfi_offset 3, -16
	.cfi_offset 4, -12
	.cfi_offset 5, -8
	.cfi_offset 14, -4
	mov	r4, r0
	.loc 1 476 3 is_stmt 1 view .LVU212
.LVL34:
	.loc 1 479 3 view .LVU213
	.loc 1 482 3 view .LVU214
	.loc 1 482 3 view .LVU215
	ldrb	r0, [r0, #36]	@ zero_extendqisi2
.LVL35:
	.loc 1 482 3 is_stmt 0 view .LVU216
	cmp	r0, #1
	beq	.L45
	.loc 1 482 3 is_stmt 1 discriminator 2 view .LVU217
	movs	r0, #1
	strb	r0, [r4, #36]
	.loc 1 482 3 discriminator 2 view .LVU218
	.loc 1 484 3 discriminator 2 view .LVU219
	.loc 1 484 34 is_stmt 0 discriminator 2 view .LVU220
	ldrb	r0, [r4, #37]	@ zero_extendqisi2
	uxtb	r0, r0
	.loc 1 484 6 discriminator 2 view .LVU221
	cmp	r0, #1
	beq	.L47
	.loc 1 533 5 is_stmt 1 view .LVU222
	.loc 1 533 5 view .LVU223
	movs	r3, #0
.LVL36:
	.loc 1 533 5 is_stmt 0 view .LVU224
	strb	r3, [r4, #36]
	.loc 1 533 5 is_stmt 1 view .LVU225
	.loc 1 536 5 view .LVU226
.LVL37:
	.loc 1 536 12 is_stmt 0 view .LVU227
	movs	r0, #2
.LVL38:
.L41:
	.loc 1 539 1 view .LVU228
	pop	{r3, r4, r5, pc}
.LVL39:
.L47:
	.loc 1 487 5 is_stmt 1 view .LVU229
	.loc 1 487 17 is_stmt 0 view .LVU230
	movs	r0, #2
	strb	r0, [r4, #37]
	.loc 1 488 5 is_stmt 1 view .LVU231
	.loc 1 488 21 is_stmt 0 view .LVU232
	movs	r0, #0
	str	r0, [r4, #60]
	.loc 1 491 5 is_stmt 1 view .LVU233
	ldr	r5, [r4]
	ldr	r0, [r5]
	bic	r0, r0, #1
	str	r0, [r5]
	.loc 1 494 5 view .LVU234
	mov	r0, r4
	bl	DMA_SetConfig
.LVL40:
	.loc 1 498 5 view .LVU235
	.loc 1 498 21 is_stmt 0 view .LVU236
	ldr	r3, [r4, #48]
	.loc 1 498 8 view .LVU237
	cbz	r3, .L43
	.loc 1 501 7 is_stmt 1 view .LVU238
	ldr	r2, [r4]
	ldr	r3, [r2]
	orr	r3, r3, #14
	str	r3, [r2]
.L44:
	.loc 1 528 5 view .LVU239
	ldr	r2, [r4]
	ldr	r3, [r2]
	orr	r3, r3, #1
	str	r3, [r2]
	.loc 1 476 21 is_stmt 0 view .LVU240
	movs	r0, #0
	b	.L41
.L43:
	.loc 1 505 7 is_stmt 1 view .LVU241
	ldr	r2, [r4]
	ldr	r3, [r2]
	bic	r3, r3, #4
	str	r3, [r2]
	.loc 1 506 7 view .LVU242
	ldr	r2, [r4]
	ldr	r3, [r2]
	orr	r3, r3, #10
	str	r3, [r2]
	b	.L44
.LVL41:
.L45:
	.loc 1 482 3 is_stmt 0 view .LVU243
	movs	r0, #2
	b	.L41
	.cfi_endproc
.LFE77:
	.size	HAL_DMA_Start_IT, .-HAL_DMA_Start_IT
	.section	.text.HAL_DMA_Abort,"ax",%progbits
	.align	1
	.global	HAL_DMA_Abort
	.syntax unified
	.thumb
	.thumb_func
	.type	HAL_DMA_Abort, %function
HAL_DMA_Abort:
.LVL42:
.LFB78:
	.loc 1 548 1 is_stmt 1 view -0
	.cfi_startproc
	@ args = 0, pretend = 0, frame = 0
	@ frame_needed = 0, uses_anonymous_args = 0
	@ link register save eliminated.
	.loc 1 549 3 view .LVU245
	.loc 1 552 3 view .LVU246
	.loc 1 552 11 is_stmt 0 view .LVU247
	ldrb	r3, [r0, #37]	@ zero_extendqisi2
	uxtb	r3, r3
	.loc 1 552 6 view .LVU248
	cmp	r3, #2
	beq	.L49
	.loc 1 554 5 is_stmt 1 view .LVU249
	.loc 1 554 21 is_stmt 0 view .LVU250
	movs	r3, #4
	str	r3, [r0, #60]
	.loc 1 557 5 is_stmt 1 view .LVU251
	.loc 1 557 5 view .LVU252
	movs	r3, #0
	strb	r3, [r0, #36]
	.loc 1 557 5 view .LVU253
	.loc 1 559 5 view .LVU254
	.loc 1 559 12 is_stmt 0 view .LVU255
	movs	r0, #1
.LVL43:
	.loc 1 559 12 view .LVU256
	bx	lr
.LVL44:
.L49:
	.loc 1 564 5 is_stmt 1 view .LVU257
	ldr	r2, [r0]
	ldr	r3, [r2]
	bic	r3, r3, #14
	str	r3, [r2]
	.loc 1 572 5 view .LVU258
	ldr	r2, [r0]
	ldr	r3, [r2]
	bic	r3, r3, #1
	str	r3, [r2]
	.loc 1 575 5 view .LVU259
	.loc 1 575 56 is_stmt 0 view .LVU260
	ldr	r3, [r0, #68]
	.loc 1 575 71 view .LVU261
	and	r3, r3, #28
	.loc 1 575 9 view .LVU262
	ldr	r1, [r0, #64]
	.loc 1 575 48 view .LVU263
	movs	r2, #1
	lsl	r3, r2, r3
	.loc 1 575 32 view .LVU264
	str	r3, [r1, #4]
	.loc 1 594 5 is_stmt 1 view .LVU265
	.loc 1 594 17 is_stmt 0 view .LVU266
	strb	r2, [r0, #37]
	.loc 1 597 5 is_stmt 1 view .LVU267
	.loc 1 597 5 view .LVU268
	movs	r3, #0
	strb	r3, [r0, #36]
	.loc 1 597 5 view .LVU269
	.loc 1 599 5 view .LVU270
	.loc 1 599 12 is_stmt 0 view .LVU271
	mov	r0, r3
.LVL45:
	.loc 1 601 1 view .LVU272
	bx	lr
	.cfi_endproc
.LFE78:
	.size	HAL_DMA_Abort, .-HAL_DMA_Abort
	.section	.text.HAL_DMA_Abort_IT,"ax",%progbits
	.align	1
	.global	HAL_DMA_Abort_IT
	.syntax unified
	.thumb
	.thumb_func
	.type	HAL_DMA_Abort_IT, %function
HAL_DMA_Abort_IT:
.LVL46:
.LFB79:
	.loc 1 610 1 is_stmt 1 view -0
	.cfi_startproc
	@ args = 0, pretend = 0, frame = 0
	@ frame_needed = 0, uses_anonymous_args = 0
	.loc 1 610 1 is_stmt 0 view .LVU274
	push	{r3, lr}
.LCFI13:
	.cfi_def_cfa_offset 8
	.cfi_offset 3, -8
	.cfi_offset 14, -4
	.loc 1 611 3 is_stmt 1 view .LVU275
.LVL47:
	.loc 1 613 3 view .LVU276
	.loc 1 613 33 is_stmt 0 view .LVU277
	ldrb	r3, [r0, #37]	@ zero_extendqisi2
	uxtb	r3, r3
	.loc 1 613 6 view .LVU278
	cmp	r3, #2
	beq	.L52
	.loc 1 616 5 is_stmt 1 view .LVU279
	.loc 1 616 21 is_stmt 0 view .LVU280
	movs	r3, #4
	str	r3, [r0, #60]
	.loc 1 618 5 is_stmt 1 view .LVU281
.LVL48:
	.loc 1 618 12 is_stmt 0 view .LVU282
	movs	r0, #1
.LVL49:
.L53:
	.loc 1 665 3 is_stmt 1 view .LVU283
	.loc 1 666 1 is_stmt 0 view .LVU284
	pop	{r3, pc}
.LVL50:
.L52:
	.loc 1 623 5 is_stmt 1 view .LVU285
	ldr	r2, [r0]
	ldr	r3, [r2]
	bic	r3, r3, #14
	str	r3, [r2]
	.loc 1 626 5 view .LVU286
	ldr	r2, [r0]
	ldr	r3, [r2]
	bic	r3, r3, #1
	str	r3, [r2]
	.loc 1 650 5 view .LVU287
	.loc 1 650 56 is_stmt 0 view .LVU288
	ldr	r3, [r0, #68]
	.loc 1 650 71 view .LVU289
	and	r3, r3, #28
	.loc 1 650 9 view .LVU290
	ldr	r1, [r0, #64]
	.loc 1 650 48 view .LVU291
	movs	r2, #1
	lsl	r3, r2, r3
	.loc 1 650 32 view .LVU292
	str	r3, [r1, #4]
	.loc 1 654 5 is_stmt 1 view .LVU293
	.loc 1 654 17 is_stmt 0 view .LVU294
	strb	r2, [r0, #37]
	.loc 1 657 5 is_stmt 1 view .LVU295
	.loc 1 657 5 view .LVU296
	movs	r3, #0
	strb	r3, [r0, #36]
	.loc 1 657 5 view .LVU297
	.loc 1 660 5 view .LVU298
	.loc 1 660 13 is_stmt 0 view .LVU299
	ldr	r3, [r0, #56]
	.loc 1 660 8 view .LVU300
	cbz	r3, .L54
	.loc 1 662 7 is_stmt 1 view .LVU301
	blx	r3
.LVL51:
	.loc 1 611 21 is_stmt 0 view .LVU302
	movs	r0, #0
	b	.L53
.LVL52:
.L54:
	.loc 1 611 21 view .LVU303
	movs	r0, #0
.LVL53:
	.loc 1 611 21 view .LVU304
	b	.L53
	.cfi_endproc
.LFE79:
	.size	HAL_DMA_Abort_IT, .-HAL_DMA_Abort_IT
	.section	.text.HAL_DMA_PollForTransfer,"ax",%progbits
	.align	1
	.global	HAL_DMA_PollForTransfer
	.syntax unified
	.thumb
	.thumb_func
	.type	HAL_DMA_PollForTransfer, %function
HAL_DMA_PollForTransfer:
.LVL54:
.LFB80:
	.loc 1 677 1 is_stmt 1 view -0
	.cfi_startproc
	@ args = 0, pretend = 0, frame = 0
	@ frame_needed = 0, uses_anonymous_args = 0
	.loc 1 677 1 is_stmt 0 view .LVU306
	push	{r4, r5, r6, r7, r8, lr}
.LCFI14:
	.cfi_def_cfa_offset 24
	.cfi_offset 4, -24
	.cfi_offset 5, -20
	.cfi_offset 6, -16
	.cfi_offset 7, -12
	.cfi_offset 8, -8
	.cfi_offset 14, -4
	mov	r4, r0
	.loc 1 678 3 is_stmt 1 view .LVU307
	.loc 1 679 3 view .LVU308
	.loc 1 681 3 view .LVU309
	.loc 1 681 33 is_stmt 0 view .LVU310
	ldrb	r3, [r0, #37]	@ zero_extendqisi2
	uxtb	r3, r3
	.loc 1 681 6 view .LVU311
	cmp	r3, #2
	beq	.L57
	.loc 1 684 5 is_stmt 1 view .LVU312
	.loc 1 684 21 is_stmt 0 view .LVU313
	movs	r3, #4
	str	r3, [r0, #60]
	.loc 1 685 5 is_stmt 1 view .LVU314
	.loc 1 685 5 view .LVU315
	movs	r3, #0
	strb	r3, [r0, #36]
	.loc 1 685 5 view .LVU316
	.loc 1 686 5 view .LVU317
	.loc 1 686 12 is_stmt 0 view .LVU318
	movs	r0, #1
.LVL55:
.L58:
	.loc 1 798 1 view .LVU319
	pop	{r4, r5, r6, r7, r8, pc}
.LVL56:
.L57:
	.loc 1 798 1 view .LVU320
	mov	r6, r1
	mov	r5, r2
	.loc 1 690 3 is_stmt 1 view .LVU321
	.loc 1 690 12 is_stmt 0 view .LVU322
	ldr	r3, [r0]
	.loc 1 690 22 view .LVU323
	ldr	r3, [r3]
	.loc 1 690 6 view .LVU324
	tst	r3, #32
	bne	.L69
	.loc 1 697 3 is_stmt 1 view .LVU325
	.loc 1 697 6 is_stmt 0 view .LVU326
	cbnz	r1, .L60
	.loc 1 700 5 is_stmt 1 view .LVU327
	.loc 1 700 33 is_stmt 0 view .LVU328
	ldr	r3, [r0, #68]
	.loc 1 700 48 view .LVU329
	and	r3, r3, #28
	.loc 1 700 10 view .LVU330
	movs	r7, #2
	lsls	r7, r7, r3
.LVL57:
.L61:
	.loc 1 709 3 is_stmt 1 view .LVU331
	.loc 1 709 15 is_stmt 0 view .LVU332
	bl	HAL_GetTick
.LVL58:
	.loc 1 709 15 view .LVU333
	mov	r8, r0
.LVL59:
	.loc 1 711 3 is_stmt 1 view .LVU334
.L64:
	.loc 1 711 45 view .LVU335
	.loc 1 711 15 is_stmt 0 view .LVU336
	ldr	r2, [r4, #64]
	.loc 1 711 31 view .LVU337
	ldr	r3, [r2]
	.loc 1 711 45 view .LVU338
	tst	r3, r7
	bne	.L70
	.loc 1 713 5 is_stmt 1 view .LVU339
	.loc 1 713 30 is_stmt 0 view .LVU340
	ldr	r1, [r2]
	.loc 1 713 60 view .LVU341
	ldr	r3, [r4, #68]
	.loc 1 713 75 view .LVU342
	and	r3, r3, #28
	.loc 1 713 52 view .LVU343
	mov	ip, #8
	lsl	ip, ip, r3
	.loc 1 713 8 view .LVU344
	tst	r1, ip
	bne	.L71
	.loc 1 732 5 is_stmt 1 view .LVU345
	.loc 1 732 8 is_stmt 0 view .LVU346
	cmp	r5, #-1
	beq	.L64
	.loc 1 734 7 is_stmt 1 view .LVU347
	.loc 1 734 13 is_stmt 0 view .LVU348
	bl	HAL_GetTick
.LVL60:
	.loc 1 734 27 view .LVU349
	sub	r0, r0, r8
	.loc 1 734 10 view .LVU350
	cmp	r0, r5
	bhi	.L65
	.loc 1 734 51 discriminator 1 view .LVU351
	cmp	r5, #0
	bne	.L64
.L65:
	.loc 1 737 9 is_stmt 1 view .LVU352
	.loc 1 737 25 is_stmt 0 view .LVU353
	movs	r3, #32
	str	r3, [r4, #60]
	.loc 1 740 9 is_stmt 1 view .LVU354
	.loc 1 740 21 is_stmt 0 view .LVU355
	movs	r0, #1
	strb	r0, [r4, #37]
	.loc 1 743 9 is_stmt 1 view .LVU356
	.loc 1 743 9 view .LVU357
	movs	r3, #0
	strb	r3, [r4, #36]
	.loc 1 743 9 view .LVU358
	.loc 1 745 9 view .LVU359
	.loc 1 745 16 is_stmt 0 view .LVU360
	b	.L58
.LVL61:
.L69:
	.loc 1 692 5 is_stmt 1 view .LVU361
	.loc 1 692 21 is_stmt 0 view .LVU362
	mov	r3, #256
	str	r3, [r0, #60]
	.loc 1 693 5 is_stmt 1 view .LVU363
	.loc 1 693 12 is_stmt 0 view .LVU364
	movs	r0, #1
.LVL62:
	.loc 1 693 12 view .LVU365
	b	.L58
.LVL63:
.L60:
	.loc 1 705 5 is_stmt 1 view .LVU366
	.loc 1 705 33 is_stmt 0 view .LVU367
	ldr	r3, [r0, #68]
	.loc 1 705 48 view .LVU368
	and	r3, r3, #28
	.loc 1 705 10 view .LVU369
	movs	r7, #4
	lsls	r7, r7, r3
.LVL64:
	.loc 1 705 10 view .LVU370
	b	.L61
.LVL65:
.L71:
	.loc 1 718 7 is_stmt 1 view .LVU371
	.loc 1 718 50 is_stmt 0 view .LVU372
	movs	r0, #1
	lsl	r3, r0, r3
	.loc 1 718 34 view .LVU373
	str	r3, [r2, #4]
	.loc 1 721 7 is_stmt 1 view .LVU374
	.loc 1 721 23 is_stmt 0 view .LVU375
	str	r0, [r4, #60]
	.loc 1 724 7 is_stmt 1 view .LVU376
	.loc 1 724 19 is_stmt 0 view .LVU377
	strb	r0, [r4, #37]
	.loc 1 727 7 is_stmt 1 view .LVU378
	.loc 1 727 7 view .LVU379
	movs	r3, #0
	strb	r3, [r4, #36]
	.loc 1 727 7 view .LVU380
	.loc 1 729 7 view .LVU381
	.loc 1 729 14 is_stmt 0 view .LVU382
	b	.L58
.L70:
	.loc 1 779 3 is_stmt 1 view .LVU383
	.loc 1 779 6 is_stmt 0 view .LVU384
	cbnz	r6, .L67
	.loc 1 782 5 is_stmt 1 view .LVU385
	.loc 1 782 56 is_stmt 0 view .LVU386
	ldr	r3, [r4, #68]
	.loc 1 782 71 view .LVU387
	and	r1, r3, #28
	.loc 1 782 48 view .LVU388
	movs	r3, #2
	lsls	r3, r3, r1
	.loc 1 782 32 view .LVU389
	str	r3, [r2, #4]
	.loc 1 785 5 is_stmt 1 view .LVU390
	.loc 1 785 5 view .LVU391
	movs	r3, #0
	strb	r3, [r4, #36]
	.loc 1 785 5 view .LVU392
	.loc 1 789 5 view .LVU393
	.loc 1 789 17 is_stmt 0 view .LVU394
	movs	r3, #1
	strb	r3, [r4, #37]
	.loc 1 797 10 view .LVU395
	mov	r0, r6
	b	.L58
.L67:
	.loc 1 794 5 is_stmt 1 view .LVU396
	.loc 1 794 56 is_stmt 0 view .LVU397
	ldr	r1, [r4, #68]
	.loc 1 794 71 view .LVU398
	and	r1, r1, #28
	.loc 1 794 48 view .LVU399
	movs	r3, #4
	lsls	r3, r3, r1
	.loc 1 794 32 view .LVU400
	str	r3, [r2, #4]
	.loc 1 797 10 view .LVU401
	movs	r0, #0
	b	.L58
	.cfi_endproc
.LFE80:
	.size	HAL_DMA_PollForTransfer, .-HAL_DMA_PollForTransfer
	.section	.text.HAL_DMA_IRQHandler,"ax",%progbits
	.align	1
	.global	HAL_DMA_IRQHandler
	.syntax unified
	.thumb
	.thumb_func
	.type	HAL_DMA_IRQHandler, %function
HAL_DMA_IRQHandler:
.LVL66:
.LFB81:
	.loc 1 807 1 is_stmt 1 view -0
	.cfi_startproc
	@ args = 0, pretend = 0, frame = 0
	@ frame_needed = 0, uses_anonymous_args = 0
	.loc 1 807 1 is_stmt 0 view .LVU403
	push	{r3, r4, r5, lr}
.LCFI15:
	.cfi_def_cfa_offset 16
	.cfi_offset 3, -16
	.cfi_offset 4, -12
	.cfi_offset 5, -8
	.cfi_offset 14, -4
	.loc 1 808 3 is_stmt 1 view .LVU404
	.loc 1 808 26 is_stmt 0 view .LVU405
	ldr	r3, [r0, #64]
	.loc 1 808 12 view .LVU406
	ldr	r1, [r3]
.LVL67:
	.loc 1 809 3 is_stmt 1 view .LVU407
	.loc 1 809 28 is_stmt 0 view .LVU408
	ldr	r4, [r0]
	.loc 1 809 12 view .LVU409
	ldr	r5, [r4]
.LVL68:
	.loc 1 812 3 is_stmt 1 view .LVU410
	.loc 1 812 41 is_stmt 0 view .LVU411
	ldr	r3, [r0, #68]
	.loc 1 812 56 view .LVU412
	and	r3, r3, #28
	.loc 1 812 33 view .LVU413
	movs	r2, #4
	lsls	r2, r2, r3
	.loc 1 812 6 view .LVU414
	tst	r2, r1
	beq	.L73
	.loc 1 812 74 discriminator 1 view .LVU415
	tst	r5, #4
	beq	.L73
	.loc 1 815 5 is_stmt 1 view .LVU416
	.loc 1 815 24 is_stmt 0 view .LVU417
	ldr	r3, [r4]
	.loc 1 815 8 view .LVU418
	tst	r3, #32
	bne	.L74
	.loc 1 818 7 is_stmt 1 view .LVU419
	ldr	r3, [r4]
	bic	r3, r3, #4
	str	r3, [r4]
.L74:
	.loc 1 821 5 view .LVU420
	.loc 1 821 56 is_stmt 0 view .LVU421
	ldr	r3, [r0, #68]
	.loc 1 821 71 view .LVU422
	and	r2, r3, #28
	.loc 1 821 9 view .LVU423
	ldr	r1, [r0, #64]
.LVL69:
	.loc 1 821 48 view .LVU424
	movs	r3, #4
	lsls	r3, r3, r2
	.loc 1 821 32 view .LVU425
	str	r3, [r1, #4]
	.loc 1 826 5 is_stmt 1 view .LVU426
	.loc 1 826 13 is_stmt 0 view .LVU427
	ldr	r3, [r0, #48]
	.loc 1 826 8 view .LVU428
	cbz	r3, .L72
	.loc 1 829 7 is_stmt 1 view .LVU429
	blx	r3
.LVL70:
.L72:
	.loc 1 890 1 is_stmt 0 view .LVU430
	pop	{r3, r4, r5, pc}
.LVL71:
.L73:
	.loc 1 834 8 is_stmt 1 view .LVU431
	.loc 1 834 38 is_stmt 0 view .LVU432
	movs	r2, #2
	lsls	r2, r2, r3
	.loc 1 834 11 view .LVU433
	tst	r2, r1
	beq	.L76
	.loc 1 834 79 discriminator 1 view .LVU434
	tst	r5, #2
	beq	.L76
	.loc 1 836 5 is_stmt 1 view .LVU435
	.loc 1 836 24 is_stmt 0 view .LVU436
	ldr	r3, [r4]
	.loc 1 836 8 view .LVU437
	tst	r3, #32
	bne	.L77
	.loc 1 841 7 is_stmt 1 view .LVU438
	ldr	r3, [r4]
	bic	r3, r3, #10
	str	r3, [r4]
	.loc 1 844 7 view .LVU439
	.loc 1 844 19 is_stmt 0 view .LVU440
	movs	r3, #1
	strb	r3, [r0, #37]
.L77:
	.loc 1 847 5 is_stmt 1 view .LVU441
	.loc 1 847 57 is_stmt 0 view .LVU442
	ldr	r3, [r0, #68]
	.loc 1 847 72 view .LVU443
	and	r2, r3, #28
	.loc 1 847 9 view .LVU444
	ldr	r1, [r0, #64]
.LVL72:
	.loc 1 847 49 view .LVU445
	movs	r3, #2
	lsls	r3, r3, r2
	.loc 1 847 32 view .LVU446
	str	r3, [r1, #4]
	.loc 1 850 5 is_stmt 1 view .LVU447
	.loc 1 850 5 view .LVU448
	movs	r3, #0
	strb	r3, [r0, #36]
	.loc 1 850 5 view .LVU449
	.loc 1 852 5 view .LVU450
	.loc 1 852 13 is_stmt 0 view .LVU451
	ldr	r3, [r0, #44]
	.loc 1 852 8 view .LVU452
	cmp	r3, #0
	beq	.L72
	.loc 1 855 7 is_stmt 1 view .LVU453
	blx	r3
.LVL73:
	.loc 1 855 7 is_stmt 0 view .LVU454
	b	.L72
.LVL74:
.L76:
	.loc 1 860 8 is_stmt 1 view .LVU455
	.loc 1 860 38 is_stmt 0 view .LVU456
	movs	r2, #8
	lsl	r3, r2, r3
	.loc 1 860 11 view .LVU457
	tst	r3, r1
	beq	.L72
	.loc 1 860 79 discriminator 1 view .LVU458
	tst	r5, #8
	beq	.L72
	.loc 1 865 5 is_stmt 1 view .LVU459
	ldr	r3, [r4]
	bic	r3, r3, #14
	str	r3, [r4]
	.loc 1 868 5 view .LVU460
	.loc 1 868 56 is_stmt 0 view .LVU461
	ldr	r3, [r0, #68]
	.loc 1 868 71 view .LVU462
	and	r3, r3, #28
	.loc 1 868 9 view .LVU463
	ldr	r1, [r0, #64]
.LVL75:
	.loc 1 868 48 view .LVU464
	movs	r2, #1
	lsl	r3, r2, r3
	.loc 1 868 32 view .LVU465
	str	r3, [r1, #4]
	.loc 1 871 5 is_stmt 1 view .LVU466
	.loc 1 871 21 is_stmt 0 view .LVU467
	str	r2, [r0, #60]
	.loc 1 874 5 is_stmt 1 view .LVU468
	.loc 1 874 17 is_stmt 0 view .LVU469
	strb	r2, [r0, #37]
	.loc 1 877 5 is_stmt 1 view .LVU470
	.loc 1 877 5 view .LVU471
	movs	r3, #0
	strb	r3, [r0, #36]
	.loc 1 877 5 view .LVU472
	.loc 1 879 5 view .LVU473
	.loc 1 879 13 is_stmt 0 view .LVU474
	ldr	r3, [r0, #52]
	.loc 1 879 8 view .LVU475
	cmp	r3, #0
	beq	.L72
	.loc 1 882 7 is_stmt 1 view .LVU476
	blx	r3
.LVL76:
	.loc 1 888 3 view .LVU477
	.loc 1 889 3 view .LVU478
	b	.L72
	.cfi_endproc
.LFE81:
	.size	HAL_DMA_IRQHandler, .-HAL_DMA_IRQHandler
	.section	.text.HAL_DMA_RegisterCallback,"ax",%progbits
	.align	1
	.global	HAL_DMA_RegisterCallback
	.syntax unified
	.thumb
	.thumb_func
	.type	HAL_DMA_RegisterCallback, %function
HAL_DMA_RegisterCallback:
.LVL77:
.LFB82:
	.loc 1 903 1 view -0
	.cfi_startproc
	@ args = 0, pretend = 0, frame = 0
	@ frame_needed = 0, uses_anonymous_args = 0
	@ link register save eliminated.
	.loc 1 903 1 is_stmt 0 view .LVU480
	mov	r3, r0
	.loc 1 904 3 is_stmt 1 view .LVU481
.LVL78:
	.loc 1 907 3 view .LVU482
	.loc 1 907 3 view .LVU483
	ldrb	r0, [r0, #36]	@ zero_extendqisi2
.LVL79:
	.loc 1 907 3 is_stmt 0 view .LVU484
	cmp	r0, #1
	beq	.L87
	.loc 1 907 3 is_stmt 1 discriminator 2 view .LVU485
	movs	r0, #1
	strb	r0, [r3, #36]
	.loc 1 907 3 discriminator 2 view .LVU486
	.loc 1 909 3 discriminator 2 view .LVU487
	.loc 1 909 34 is_stmt 0 discriminator 2 view .LVU488
	ldrb	r0, [r3, #37]	@ zero_extendqisi2
	uxtb	r0, r0
	.loc 1 909 6 discriminator 2 view .LVU489
	cmp	r0, #1
	beq	.L90
	.loc 1 936 12 view .LVU490
	movs	r0, #1
.L81:
.LVL80:
	.loc 1 940 3 is_stmt 1 view .LVU491
	.loc 1 940 3 view .LVU492
	movs	r2, #0
.LVL81:
	.loc 1 940 3 is_stmt 0 view .LVU493
	strb	r2, [r3, #36]
	.loc 1 940 3 is_stmt 1 view .LVU494
	.loc 1 942 3 view .LVU495
	.loc 1 942 10 is_stmt 0 view .LVU496
	bx	lr
.LVL82:
.L90:
	.loc 1 911 5 is_stmt 1 view .LVU497
	cmp	r1, #3
	bhi	.L81
	tbb	[pc, r1]
.L83:
	.byte	(.L86-.L83)/2
	.byte	(.L85-.L83)/2
	.byte	(.L84-.L83)/2
	.byte	(.L82-.L83)/2
	.p2align 1
.L86:
	.loc 1 914 9 view .LVU498
	.loc 1 914 32 is_stmt 0 view .LVU499
	str	r2, [r3, #44]
	.loc 1 915 9 is_stmt 1 view .LVU500
	.loc 1 904 21 is_stmt 0 view .LVU501
	mov	r0, r1
	.loc 1 915 9 view .LVU502
	b	.L81
.L85:
	.loc 1 918 9 is_stmt 1 view .LVU503
	.loc 1 918 36 is_stmt 0 view .LVU504
	str	r2, [r3, #48]
	.loc 1 919 9 is_stmt 1 view .LVU505
	.loc 1 904 21 is_stmt 0 view .LVU506
	movs	r0, #0
	.loc 1 919 9 view .LVU507
	b	.L81
.L84:
	.loc 1 922 9 is_stmt 1 view .LVU508
	.loc 1 922 33 is_stmt 0 view .LVU509
	str	r2, [r3, #52]
	.loc 1 923 9 is_stmt 1 view .LVU510
	.loc 1 904 21 is_stmt 0 view .LVU511
	movs	r0, #0
	.loc 1 923 9 view .LVU512
	b	.L81
.L82:
	.loc 1 926 9 is_stmt 1 view .LVU513
	.loc 1 926 33 is_stmt 0 view .LVU514
	str	r2, [r3, #56]
	.loc 1 927 9 is_stmt 1 view .LVU515
	.loc 1 904 21 is_stmt 0 view .LVU516
	movs	r0, #0
	.loc 1 927 9 view .LVU517
	b	.L81
.L87:
	.loc 1 907 3 view .LVU518
	movs	r0, #2
	.loc 1 943 1 view .LVU519
	bx	lr
	.cfi_endproc
.LFE82:
	.size	HAL_DMA_RegisterCallback, .-HAL_DMA_RegisterCallback
	.section	.text.HAL_DMA_UnRegisterCallback,"ax",%progbits
	.align	1
	.global	HAL_DMA_UnRegisterCallback
	.syntax unified
	.thumb
	.thumb_func
	.type	HAL_DMA_UnRegisterCallback, %function
HAL_DMA_UnRegisterCallback:
.LVL83:
.LFB83:
	.loc 1 954 1 is_stmt 1 view -0
	.cfi_startproc
	@ args = 0, pretend = 0, frame = 0
	@ frame_needed = 0, uses_anonymous_args = 0
	@ link register save eliminated.
	.loc 1 954 1 is_stmt 0 view .LVU521
	mov	r3, r0
	.loc 1 955 3 is_stmt 1 view .LVU522
.LVL84:
	.loc 1 958 3 view .LVU523
	.loc 1 958 3 view .LVU524
	ldrb	r2, [r0, #36]	@ zero_extendqisi2
	cmp	r2, #1
	beq	.L100
	.loc 1 958 3 discriminator 2 view .LVU525
	movs	r2, #1
	strb	r2, [r0, #36]
	.loc 1 958 3 discriminator 2 view .LVU526
	.loc 1 960 3 discriminator 2 view .LVU527
	.loc 1 960 34 is_stmt 0 discriminator 2 view .LVU528
	ldrb	r0, [r0, #37]	@ zero_extendqisi2
.LVL85:
	.loc 1 960 34 discriminator 2 view .LVU529
	uxtb	r0, r0
	.loc 1 960 6 discriminator 2 view .LVU530
	cmp	r0, r2
	beq	.L103
	.loc 1 994 12 view .LVU531
	movs	r0, #1
.L93:
.LVL86:
	.loc 1 998 3 is_stmt 1 view .LVU532
	.loc 1 998 3 view .LVU533
	movs	r2, #0
	strb	r2, [r3, #36]
	.loc 1 998 3 view .LVU534
	.loc 1 1000 3 view .LVU535
	.loc 1 1000 10 is_stmt 0 view .LVU536
	bx	lr
.LVL87:
.L103:
	.loc 1 962 5 is_stmt 1 view .LVU537
	cmp	r1, #4
	bhi	.L93
	tbb	[pc, r1]
.L95:
	.byte	(.L99-.L95)/2
	.byte	(.L98-.L95)/2
	.byte	(.L97-.L95)/2
	.byte	(.L96-.L95)/2
	.byte	(.L94-.L95)/2
	.p2align 1
.L99:
	.loc 1 965 9 view .LVU538
	.loc 1 965 32 is_stmt 0 view .LVU539
	movs	r2, #0
	str	r2, [r3, #44]
	.loc 1 966 9 is_stmt 1 view .LVU540
	.loc 1 955 21 is_stmt 0 view .LVU541
	mov	r0, r1
	.loc 1 966 9 view .LVU542
	b	.L93
.L98:
	.loc 1 969 9 is_stmt 1 view .LVU543
	.loc 1 969 36 is_stmt 0 view .LVU544
	movs	r0, #0
	str	r0, [r3, #48]
	.loc 1 970 9 is_stmt 1 view .LVU545
	b	.L93
.L97:
	.loc 1 973 9 view .LVU546
	.loc 1 973 33 is_stmt 0 view .LVU547
	movs	r0, #0
	str	r0, [r3, #52]
	.loc 1 974 9 is_stmt 1 view .LVU548
	b	.L93
.L96:
	.loc 1 977 9 view .LVU549
	.loc 1 977 33 is_stmt 0 view .LVU550
	movs	r0, #0
	str	r0, [r3, #56]
	.loc 1 978 9 is_stmt 1 view .LVU551
	b	.L93
.L94:
	.loc 1 981 9 view .LVU552
	.loc 1 981 32 is_stmt 0 view .LVU553
	movs	r0, #0
	str	r0, [r3, #44]
	.loc 1 982 9 is_stmt 1 view .LVU554
	.loc 1 982 36 is_stmt 0 view .LVU555
	str	r0, [r3, #48]
	.loc 1 983 9 is_stmt 1 view .LVU556
	.loc 1 983 33 is_stmt 0 view .LVU557
	str	r0, [r3, #52]
	.loc 1 984 9 is_stmt 1 view .LVU558
	.loc 1 984 33 is_stmt 0 view .LVU559
	str	r0, [r3, #56]
	.loc 1 985 9 is_stmt 1 view .LVU560
	b	.L93
.LVL88:
.L100:
	.loc 1 958 3 is_stmt 0 view .LVU561
	movs	r0, #2
.LVL89:
	.loc 1 1001 1 view .LVU562
	bx	lr
	.cfi_endproc
.LFE83:
	.size	HAL_DMA_UnRegisterCallback, .-HAL_DMA_UnRegisterCallback
	.section	.text.HAL_DMA_GetState,"ax",%progbits
	.align	1
	.global	HAL_DMA_GetState
	.syntax unified
	.thumb
	.thumb_func
	.type	HAL_DMA_GetState, %function
HAL_DMA_GetState:
.LVL90:
.LFB84:
	.loc 1 1032 1 is_stmt 1 view -0
	.cfi_startproc
	@ args = 0, pretend = 0, frame = 0
	@ frame_needed = 0, uses_anonymous_args = 0
	@ link register save eliminated.
	.loc 1 1034 3 view .LVU564
	.loc 1 1034 14 is_stmt 0 view .LVU565
	ldrb	r0, [r0, #37]	@ zero_extendqisi2
.LVL91:
	.loc 1 1035 1 view .LVU566
	bx	lr
	.cfi_endproc
.LFE84:
	.size	HAL_DMA_GetState, .-HAL_DMA_GetState
	.section	.text.HAL_DMA_GetError,"ax",%progbits
	.align	1
	.global	HAL_DMA_GetError
	.syntax unified
	.thumb
	.thumb_func
	.type	HAL_DMA_GetError, %function
HAL_DMA_GetError:
.LVL92:
.LFB85:
	.loc 1 1044 1 is_stmt 1 view -0
	.cfi_startproc
	@ args = 0, pretend = 0, frame = 0
	@ frame_needed = 0, uses_anonymous_args = 0
	@ link register save eliminated.
	.loc 1 1045 3 view .LVU568
	.loc 1 1045 14 is_stmt 0 view .LVU569
	ldr	r0, [r0, #60]
.LVL93:
	.loc 1 1046 1 view .LVU570
	bx	lr
	.cfi_endproc
.LFE85:
	.size	HAL_DMA_GetError, .-HAL_DMA_GetError
	.text
.Letext0:
	.file 2 "/home/emanuele/st/stm32cubeide_1.15.0/plugins/com.st.stm32cube.ide.mcu.externaltools.gnu-tools-for-stm32.12.3.rel1.linux64_1.0.200.202406132123/tools/arm-none-eabi/include/machine/_default_types.h"
	.file 3 "/home/emanuele/st/stm32cubeide_1.15.0/plugins/com.st.stm32cube.ide.mcu.externaltools.gnu-tools-for-stm32.12.3.rel1.linux64_1.0.200.202406132123/tools/arm-none-eabi/include/sys/_stdint.h"
	.file 4 "../Drivers/CMSIS/Device/ST/STM32L4xx/Include/stm32l475xx.h"
	.file 5 "../Drivers/STM32L4xx_HAL_Driver/Inc/stm32l4xx_hal_def.h"
	.file 6 "../Drivers/STM32L4xx_HAL_Driver/Inc/stm32l4xx_hal_dma.h"
	.file 7 "../Drivers/STM32L4xx_HAL_Driver/Inc/stm32l4xx_hal.h"