ARM GAS  Build/stm32l4xx_hal_pwr_ex.s 			page 1


   1              		.cpu cortex-m3
   2              		.arch armv7-m
   3              		.fpu softvfp
   4              		.eabi_attribute 20, 1
   5              		.eabi_attribute 21, 1
   6              		.eabi_attribute 23, 3
   7              		.eabi_attribute 24, 1
   8              		.eabi_attribute 25, 1
   9              		.eabi_attribute 26, 1
  10              		.eabi_attribute 30, 1
  11              		.eabi_attribute 34, 1
  12              		.eabi_attribute 18, 4
  13              		.file	"stm32l4xx_hal_pwr_ex.c"
  14              		.text
  15              	.Ltext0:
  16              		.cfi_sections	.debug_frame
  17              		.file 1 "../Drivers/STM32L4xx_HAL_Driver/Src/stm32l4xx_hal_pwr_ex.c"
  18              		.section	.text.HAL_PWREx_GetVoltageRange,"ax",%progbits
  19              		.align	1
  20              		.global	HAL_PWREx_GetVoltageRange
  21              		.syntax unified
  22              		.thumb
  23              		.thumb_func
  25              	HAL_PWREx_GetVoltageRange:
  26              	.LFB74:
   1:../Drivers/STM32L4xx_HAL_Driver/Src/stm32l4xx_hal_pwr_ex.c **** /**
   2:../Drivers/STM32L4xx_HAL_Driver/Src/stm32l4xx_hal_pwr_ex.c ****   ******************************************************************************
   3:../Drivers/STM32L4xx_HAL_Driver/Src/stm32l4xx_hal_pwr_ex.c ****   * @file    stm32l4xx_hal_pwr_ex.c
   4:../Drivers/STM32L4xx_HAL_Driver/Src/stm32l4xx_hal_pwr_ex.c ****   * @author  MCD Application Team
   5:../Drivers/STM32L4xx_HAL_Driver/Src/stm32l4xx_hal_pwr_ex.c ****   * @brief   Extended PWR HAL module driver.
   6:../Drivers/STM32L4xx_HAL_Driver/Src/stm32l4xx_hal_pwr_ex.c ****   *          This file provides firmware functions to manage the following
   7:../Drivers/STM32L4xx_HAL_Driver/Src/stm32l4xx_hal_pwr_ex.c ****   *          functionalities of the Power Controller (PWR) peripheral:
   8:../Drivers/STM32L4xx_HAL_Driver/Src/stm32l4xx_hal_pwr_ex.c ****   *           + Extended Initialization and de-initialization functions
   9:../Drivers/STM32L4xx_HAL_Driver/Src/stm32l4xx_hal_pwr_ex.c ****   *           + Extended Peripheral Control functions
  10:../Drivers/STM32L4xx_HAL_Driver/Src/stm32l4xx_hal_pwr_ex.c ****   *
  11:../Drivers/STM32L4xx_HAL_Driver/Src/stm32l4xx_hal_pwr_ex.c ****   ******************************************************************************
  12:../Drivers/STM32L4xx_HAL_Driver/Src/stm32l4xx_hal_pwr_ex.c ****   * @attention
  13:../Drivers/STM32L4xx_HAL_Driver/Src/stm32l4xx_hal_pwr_ex.c ****   *
  14:../Drivers/STM32L4xx_HAL_Driver/Src/stm32l4xx_hal_pwr_ex.c ****   * Copyright (c) 2017 STMicroelectronics.
  15:../Drivers/STM32L4xx_HAL_Driver/Src/stm32l4xx_hal_pwr_ex.c ****   * All rights reserved.
  16:../Drivers/STM32L4xx_HAL_Driver/Src/stm32l4xx_hal_pwr_ex.c ****   *
  17:../Drivers/STM32L4xx_HAL_Driver/Src/stm32l4xx_hal_pwr_ex.c ****   * This software is licensed under terms that can be found in the LICENSE file
  18:../Drivers/STM32L4xx_HAL_Driver/Src/stm32l4xx_hal_pwr_ex.c ****   * in the root directory of this software component.
  19:../Drivers/STM32L4xx_HAL_Driver/Src/stm32l4xx_hal_pwr_ex.c ****   * If no LICENSE file comes with this software, it is provided AS-IS.
  20:../Drivers/STM32L4xx_HAL_Driver/Src/stm32l4xx_hal_pwr_ex.c ****   *
  21:../Drivers/STM32L4xx_HAL_Driver/Src/stm32l4xx_hal_pwr_ex.c ****   ******************************************************************************
  22:../Drivers/STM32L4xx_HAL_Driver/Src/stm32l4xx_hal_pwr_ex.c ****   */
  23:../Drivers/STM32L4xx_HAL_Driver/Src/stm32l4xx_hal_pwr_ex.c **** 
  24:../Drivers/STM32L4xx_HAL_Driver/Src/stm32l4xx_hal_pwr_ex.c **** /* Includes ------------------------------------------------------------------*/
  25:../Drivers/STM32L4xx_HAL_Driver/Src/stm32l4xx_hal_pwr_ex.c **** #include "stm32l4xx_hal.h"
  26:../Drivers/STM32L4xx_HAL_Driver/Src/stm32l4xx_hal_pwr_ex.c **** 
  27:../Drivers/STM32L4xx_HAL_Driver/Src/stm32l4xx_hal_pwr_ex.c **** /** @addtogroup STM32L4xx_HAL_Driver
  28:../Drivers/STM32L4xx_HAL_Driver/Src/stm32l4xx_hal_pwr_ex.c ****   * @{
  29:../Drivers/STM32L4xx_HAL_Driver/Src/stm32l4xx_hal_pwr_ex.c ****   */
  30:../Drivers/STM32L4xx_HAL_Driver/Src/stm32l4xx_hal_pwr_ex.c **** 
  31:../Drivers/STM32L4xx_HAL_Driver/Src/stm32l4xx_hal_pwr_ex.c **** /** @defgroup PWREx PWREx
  32:../Drivers/STM32L4xx_HAL_Driver/Src/stm32l4xx_hal_pwr_ex.c ****   * @brief PWR Extended HAL module driver
ARM GAS  Build/stm32l4xx_hal_pwr_ex.s 			page 2


  33:../Drivers/STM32L4xx_HAL_Driver/Src/stm32l4xx_hal_pwr_ex.c ****   * @{
  34:../Drivers/STM32L4xx_HAL_Driver/Src/stm32l4xx_hal_pwr_ex.c ****   */
  35:../Drivers/STM32L4xx_HAL_Driver/Src/stm32l4xx_hal_pwr_ex.c **** 
  36:../Drivers/STM32L4xx_HAL_Driver/Src/stm32l4xx_hal_pwr_ex.c **** #ifdef HAL_PWR_MODULE_ENABLED
  37:../Drivers/STM32L4xx_HAL_Driver/Src/stm32l4xx_hal_pwr_ex.c **** 
  38:../Drivers/STM32L4xx_HAL_Driver/Src/stm32l4xx_hal_pwr_ex.c **** /* Private typedef -----------------------------------------------------------*/
  39:../Drivers/STM32L4xx_HAL_Driver/Src/stm32l4xx_hal_pwr_ex.c **** /* Private define ------------------------------------------------------------*/
  40:../Drivers/STM32L4xx_HAL_Driver/Src/stm32l4xx_hal_pwr_ex.c **** 
  41:../Drivers/STM32L4xx_HAL_Driver/Src/stm32l4xx_hal_pwr_ex.c **** #if defined (STM32L412xx) || defined (STM32L422xx) || defined (STM32L431xx) || defined (STM32L432xx
  42:../Drivers/STM32L4xx_HAL_Driver/Src/stm32l4xx_hal_pwr_ex.c **** #define PWR_PORTH_AVAILABLE_PINS   ((uint32_t)0x0000000B) /* PH0/PH1/PH3 */
  43:../Drivers/STM32L4xx_HAL_Driver/Src/stm32l4xx_hal_pwr_ex.c **** #elif defined (STM32L451xx) || defined (STM32L452xx) || defined (STM32L462xx)
  44:../Drivers/STM32L4xx_HAL_Driver/Src/stm32l4xx_hal_pwr_ex.c **** #define PWR_PORTH_AVAILABLE_PINS   ((uint32_t)0x0000000B) /* PH0/PH1/PH3 */
  45:../Drivers/STM32L4xx_HAL_Driver/Src/stm32l4xx_hal_pwr_ex.c **** #elif defined (STM32L471xx) || defined (STM32L475xx) || defined (STM32L476xx) || defined (STM32L485
  46:../Drivers/STM32L4xx_HAL_Driver/Src/stm32l4xx_hal_pwr_ex.c **** #define PWR_PORTH_AVAILABLE_PINS   ((uint32_t)0x00000003) /* PH0/PH1 */
  47:../Drivers/STM32L4xx_HAL_Driver/Src/stm32l4xx_hal_pwr_ex.c **** #elif defined (STM32L496xx) || defined (STM32L4A6xx) || defined (STM32L4P5xx) || defined (STM32L4Q5
  48:../Drivers/STM32L4xx_HAL_Driver/Src/stm32l4xx_hal_pwr_ex.c **** #define PWR_PORTH_AVAILABLE_PINS   ((uint32_t)0x0000FFFF) /* PH0..PH15 */
  49:../Drivers/STM32L4xx_HAL_Driver/Src/stm32l4xx_hal_pwr_ex.c **** #endif
  50:../Drivers/STM32L4xx_HAL_Driver/Src/stm32l4xx_hal_pwr_ex.c **** 
  51:../Drivers/STM32L4xx_HAL_Driver/Src/stm32l4xx_hal_pwr_ex.c **** #if defined (STM32L496xx) || defined (STM32L4A6xx) || defined (STM32L4P5xx) || defined (STM32L4Q5xx
  52:../Drivers/STM32L4xx_HAL_Driver/Src/stm32l4xx_hal_pwr_ex.c **** #define PWR_PORTI_AVAILABLE_PINS   ((uint32_t)0x00000FFF) /* PI0..PI11 */
  53:../Drivers/STM32L4xx_HAL_Driver/Src/stm32l4xx_hal_pwr_ex.c **** #endif
  54:../Drivers/STM32L4xx_HAL_Driver/Src/stm32l4xx_hal_pwr_ex.c **** 
  55:../Drivers/STM32L4xx_HAL_Driver/Src/stm32l4xx_hal_pwr_ex.c **** /** @defgroup PWR_Extended_Private_Defines PWR Extended Private Defines
  56:../Drivers/STM32L4xx_HAL_Driver/Src/stm32l4xx_hal_pwr_ex.c ****   * @{
  57:../Drivers/STM32L4xx_HAL_Driver/Src/stm32l4xx_hal_pwr_ex.c ****   */
  58:../Drivers/STM32L4xx_HAL_Driver/Src/stm32l4xx_hal_pwr_ex.c **** 
  59:../Drivers/STM32L4xx_HAL_Driver/Src/stm32l4xx_hal_pwr_ex.c **** /** @defgroup PWREx_PVM_Mode_Mask PWR PVM Mode Mask
  60:../Drivers/STM32L4xx_HAL_Driver/Src/stm32l4xx_hal_pwr_ex.c ****   * @{
  61:../Drivers/STM32L4xx_HAL_Driver/Src/stm32l4xx_hal_pwr_ex.c ****   */
  62:../Drivers/STM32L4xx_HAL_Driver/Src/stm32l4xx_hal_pwr_ex.c **** #define PVM_MODE_IT               ((uint32_t)0x00010000)  /*!< Mask for interruption yielded by PVM
  63:../Drivers/STM32L4xx_HAL_Driver/Src/stm32l4xx_hal_pwr_ex.c **** #define PVM_MODE_EVT              ((uint32_t)0x00020000)  /*!< Mask for event yielded by PVM thresh
  64:../Drivers/STM32L4xx_HAL_Driver/Src/stm32l4xx_hal_pwr_ex.c **** #define PVM_RISING_EDGE           ((uint32_t)0x00000001)  /*!< Mask for rising edge set as PVM trig
  65:../Drivers/STM32L4xx_HAL_Driver/Src/stm32l4xx_hal_pwr_ex.c **** #define PVM_FALLING_EDGE          ((uint32_t)0x00000002)  /*!< Mask for falling edge set as PVM tri
  66:../Drivers/STM32L4xx_HAL_Driver/Src/stm32l4xx_hal_pwr_ex.c **** /**
  67:../Drivers/STM32L4xx_HAL_Driver/Src/stm32l4xx_hal_pwr_ex.c ****   * @}
  68:../Drivers/STM32L4xx_HAL_Driver/Src/stm32l4xx_hal_pwr_ex.c ****   */
  69:../Drivers/STM32L4xx_HAL_Driver/Src/stm32l4xx_hal_pwr_ex.c **** 
  70:../Drivers/STM32L4xx_HAL_Driver/Src/stm32l4xx_hal_pwr_ex.c **** /** @defgroup PWREx_TimeOut_Value PWR Extended Flag Setting Time Out Value
  71:../Drivers/STM32L4xx_HAL_Driver/Src/stm32l4xx_hal_pwr_ex.c ****   * @{
  72:../Drivers/STM32L4xx_HAL_Driver/Src/stm32l4xx_hal_pwr_ex.c ****   */
  73:../Drivers/STM32L4xx_HAL_Driver/Src/stm32l4xx_hal_pwr_ex.c **** #define PWR_FLAG_SETTING_DELAY_US                      50UL   /*!< Time out value for REGLPF and VO
  74:../Drivers/STM32L4xx_HAL_Driver/Src/stm32l4xx_hal_pwr_ex.c **** /**
  75:../Drivers/STM32L4xx_HAL_Driver/Src/stm32l4xx_hal_pwr_ex.c ****   * @}
  76:../Drivers/STM32L4xx_HAL_Driver/Src/stm32l4xx_hal_pwr_ex.c ****   */
  77:../Drivers/STM32L4xx_HAL_Driver/Src/stm32l4xx_hal_pwr_ex.c **** 
  78:../Drivers/STM32L4xx_HAL_Driver/Src/stm32l4xx_hal_pwr_ex.c **** 
  79:../Drivers/STM32L4xx_HAL_Driver/Src/stm32l4xx_hal_pwr_ex.c **** 
  80:../Drivers/STM32L4xx_HAL_Driver/Src/stm32l4xx_hal_pwr_ex.c **** /**
  81:../Drivers/STM32L4xx_HAL_Driver/Src/stm32l4xx_hal_pwr_ex.c ****   * @}
  82:../Drivers/STM32L4xx_HAL_Driver/Src/stm32l4xx_hal_pwr_ex.c ****   */
  83:../Drivers/STM32L4xx_HAL_Driver/Src/stm32l4xx_hal_pwr_ex.c **** 
  84:../Drivers/STM32L4xx_HAL_Driver/Src/stm32l4xx_hal_pwr_ex.c **** 
  85:../Drivers/STM32L4xx_HAL_Driver/Src/stm32l4xx_hal_pwr_ex.c **** 
  86:../Drivers/STM32L4xx_HAL_Driver/Src/stm32l4xx_hal_pwr_ex.c **** /* Private macro -------------------------------------------------------------*/
  87:../Drivers/STM32L4xx_HAL_Driver/Src/stm32l4xx_hal_pwr_ex.c **** /* Private variables ---------------------------------------------------------*/
  88:../Drivers/STM32L4xx_HAL_Driver/Src/stm32l4xx_hal_pwr_ex.c **** /* Private function prototypes -----------------------------------------------*/
  89:../Drivers/STM32L4xx_HAL_Driver/Src/stm32l4xx_hal_pwr_ex.c **** /* Exported functions --------------------------------------------------------*/
ARM GAS  Build/stm32l4xx_hal_pwr_ex.s 			page 3


  90:../Drivers/STM32L4xx_HAL_Driver/Src/stm32l4xx_hal_pwr_ex.c **** 
  91:../Drivers/STM32L4xx_HAL_Driver/Src/stm32l4xx_hal_pwr_ex.c **** /** @defgroup PWREx_Exported_Functions PWR Extended Exported Functions
  92:../Drivers/STM32L4xx_HAL_Driver/Src/stm32l4xx_hal_pwr_ex.c ****   * @{
  93:../Drivers/STM32L4xx_HAL_Driver/Src/stm32l4xx_hal_pwr_ex.c ****   */
  94:../Drivers/STM32L4xx_HAL_Driver/Src/stm32l4xx_hal_pwr_ex.c **** 
  95:../Drivers/STM32L4xx_HAL_Driver/Src/stm32l4xx_hal_pwr_ex.c **** /** @defgroup PWREx_Exported_Functions_Group1 Extended Peripheral Control functions
  96:../Drivers/STM32L4xx_HAL_Driver/Src/stm32l4xx_hal_pwr_ex.c ****   *  @brief   Extended Peripheral Control functions
  97:../Drivers/STM32L4xx_HAL_Driver/Src/stm32l4xx_hal_pwr_ex.c ****   *
  98:../Drivers/STM32L4xx_HAL_Driver/Src/stm32l4xx_hal_pwr_ex.c **** @verbatim
  99:../Drivers/STM32L4xx_HAL_Driver/Src/stm32l4xx_hal_pwr_ex.c ****  ===============================================================================
 100:../Drivers/STM32L4xx_HAL_Driver/Src/stm32l4xx_hal_pwr_ex.c ****               ##### Extended Peripheral Initialization and de-initialization functions #####
 101:../Drivers/STM32L4xx_HAL_Driver/Src/stm32l4xx_hal_pwr_ex.c ****  ===============================================================================
 102:../Drivers/STM32L4xx_HAL_Driver/Src/stm32l4xx_hal_pwr_ex.c ****     [..]
 103:../Drivers/STM32L4xx_HAL_Driver/Src/stm32l4xx_hal_pwr_ex.c **** 
 104:../Drivers/STM32L4xx_HAL_Driver/Src/stm32l4xx_hal_pwr_ex.c **** @endverbatim
 105:../Drivers/STM32L4xx_HAL_Driver/Src/stm32l4xx_hal_pwr_ex.c ****   * @{
 106:../Drivers/STM32L4xx_HAL_Driver/Src/stm32l4xx_hal_pwr_ex.c ****   */
 107:../Drivers/STM32L4xx_HAL_Driver/Src/stm32l4xx_hal_pwr_ex.c **** 
 108:../Drivers/STM32L4xx_HAL_Driver/Src/stm32l4xx_hal_pwr_ex.c **** 
 109:../Drivers/STM32L4xx_HAL_Driver/Src/stm32l4xx_hal_pwr_ex.c **** /**
 110:../Drivers/STM32L4xx_HAL_Driver/Src/stm32l4xx_hal_pwr_ex.c ****   * @brief Return Voltage Scaling Range.
 111:../Drivers/STM32L4xx_HAL_Driver/Src/stm32l4xx_hal_pwr_ex.c ****   * @retval VOS bit field (PWR_REGULATOR_VOLTAGE_SCALE1 or PWR_REGULATOR_VOLTAGE_SCALE2
 112:../Drivers/STM32L4xx_HAL_Driver/Src/stm32l4xx_hal_pwr_ex.c ****   *         or PWR_REGULATOR_VOLTAGE_SCALE1_BOOST when applicable)
 113:../Drivers/STM32L4xx_HAL_Driver/Src/stm32l4xx_hal_pwr_ex.c ****   */
 114:../Drivers/STM32L4xx_HAL_Driver/Src/stm32l4xx_hal_pwr_ex.c **** uint32_t HAL_PWREx_GetVoltageRange(void)
 115:../Drivers/STM32L4xx_HAL_Driver/Src/stm32l4xx_hal_pwr_ex.c **** {
  27              		.loc 1 115 1 view -0
  28              		.cfi_startproc
  29              		@ args = 0, pretend = 0, frame = 0
  30              		@ frame_needed = 0, uses_anonymous_args = 0
  31              		@ link register save eliminated.
 116:../Drivers/STM32L4xx_HAL_Driver/Src/stm32l4xx_hal_pwr_ex.c **** #if defined(PWR_CR5_R1MODE)
 117:../Drivers/STM32L4xx_HAL_Driver/Src/stm32l4xx_hal_pwr_ex.c ****     if (READ_BIT(PWR->CR1, PWR_CR1_VOS) == PWR_REGULATOR_VOLTAGE_SCALE2)
 118:../Drivers/STM32L4xx_HAL_Driver/Src/stm32l4xx_hal_pwr_ex.c ****     {
 119:../Drivers/STM32L4xx_HAL_Driver/Src/stm32l4xx_hal_pwr_ex.c ****       return PWR_REGULATOR_VOLTAGE_SCALE2;
 120:../Drivers/STM32L4xx_HAL_Driver/Src/stm32l4xx_hal_pwr_ex.c ****     }
 121:../Drivers/STM32L4xx_HAL_Driver/Src/stm32l4xx_hal_pwr_ex.c ****     else if (READ_BIT(PWR->CR5, PWR_CR5_R1MODE) == PWR_CR5_R1MODE)
 122:../Drivers/STM32L4xx_HAL_Driver/Src/stm32l4xx_hal_pwr_ex.c ****     {
 123:../Drivers/STM32L4xx_HAL_Driver/Src/stm32l4xx_hal_pwr_ex.c ****       /* PWR_CR5_R1MODE bit set means that Range 1 Boost is disabled */
 124:../Drivers/STM32L4xx_HAL_Driver/Src/stm32l4xx_hal_pwr_ex.c ****       return PWR_REGULATOR_VOLTAGE_SCALE1;
 125:../Drivers/STM32L4xx_HAL_Driver/Src/stm32l4xx_hal_pwr_ex.c ****     }
 126:../Drivers/STM32L4xx_HAL_Driver/Src/stm32l4xx_hal_pwr_ex.c ****     else
 127:../Drivers/STM32L4xx_HAL_Driver/Src/stm32l4xx_hal_pwr_ex.c ****     {
 128:../Drivers/STM32L4xx_HAL_Driver/Src/stm32l4xx_hal_pwr_ex.c ****       return PWR_REGULATOR_VOLTAGE_SCALE1_BOOST;
 129:../Drivers/STM32L4xx_HAL_Driver/Src/stm32l4xx_hal_pwr_ex.c ****     }
 130:../Drivers/STM32L4xx_HAL_Driver/Src/stm32l4xx_hal_pwr_ex.c **** #else
 131:../Drivers/STM32L4xx_HAL_Driver/Src/stm32l4xx_hal_pwr_ex.c ****   return  (PWR->CR1 & PWR_CR1_VOS);
  32              		.loc 1 131 3 view .LVU1
  33              		.loc 1 131 15 is_stmt 0 view .LVU2
  34 0000 024B     		ldr	r3, .L2
  35 0002 1868     		ldr	r0, [r3]
 132:../Drivers/STM32L4xx_HAL_Driver/Src/stm32l4xx_hal_pwr_ex.c **** #endif
 133:../Drivers/STM32L4xx_HAL_Driver/Src/stm32l4xx_hal_pwr_ex.c **** }
  36              		.loc 1 133 1 view .LVU3
  37 0004 00F4C060 		and	r0, r0, #1536
  38 0008 7047     		bx	lr
  39              	.L3:
ARM GAS  Build/stm32l4xx_hal_pwr_ex.s 			page 4


  40 000a 00BF     		.align	2
  41              	.L2:
  42 000c 00700040 		.word	1073770496
  43              		.cfi_endproc
  44              	.LFE74:
  46              		.section	.text.HAL_PWREx_ControlVoltageScaling,"ax",%progbits
  47              		.align	1
  48              		.global	HAL_PWREx_ControlVoltageScaling
  49              		.syntax unified
  50              		.thumb
  51              		.thumb_func
  53              	HAL_PWREx_ControlVoltageScaling:
  54              	.LVL0:
  55              	.LFB75:
 134:../Drivers/STM32L4xx_HAL_Driver/Src/stm32l4xx_hal_pwr_ex.c **** 
 135:../Drivers/STM32L4xx_HAL_Driver/Src/stm32l4xx_hal_pwr_ex.c **** 
 136:../Drivers/STM32L4xx_HAL_Driver/Src/stm32l4xx_hal_pwr_ex.c **** 
 137:../Drivers/STM32L4xx_HAL_Driver/Src/stm32l4xx_hal_pwr_ex.c **** /**
 138:../Drivers/STM32L4xx_HAL_Driver/Src/stm32l4xx_hal_pwr_ex.c ****   * @brief Configure the main internal regulator output voltage.
 139:../Drivers/STM32L4xx_HAL_Driver/Src/stm32l4xx_hal_pwr_ex.c ****   * @param  VoltageScaling specifies the regulator output voltage to achieve
 140:../Drivers/STM32L4xx_HAL_Driver/Src/stm32l4xx_hal_pwr_ex.c ****   *         a tradeoff between performance and power consumption.
 141:../Drivers/STM32L4xx_HAL_Driver/Src/stm32l4xx_hal_pwr_ex.c ****   *          This parameter can be one of the following values:
 142:../Drivers/STM32L4xx_HAL_Driver/Src/stm32l4xx_hal_pwr_ex.c ****   @if STM32L4S9xx
 143:../Drivers/STM32L4xx_HAL_Driver/Src/stm32l4xx_hal_pwr_ex.c ****   *            @arg @ref PWR_REGULATOR_VOLTAGE_SCALE1_BOOST when available, Regulator voltage outpu
 144:../Drivers/STM32L4xx_HAL_Driver/Src/stm32l4xx_hal_pwr_ex.c ****   *                                                typical output voltage at 1.2 V,
 145:../Drivers/STM32L4xx_HAL_Driver/Src/stm32l4xx_hal_pwr_ex.c ****   *                                                system frequency up to 120 MHz.
 146:../Drivers/STM32L4xx_HAL_Driver/Src/stm32l4xx_hal_pwr_ex.c ****   @endif
 147:../Drivers/STM32L4xx_HAL_Driver/Src/stm32l4xx_hal_pwr_ex.c ****   *            @arg @ref PWR_REGULATOR_VOLTAGE_SCALE1 Regulator voltage output range 1 mode,
 148:../Drivers/STM32L4xx_HAL_Driver/Src/stm32l4xx_hal_pwr_ex.c ****   *                                                typical output voltage at 1.2 V,
 149:../Drivers/STM32L4xx_HAL_Driver/Src/stm32l4xx_hal_pwr_ex.c ****   *                                                system frequency up to 80 MHz.
 150:../Drivers/STM32L4xx_HAL_Driver/Src/stm32l4xx_hal_pwr_ex.c ****   *            @arg @ref PWR_REGULATOR_VOLTAGE_SCALE2 Regulator voltage output range 2 mode,
 151:../Drivers/STM32L4xx_HAL_Driver/Src/stm32l4xx_hal_pwr_ex.c ****   *                                                typical output voltage at 1.0 V,
 152:../Drivers/STM32L4xx_HAL_Driver/Src/stm32l4xx_hal_pwr_ex.c ****   *                                                system frequency up to 26 MHz.
 153:../Drivers/STM32L4xx_HAL_Driver/Src/stm32l4xx_hal_pwr_ex.c ****   * @note  When moving from Range 1 to Range 2, the system frequency must be decreased to
 154:../Drivers/STM32L4xx_HAL_Driver/Src/stm32l4xx_hal_pwr_ex.c ****   *        a value below 26 MHz before calling HAL_PWREx_ControlVoltageScaling() API.
 155:../Drivers/STM32L4xx_HAL_Driver/Src/stm32l4xx_hal_pwr_ex.c ****   *        When moving from Range 2 to Range 1, the system frequency can be increased to
 156:../Drivers/STM32L4xx_HAL_Driver/Src/stm32l4xx_hal_pwr_ex.c ****   *        a value up to 80 MHz after calling HAL_PWREx_ControlVoltageScaling() API. For
 157:../Drivers/STM32L4xx_HAL_Driver/Src/stm32l4xx_hal_pwr_ex.c ****   *        some devices, the system frequency can be increased up to 120 MHz.
 158:../Drivers/STM32L4xx_HAL_Driver/Src/stm32l4xx_hal_pwr_ex.c ****   * @note  When moving from Range 2 to Range 1, the API waits for VOSF flag to be
 159:../Drivers/STM32L4xx_HAL_Driver/Src/stm32l4xx_hal_pwr_ex.c ****   *        cleared before returning the status. If the flag is not cleared within
 160:../Drivers/STM32L4xx_HAL_Driver/Src/stm32l4xx_hal_pwr_ex.c ****   *        50 microseconds, HAL_TIMEOUT status is reported.
 161:../Drivers/STM32L4xx_HAL_Driver/Src/stm32l4xx_hal_pwr_ex.c ****   * @retval HAL Status
 162:../Drivers/STM32L4xx_HAL_Driver/Src/stm32l4xx_hal_pwr_ex.c ****   */
 163:../Drivers/STM32L4xx_HAL_Driver/Src/stm32l4xx_hal_pwr_ex.c **** HAL_StatusTypeDef HAL_PWREx_ControlVoltageScaling(uint32_t VoltageScaling)
 164:../Drivers/STM32L4xx_HAL_Driver/Src/stm32l4xx_hal_pwr_ex.c **** {
  56              		.loc 1 164 1 is_stmt 1 view -0
  57              		.cfi_startproc
  58              		@ args = 0, pretend = 0, frame = 0
  59              		@ frame_needed = 0, uses_anonymous_args = 0
  60              		@ link register save eliminated.
 165:../Drivers/STM32L4xx_HAL_Driver/Src/stm32l4xx_hal_pwr_ex.c ****   uint32_t wait_loop_index;
  61              		.loc 1 165 3 view .LVU5
 166:../Drivers/STM32L4xx_HAL_Driver/Src/stm32l4xx_hal_pwr_ex.c **** 
 167:../Drivers/STM32L4xx_HAL_Driver/Src/stm32l4xx_hal_pwr_ex.c ****   assert_param(IS_PWR_VOLTAGE_SCALING_RANGE(VoltageScaling));
  62              		.loc 1 167 3 view .LVU6
 168:../Drivers/STM32L4xx_HAL_Driver/Src/stm32l4xx_hal_pwr_ex.c **** 
 169:../Drivers/STM32L4xx_HAL_Driver/Src/stm32l4xx_hal_pwr_ex.c **** #if defined(PWR_CR5_R1MODE)
ARM GAS  Build/stm32l4xx_hal_pwr_ex.s 			page 5


 170:../Drivers/STM32L4xx_HAL_Driver/Src/stm32l4xx_hal_pwr_ex.c ****   if (VoltageScaling == PWR_REGULATOR_VOLTAGE_SCALE1_BOOST)
 171:../Drivers/STM32L4xx_HAL_Driver/Src/stm32l4xx_hal_pwr_ex.c ****   {
 172:../Drivers/STM32L4xx_HAL_Driver/Src/stm32l4xx_hal_pwr_ex.c ****     /* If current range is range 2 */
 173:../Drivers/STM32L4xx_HAL_Driver/Src/stm32l4xx_hal_pwr_ex.c ****     if (READ_BIT(PWR->CR1, PWR_CR1_VOS) == PWR_REGULATOR_VOLTAGE_SCALE2)
 174:../Drivers/STM32L4xx_HAL_Driver/Src/stm32l4xx_hal_pwr_ex.c ****     {
 175:../Drivers/STM32L4xx_HAL_Driver/Src/stm32l4xx_hal_pwr_ex.c ****       /* Make sure Range 1 Boost is enabled */
 176:../Drivers/STM32L4xx_HAL_Driver/Src/stm32l4xx_hal_pwr_ex.c ****       CLEAR_BIT(PWR->CR5, PWR_CR5_R1MODE);
 177:../Drivers/STM32L4xx_HAL_Driver/Src/stm32l4xx_hal_pwr_ex.c **** 
 178:../Drivers/STM32L4xx_HAL_Driver/Src/stm32l4xx_hal_pwr_ex.c ****       /* Set Range 1 */
 179:../Drivers/STM32L4xx_HAL_Driver/Src/stm32l4xx_hal_pwr_ex.c ****       MODIFY_REG(PWR->CR1, PWR_CR1_VOS, PWR_REGULATOR_VOLTAGE_SCALE1);
 180:../Drivers/STM32L4xx_HAL_Driver/Src/stm32l4xx_hal_pwr_ex.c **** 
 181:../Drivers/STM32L4xx_HAL_Driver/Src/stm32l4xx_hal_pwr_ex.c ****       /* Wait until VOSF is cleared */
 182:../Drivers/STM32L4xx_HAL_Driver/Src/stm32l4xx_hal_pwr_ex.c ****       wait_loop_index = ((PWR_FLAG_SETTING_DELAY_US * SystemCoreClock) / 1000000U) + 1;
 183:../Drivers/STM32L4xx_HAL_Driver/Src/stm32l4xx_hal_pwr_ex.c ****       while ((HAL_IS_BIT_SET(PWR->SR2, PWR_SR2_VOSF)) && (wait_loop_index != 0U))
 184:../Drivers/STM32L4xx_HAL_Driver/Src/stm32l4xx_hal_pwr_ex.c ****       {
 185:../Drivers/STM32L4xx_HAL_Driver/Src/stm32l4xx_hal_pwr_ex.c ****         wait_loop_index--;
 186:../Drivers/STM32L4xx_HAL_Driver/Src/stm32l4xx_hal_pwr_ex.c ****       }
 187:../Drivers/STM32L4xx_HAL_Driver/Src/stm32l4xx_hal_pwr_ex.c ****       if (HAL_IS_BIT_SET(PWR->SR2, PWR_SR2_VOSF))
 188:../Drivers/STM32L4xx_HAL_Driver/Src/stm32l4xx_hal_pwr_ex.c ****       {
 189:../Drivers/STM32L4xx_HAL_Driver/Src/stm32l4xx_hal_pwr_ex.c ****         return HAL_TIMEOUT;
 190:../Drivers/STM32L4xx_HAL_Driver/Src/stm32l4xx_hal_pwr_ex.c ****       }
 191:../Drivers/STM32L4xx_HAL_Driver/Src/stm32l4xx_hal_pwr_ex.c ****     }
 192:../Drivers/STM32L4xx_HAL_Driver/Src/stm32l4xx_hal_pwr_ex.c ****     /* If current range is range 1 normal or boost mode */
 193:../Drivers/STM32L4xx_HAL_Driver/Src/stm32l4xx_hal_pwr_ex.c ****     else
 194:../Drivers/STM32L4xx_HAL_Driver/Src/stm32l4xx_hal_pwr_ex.c ****     {
 195:../Drivers/STM32L4xx_HAL_Driver/Src/stm32l4xx_hal_pwr_ex.c ****       /* Enable Range 1 Boost (no issue if bit already reset) */
 196:../Drivers/STM32L4xx_HAL_Driver/Src/stm32l4xx_hal_pwr_ex.c ****       CLEAR_BIT(PWR->CR5, PWR_CR5_R1MODE);
 197:../Drivers/STM32L4xx_HAL_Driver/Src/stm32l4xx_hal_pwr_ex.c ****     }
 198:../Drivers/STM32L4xx_HAL_Driver/Src/stm32l4xx_hal_pwr_ex.c ****   }
 199:../Drivers/STM32L4xx_HAL_Driver/Src/stm32l4xx_hal_pwr_ex.c ****   else if (VoltageScaling == PWR_REGULATOR_VOLTAGE_SCALE1)
 200:../Drivers/STM32L4xx_HAL_Driver/Src/stm32l4xx_hal_pwr_ex.c ****   {
 201:../Drivers/STM32L4xx_HAL_Driver/Src/stm32l4xx_hal_pwr_ex.c ****     /* If current range is range 2 */
 202:../Drivers/STM32L4xx_HAL_Driver/Src/stm32l4xx_hal_pwr_ex.c ****     if (READ_BIT(PWR->CR1, PWR_CR1_VOS) == PWR_REGULATOR_VOLTAGE_SCALE2)
 203:../Drivers/STM32L4xx_HAL_Driver/Src/stm32l4xx_hal_pwr_ex.c ****     {
 204:../Drivers/STM32L4xx_HAL_Driver/Src/stm32l4xx_hal_pwr_ex.c ****       /* Make sure Range 1 Boost is disabled */
 205:../Drivers/STM32L4xx_HAL_Driver/Src/stm32l4xx_hal_pwr_ex.c ****       SET_BIT(PWR->CR5, PWR_CR5_R1MODE);
 206:../Drivers/STM32L4xx_HAL_Driver/Src/stm32l4xx_hal_pwr_ex.c **** 
 207:../Drivers/STM32L4xx_HAL_Driver/Src/stm32l4xx_hal_pwr_ex.c ****       /* Set Range 1 */
 208:../Drivers/STM32L4xx_HAL_Driver/Src/stm32l4xx_hal_pwr_ex.c ****       MODIFY_REG(PWR->CR1, PWR_CR1_VOS, PWR_REGULATOR_VOLTAGE_SCALE1);
 209:../Drivers/STM32L4xx_HAL_Driver/Src/stm32l4xx_hal_pwr_ex.c **** 
 210:../Drivers/STM32L4xx_HAL_Driver/Src/stm32l4xx_hal_pwr_ex.c ****       /* Wait until VOSF is cleared */
 211:../Drivers/STM32L4xx_HAL_Driver/Src/stm32l4xx_hal_pwr_ex.c ****       wait_loop_index = ((PWR_FLAG_SETTING_DELAY_US * SystemCoreClock) / 1000000U) + 1;
 212:../Drivers/STM32L4xx_HAL_Driver/Src/stm32l4xx_hal_pwr_ex.c ****       while ((HAL_IS_BIT_SET(PWR->SR2, PWR_SR2_VOSF)) && (wait_loop_index != 0U))
 213:../Drivers/STM32L4xx_HAL_Driver/Src/stm32l4xx_hal_pwr_ex.c ****       {
 214:../Drivers/STM32L4xx_HAL_Driver/Src/stm32l4xx_hal_pwr_ex.c ****         wait_loop_index--;
 215:../Drivers/STM32L4xx_HAL_Driver/Src/stm32l4xx_hal_pwr_ex.c ****       }
 216:../Drivers/STM32L4xx_HAL_Driver/Src/stm32l4xx_hal_pwr_ex.c ****       if (HAL_IS_BIT_SET(PWR->SR2, PWR_SR2_VOSF))
 217:../Drivers/STM32L4xx_HAL_Driver/Src/stm32l4xx_hal_pwr_ex.c ****       {
 218:../Drivers/STM32L4xx_HAL_Driver/Src/stm32l4xx_hal_pwr_ex.c ****         return HAL_TIMEOUT;
 219:../Drivers/STM32L4xx_HAL_Driver/Src/stm32l4xx_hal_pwr_ex.c ****       }
 220:../Drivers/STM32L4xx_HAL_Driver/Src/stm32l4xx_hal_pwr_ex.c ****     }
 221:../Drivers/STM32L4xx_HAL_Driver/Src/stm32l4xx_hal_pwr_ex.c ****      /* If current range is range 1 normal or boost mode */
 222:../Drivers/STM32L4xx_HAL_Driver/Src/stm32l4xx_hal_pwr_ex.c ****     else
 223:../Drivers/STM32L4xx_HAL_Driver/Src/stm32l4xx_hal_pwr_ex.c ****     {
 224:../Drivers/STM32L4xx_HAL_Driver/Src/stm32l4xx_hal_pwr_ex.c ****       /* Disable Range 1 Boost (no issue if bit already set) */
 225:../Drivers/STM32L4xx_HAL_Driver/Src/stm32l4xx_hal_pwr_ex.c ****       SET_BIT(PWR->CR5, PWR_CR5_R1MODE);
 226:../Drivers/STM32L4xx_HAL_Driver/Src/stm32l4xx_hal_pwr_ex.c ****     }
ARM GAS  Build/stm32l4xx_hal_pwr_ex.s 			page 6


 227:../Drivers/STM32L4xx_HAL_Driver/Src/stm32l4xx_hal_pwr_ex.c ****   }
 228:../Drivers/STM32L4xx_HAL_Driver/Src/stm32l4xx_hal_pwr_ex.c ****   else
 229:../Drivers/STM32L4xx_HAL_Driver/Src/stm32l4xx_hal_pwr_ex.c ****   {
 230:../Drivers/STM32L4xx_HAL_Driver/Src/stm32l4xx_hal_pwr_ex.c ****     /* Set Range 2 */
 231:../Drivers/STM32L4xx_HAL_Driver/Src/stm32l4xx_hal_pwr_ex.c ****     MODIFY_REG(PWR->CR1, PWR_CR1_VOS, PWR_REGULATOR_VOLTAGE_SCALE2);
 232:../Drivers/STM32L4xx_HAL_Driver/Src/stm32l4xx_hal_pwr_ex.c ****     /* No need to wait for VOSF to be cleared for this transition */
 233:../Drivers/STM32L4xx_HAL_Driver/Src/stm32l4xx_hal_pwr_ex.c ****     /* PWR_CR5_R1MODE bit setting has no effect in Range 2        */
 234:../Drivers/STM32L4xx_HAL_Driver/Src/stm32l4xx_hal_pwr_ex.c ****   }
 235:../Drivers/STM32L4xx_HAL_Driver/Src/stm32l4xx_hal_pwr_ex.c **** 
 236:../Drivers/STM32L4xx_HAL_Driver/Src/stm32l4xx_hal_pwr_ex.c **** #else
 237:../Drivers/STM32L4xx_HAL_Driver/Src/stm32l4xx_hal_pwr_ex.c **** 
 238:../Drivers/STM32L4xx_HAL_Driver/Src/stm32l4xx_hal_pwr_ex.c ****   /* If Set Range 1 */
 239:../Drivers/STM32L4xx_HAL_Driver/Src/stm32l4xx_hal_pwr_ex.c ****   if (VoltageScaling == PWR_REGULATOR_VOLTAGE_SCALE1)
  63              		.loc 1 239 3 view .LVU7
  64              		.loc 1 239 6 is_stmt 0 view .LVU8
  65 0000 B0F5007F 		cmp	r0, #512
  66 0004 0FD0     		beq	.L13
 240:../Drivers/STM32L4xx_HAL_Driver/Src/stm32l4xx_hal_pwr_ex.c ****   {
 241:../Drivers/STM32L4xx_HAL_Driver/Src/stm32l4xx_hal_pwr_ex.c ****     if (READ_BIT(PWR->CR1, PWR_CR1_VOS) != PWR_REGULATOR_VOLTAGE_SCALE1)
 242:../Drivers/STM32L4xx_HAL_Driver/Src/stm32l4xx_hal_pwr_ex.c ****     {
 243:../Drivers/STM32L4xx_HAL_Driver/Src/stm32l4xx_hal_pwr_ex.c ****       /* Set Range 1 */
 244:../Drivers/STM32L4xx_HAL_Driver/Src/stm32l4xx_hal_pwr_ex.c ****       MODIFY_REG(PWR->CR1, PWR_CR1_VOS, PWR_REGULATOR_VOLTAGE_SCALE1);
 245:../Drivers/STM32L4xx_HAL_Driver/Src/stm32l4xx_hal_pwr_ex.c **** 
 246:../Drivers/STM32L4xx_HAL_Driver/Src/stm32l4xx_hal_pwr_ex.c ****       /* Wait until VOSF is cleared */
 247:../Drivers/STM32L4xx_HAL_Driver/Src/stm32l4xx_hal_pwr_ex.c ****       wait_loop_index = ((PWR_FLAG_SETTING_DELAY_US * SystemCoreClock) / 1000000U) + 1U;
 248:../Drivers/STM32L4xx_HAL_Driver/Src/stm32l4xx_hal_pwr_ex.c ****       while ((HAL_IS_BIT_SET(PWR->SR2, PWR_SR2_VOSF)) && (wait_loop_index != 0U))
 249:../Drivers/STM32L4xx_HAL_Driver/Src/stm32l4xx_hal_pwr_ex.c ****       {
 250:../Drivers/STM32L4xx_HAL_Driver/Src/stm32l4xx_hal_pwr_ex.c ****         wait_loop_index--;
 251:../Drivers/STM32L4xx_HAL_Driver/Src/stm32l4xx_hal_pwr_ex.c ****       }
 252:../Drivers/STM32L4xx_HAL_Driver/Src/stm32l4xx_hal_pwr_ex.c ****       if (HAL_IS_BIT_SET(PWR->SR2, PWR_SR2_VOSF))
 253:../Drivers/STM32L4xx_HAL_Driver/Src/stm32l4xx_hal_pwr_ex.c ****       {
 254:../Drivers/STM32L4xx_HAL_Driver/Src/stm32l4xx_hal_pwr_ex.c ****         return HAL_TIMEOUT;
 255:../Drivers/STM32L4xx_HAL_Driver/Src/stm32l4xx_hal_pwr_ex.c ****       }
 256:../Drivers/STM32L4xx_HAL_Driver/Src/stm32l4xx_hal_pwr_ex.c ****     }
 257:../Drivers/STM32L4xx_HAL_Driver/Src/stm32l4xx_hal_pwr_ex.c ****   }
 258:../Drivers/STM32L4xx_HAL_Driver/Src/stm32l4xx_hal_pwr_ex.c ****   else
 259:../Drivers/STM32L4xx_HAL_Driver/Src/stm32l4xx_hal_pwr_ex.c ****   {
 260:../Drivers/STM32L4xx_HAL_Driver/Src/stm32l4xx_hal_pwr_ex.c ****     if (READ_BIT(PWR->CR1, PWR_CR1_VOS) != PWR_REGULATOR_VOLTAGE_SCALE2)
  67              		.loc 1 260 5 is_stmt 1 view .LVU9
  68              		.loc 1 260 9 is_stmt 0 view .LVU10
  69 0006 1F4B     		ldr	r3, .L14
  70 0008 1B68     		ldr	r3, [r3]
  71 000a 03F4C063 		and	r3, r3, #1536
  72              		.loc 1 260 8 view .LVU11
  73 000e B3F5806F 		cmp	r3, #1024
  74 0012 34D0     		beq	.L12
 261:../Drivers/STM32L4xx_HAL_Driver/Src/stm32l4xx_hal_pwr_ex.c ****     {
 262:../Drivers/STM32L4xx_HAL_Driver/Src/stm32l4xx_hal_pwr_ex.c ****       /* Set Range 2 */
 263:../Drivers/STM32L4xx_HAL_Driver/Src/stm32l4xx_hal_pwr_ex.c ****       MODIFY_REG(PWR->CR1, PWR_CR1_VOS, PWR_REGULATOR_VOLTAGE_SCALE2);
  75              		.loc 1 263 7 is_stmt 1 view .LVU12
  76 0014 1B4A     		ldr	r2, .L14
  77 0016 1368     		ldr	r3, [r2]
  78 0018 23F4C063 		bic	r3, r3, #1536
  79 001c 43F48063 		orr	r3, r3, #1024
  80 0020 1360     		str	r3, [r2]
 264:../Drivers/STM32L4xx_HAL_Driver/Src/stm32l4xx_hal_pwr_ex.c ****       /* No need to wait for VOSF to be cleared for this transition */
 265:../Drivers/STM32L4xx_HAL_Driver/Src/stm32l4xx_hal_pwr_ex.c ****     }
ARM GAS  Build/stm32l4xx_hal_pwr_ex.s 			page 7


 266:../Drivers/STM32L4xx_HAL_Driver/Src/stm32l4xx_hal_pwr_ex.c ****   }
 267:../Drivers/STM32L4xx_HAL_Driver/Src/stm32l4xx_hal_pwr_ex.c **** #endif
 268:../Drivers/STM32L4xx_HAL_Driver/Src/stm32l4xx_hal_pwr_ex.c **** 
 269:../Drivers/STM32L4xx_HAL_Driver/Src/stm32l4xx_hal_pwr_ex.c ****   return HAL_OK;
  81              		.loc 1 269 10 is_stmt 0 view .LVU13
  82 0022 0020     		movs	r0, #0
  83              	.LVL1:
  84              		.loc 1 269 10 view .LVU14
  85 0024 7047     		bx	lr
  86              	.LVL2:
  87              	.L13:
 241:../Drivers/STM32L4xx_HAL_Driver/Src/stm32l4xx_hal_pwr_ex.c ****     {
  88              		.loc 1 241 5 is_stmt 1 view .LVU15
 241:../Drivers/STM32L4xx_HAL_Driver/Src/stm32l4xx_hal_pwr_ex.c ****     {
  89              		.loc 1 241 9 is_stmt 0 view .LVU16
  90 0026 174B     		ldr	r3, .L14
  91 0028 1B68     		ldr	r3, [r3]
  92 002a 03F4C063 		and	r3, r3, #1536
 241:../Drivers/STM32L4xx_HAL_Driver/Src/stm32l4xx_hal_pwr_ex.c ****     {
  93              		.loc 1 241 8 view .LVU17
  94 002e B3F5007F 		cmp	r3, #512
  95 0032 20D0     		beq	.L10
 244:../Drivers/STM32L4xx_HAL_Driver/Src/stm32l4xx_hal_pwr_ex.c **** 
  96              		.loc 1 244 7 is_stmt 1 view .LVU18
  97 0034 134A     		ldr	r2, .L14
  98 0036 1368     		ldr	r3, [r2]
  99 0038 23F4C063 		bic	r3, r3, #1536
 100 003c 43F40073 		orr	r3, r3, #512
 101 0040 1360     		str	r3, [r2]
 247:../Drivers/STM32L4xx_HAL_Driver/Src/stm32l4xx_hal_pwr_ex.c ****       while ((HAL_IS_BIT_SET(PWR->SR2, PWR_SR2_VOSF)) && (wait_loop_index != 0U))
 102              		.loc 1 247 7 view .LVU19
 247:../Drivers/STM32L4xx_HAL_Driver/Src/stm32l4xx_hal_pwr_ex.c ****       while ((HAL_IS_BIT_SET(PWR->SR2, PWR_SR2_VOSF)) && (wait_loop_index != 0U))
 103              		.loc 1 247 53 is_stmt 0 view .LVU20
 104 0042 114B     		ldr	r3, .L14+4
 105 0044 1B68     		ldr	r3, [r3]
 106 0046 3222     		movs	r2, #50
 107 0048 02FB03F3 		mul	r3, r2, r3
 247:../Drivers/STM32L4xx_HAL_Driver/Src/stm32l4xx_hal_pwr_ex.c ****       while ((HAL_IS_BIT_SET(PWR->SR2, PWR_SR2_VOSF)) && (wait_loop_index != 0U))
 108              		.loc 1 247 72 view .LVU21
 109 004c 0F4A     		ldr	r2, .L14+8
 110 004e A2FB0323 		umull	r2, r3, r2, r3
 111 0052 9B0C     		lsrs	r3, r3, #18
 247:../Drivers/STM32L4xx_HAL_Driver/Src/stm32l4xx_hal_pwr_ex.c ****       while ((HAL_IS_BIT_SET(PWR->SR2, PWR_SR2_VOSF)) && (wait_loop_index != 0U))
 112              		.loc 1 247 23 view .LVU22
 113 0054 0133     		adds	r3, r3, #1
 114              	.LVL3:
 248:../Drivers/STM32L4xx_HAL_Driver/Src/stm32l4xx_hal_pwr_ex.c ****       {
 115              		.loc 1 248 7 is_stmt 1 view .LVU23
 248:../Drivers/STM32L4xx_HAL_Driver/Src/stm32l4xx_hal_pwr_ex.c ****       {
 116              		.loc 1 248 13 is_stmt 0 view .LVU24
 117 0056 00E0     		b	.L7
 118              	.L9:
 250:../Drivers/STM32L4xx_HAL_Driver/Src/stm32l4xx_hal_pwr_ex.c ****       }
 119              		.loc 1 250 9 is_stmt 1 view .LVU25
 250:../Drivers/STM32L4xx_HAL_Driver/Src/stm32l4xx_hal_pwr_ex.c ****       }
 120              		.loc 1 250 24 is_stmt 0 view .LVU26
 121 0058 013B     		subs	r3, r3, #1
ARM GAS  Build/stm32l4xx_hal_pwr_ex.s 			page 8


 122              	.LVL4:
 123              	.L7:
 248:../Drivers/STM32L4xx_HAL_Driver/Src/stm32l4xx_hal_pwr_ex.c ****       {
 124              		.loc 1 248 55 is_stmt 1 view .LVU27
 248:../Drivers/STM32L4xx_HAL_Driver/Src/stm32l4xx_hal_pwr_ex.c ****       {
 125              		.loc 1 248 15 is_stmt 0 view .LVU28
 126 005a 0A4A     		ldr	r2, .L14
 127 005c 5269     		ldr	r2, [r2, #20]
 248:../Drivers/STM32L4xx_HAL_Driver/Src/stm32l4xx_hal_pwr_ex.c ****       {
 128              		.loc 1 248 55 view .LVU29
 129 005e 12F4806F 		tst	r2, #1024
 130 0062 01D0     		beq	.L8
 248:../Drivers/STM32L4xx_HAL_Driver/Src/stm32l4xx_hal_pwr_ex.c ****       {
 131              		.loc 1 248 55 discriminator 1 view .LVU30
 132 0064 002B     		cmp	r3, #0
 133 0066 F7D1     		bne	.L9
 134              	.L8:
 252:../Drivers/STM32L4xx_HAL_Driver/Src/stm32l4xx_hal_pwr_ex.c ****       {
 135              		.loc 1 252 7 is_stmt 1 view .LVU31
 252:../Drivers/STM32L4xx_HAL_Driver/Src/stm32l4xx_hal_pwr_ex.c ****       {
 136              		.loc 1 252 11 is_stmt 0 view .LVU32
 137 0068 064B     		ldr	r3, .L14
 138              	.LVL5:
 252:../Drivers/STM32L4xx_HAL_Driver/Src/stm32l4xx_hal_pwr_ex.c ****       {
 139              		.loc 1 252 11 view .LVU33
 140 006a 5B69     		ldr	r3, [r3, #20]
 252:../Drivers/STM32L4xx_HAL_Driver/Src/stm32l4xx_hal_pwr_ex.c ****       {
 141              		.loc 1 252 10 view .LVU34
 142 006c 13F4806F 		tst	r3, #1024
 143 0070 03D1     		bne	.L11
 144              		.loc 1 269 10 view .LVU35
 145 0072 0020     		movs	r0, #0
 146              	.LVL6:
 147              		.loc 1 269 10 view .LVU36
 148 0074 7047     		bx	lr
 149              	.LVL7:
 150              	.L10:
 151              		.loc 1 269 10 view .LVU37
 152 0076 0020     		movs	r0, #0
 153              	.LVL8:
 154              		.loc 1 269 10 view .LVU38
 155 0078 7047     		bx	lr
 156              	.LVL9:
 157              	.L11:
 254:../Drivers/STM32L4xx_HAL_Driver/Src/stm32l4xx_hal_pwr_ex.c ****       }
 158              		.loc 1 254 16 view .LVU39
 159 007a 0320     		movs	r0, #3
 160              	.LVL10:
 254:../Drivers/STM32L4xx_HAL_Driver/Src/stm32l4xx_hal_pwr_ex.c ****       }
 161              		.loc 1 254 16 view .LVU40
 162 007c 7047     		bx	lr
 163              	.LVL11:
 164              	.L12:
 165              		.loc 1 269 10 view .LVU41
 166 007e 0020     		movs	r0, #0
 167              	.LVL12:
 270:../Drivers/STM32L4xx_HAL_Driver/Src/stm32l4xx_hal_pwr_ex.c **** }
ARM GAS  Build/stm32l4xx_hal_pwr_ex.s 			page 9


 168              		.loc 1 270 1 view .LVU42
 169 0080 7047     		bx	lr
 170              	.L15:
 171 0082 00BF     		.align	2
 172              	.L14:
 173 0084 00700040 		.word	1073770496
 174 0088 00000000 		.word	SystemCoreClock
 175 008c 83DE1B43 		.word	1125899907
 176              		.cfi_endproc
 177              	.LFE75:
 179              		.section	.text.HAL_PWREx_EnableBatteryCharging,"ax",%progbits
 180              		.align	1
 181              		.global	HAL_PWREx_EnableBatteryCharging
 182              		.syntax unified
 183              		.thumb
 184              		.thumb_func
 186              	HAL_PWREx_EnableBatteryCharging:
 187              	.LVL13:
 188              	.LFB76:
 271:../Drivers/STM32L4xx_HAL_Driver/Src/stm32l4xx_hal_pwr_ex.c **** 
 272:../Drivers/STM32L4xx_HAL_Driver/Src/stm32l4xx_hal_pwr_ex.c **** 
 273:../Drivers/STM32L4xx_HAL_Driver/Src/stm32l4xx_hal_pwr_ex.c **** /**
 274:../Drivers/STM32L4xx_HAL_Driver/Src/stm32l4xx_hal_pwr_ex.c ****   * @brief Enable battery charging.
 275:../Drivers/STM32L4xx_HAL_Driver/Src/stm32l4xx_hal_pwr_ex.c ****   *        When VDD is present, charge the external battery on VBAT through an internal resistor.
 276:../Drivers/STM32L4xx_HAL_Driver/Src/stm32l4xx_hal_pwr_ex.c ****   * @param  ResistorSelection specifies the resistor impedance.
 277:../Drivers/STM32L4xx_HAL_Driver/Src/stm32l4xx_hal_pwr_ex.c ****   *          This parameter can be one of the following values:
 278:../Drivers/STM32L4xx_HAL_Driver/Src/stm32l4xx_hal_pwr_ex.c ****   *            @arg @ref PWR_BATTERY_CHARGING_RESISTOR_5     5 kOhms resistor
 279:../Drivers/STM32L4xx_HAL_Driver/Src/stm32l4xx_hal_pwr_ex.c ****   *            @arg @ref PWR_BATTERY_CHARGING_RESISTOR_1_5 1.5 kOhms resistor
 280:../Drivers/STM32L4xx_HAL_Driver/Src/stm32l4xx_hal_pwr_ex.c ****   * @retval None
 281:../Drivers/STM32L4xx_HAL_Driver/Src/stm32l4xx_hal_pwr_ex.c ****   */
 282:../Drivers/STM32L4xx_HAL_Driver/Src/stm32l4xx_hal_pwr_ex.c **** void HAL_PWREx_EnableBatteryCharging(uint32_t ResistorSelection)
 283:../Drivers/STM32L4xx_HAL_Driver/Src/stm32l4xx_hal_pwr_ex.c **** {
 189              		.loc 1 283 1 is_stmt 1 view -0
 190              		.cfi_startproc
 191              		@ args = 0, pretend = 0, frame = 0
 192              		@ frame_needed = 0, uses_anonymous_args = 0
 193              		@ link register save eliminated.
 284:../Drivers/STM32L4xx_HAL_Driver/Src/stm32l4xx_hal_pwr_ex.c ****   assert_param(IS_PWR_BATTERY_RESISTOR_SELECT(ResistorSelection));
 194              		.loc 1 284 3 view .LVU44
 285:../Drivers/STM32L4xx_HAL_Driver/Src/stm32l4xx_hal_pwr_ex.c **** 
 286:../Drivers/STM32L4xx_HAL_Driver/Src/stm32l4xx_hal_pwr_ex.c ****   /* Specify resistor selection */
 287:../Drivers/STM32L4xx_HAL_Driver/Src/stm32l4xx_hal_pwr_ex.c ****   MODIFY_REG(PWR->CR4, PWR_CR4_VBRS, ResistorSelection);
 195              		.loc 1 287 3 view .LVU45
 196 0000 054A     		ldr	r2, .L17
 197 0002 D368     		ldr	r3, [r2, #12]
 198 0004 23F40073 		bic	r3, r3, #512
 199 0008 0343     		orrs	r3, r3, r0
 200 000a D360     		str	r3, [r2, #12]
 288:../Drivers/STM32L4xx_HAL_Driver/Src/stm32l4xx_hal_pwr_ex.c **** 
 289:../Drivers/STM32L4xx_HAL_Driver/Src/stm32l4xx_hal_pwr_ex.c ****   /* Enable battery charging */
 290:../Drivers/STM32L4xx_HAL_Driver/Src/stm32l4xx_hal_pwr_ex.c ****   SET_BIT(PWR->CR4, PWR_CR4_VBE);
 201              		.loc 1 290 3 view .LVU46
 202 000c D368     		ldr	r3, [r2, #12]
 203 000e 43F48073 		orr	r3, r3, #256
 204 0012 D360     		str	r3, [r2, #12]
 291:../Drivers/STM32L4xx_HAL_Driver/Src/stm32l4xx_hal_pwr_ex.c **** }
 205              		.loc 1 291 1 is_stmt 0 view .LVU47
ARM GAS  Build/stm32l4xx_hal_pwr_ex.s 			page 10


 206 0014 7047     		bx	lr
 207              	.L18:
 208 0016 00BF     		.align	2
 209              	.L17:
 210 0018 00700040 		.word	1073770496
 211              		.cfi_endproc
 212              	.LFE76:
 214              		.section	.text.HAL_PWREx_DisableBatteryCharging,"ax",%progbits
 215              		.align	1
 216              		.global	HAL_PWREx_DisableBatteryCharging
 217              		.syntax unified
 218              		.thumb
 219              		.thumb_func
 221              	HAL_PWREx_DisableBatteryCharging:
 222              	.LFB77:
 292:../Drivers/STM32L4xx_HAL_Driver/Src/stm32l4xx_hal_pwr_ex.c **** 
 293:../Drivers/STM32L4xx_HAL_Driver/Src/stm32l4xx_hal_pwr_ex.c **** 
 294:../Drivers/STM32L4xx_HAL_Driver/Src/stm32l4xx_hal_pwr_ex.c **** /**
 295:../Drivers/STM32L4xx_HAL_Driver/Src/stm32l4xx_hal_pwr_ex.c ****   * @brief Disable battery charging.
 296:../Drivers/STM32L4xx_HAL_Driver/Src/stm32l4xx_hal_pwr_ex.c ****   * @retval None
 297:../Drivers/STM32L4xx_HAL_Driver/Src/stm32l4xx_hal_pwr_ex.c ****   */
 298:../Drivers/STM32L4xx_HAL_Driver/Src/stm32l4xx_hal_pwr_ex.c **** void HAL_PWREx_DisableBatteryCharging(void)
 299:../Drivers/STM32L4xx_HAL_Driver/Src/stm32l4xx_hal_pwr_ex.c **** {
 223              		.loc 1 299 1 is_stmt 1 view -0
 224              		.cfi_startproc
 225              		@ args = 0, pretend = 0, frame = 0
 226              		@ frame_needed = 0, uses_anonymous_args = 0
 227              		@ link register save eliminated.
 300:../Drivers/STM32L4xx_HAL_Driver/Src/stm32l4xx_hal_pwr_ex.c ****   CLEAR_BIT(PWR->CR4, PWR_CR4_VBE);
 228              		.loc 1 300 3 view .LVU49
 229 0000 024A     		ldr	r2, .L20
 230 0002 D368     		ldr	r3, [r2, #12]
 231 0004 23F48073 		bic	r3, r3, #256
 232 0008 D360     		str	r3, [r2, #12]
 301:../Drivers/STM32L4xx_HAL_Driver/Src/stm32l4xx_hal_pwr_ex.c **** }
 233              		.loc 1 301 1 is_stmt 0 view .LVU50
 234 000a 7047     		bx	lr
 235              	.L21:
 236              		.align	2
 237              	.L20:
 238 000c 00700040 		.word	1073770496
 239              		.cfi_endproc
 240              	.LFE77:
 242              		.section	.text.HAL_PWREx_EnableVddUSB,"ax",%progbits
 243              		.align	1
 244              		.global	HAL_PWREx_EnableVddUSB
 245              		.syntax unified
 246              		.thumb
 247              		.thumb_func
 249              	HAL_PWREx_EnableVddUSB:
 250              	.LFB78:
 302:../Drivers/STM32L4xx_HAL_Driver/Src/stm32l4xx_hal_pwr_ex.c **** 
 303:../Drivers/STM32L4xx_HAL_Driver/Src/stm32l4xx_hal_pwr_ex.c **** 
 304:../Drivers/STM32L4xx_HAL_Driver/Src/stm32l4xx_hal_pwr_ex.c **** #if defined(PWR_CR2_USV)
 305:../Drivers/STM32L4xx_HAL_Driver/Src/stm32l4xx_hal_pwr_ex.c **** /**
 306:../Drivers/STM32L4xx_HAL_Driver/Src/stm32l4xx_hal_pwr_ex.c ****   * @brief Enable VDDUSB supply.
 307:../Drivers/STM32L4xx_HAL_Driver/Src/stm32l4xx_hal_pwr_ex.c ****   * @note  Remove VDDUSB electrical and logical isolation, once VDDUSB supply is present.
ARM GAS  Build/stm32l4xx_hal_pwr_ex.s 			page 11


 308:../Drivers/STM32L4xx_HAL_Driver/Src/stm32l4xx_hal_pwr_ex.c ****   * @retval None
 309:../Drivers/STM32L4xx_HAL_Driver/Src/stm32l4xx_hal_pwr_ex.c ****   */
 310:../Drivers/STM32L4xx_HAL_Driver/Src/stm32l4xx_hal_pwr_ex.c **** void HAL_PWREx_EnableVddUSB(void)
 311:../Drivers/STM32L4xx_HAL_Driver/Src/stm32l4xx_hal_pwr_ex.c **** {
 251              		.loc 1 311 1 is_stmt 1 view -0
 252              		.cfi_startproc
 253              		@ args = 0, pretend = 0, frame = 0
 254              		@ frame_needed = 0, uses_anonymous_args = 0
 255              		@ link register save eliminated.
 312:../Drivers/STM32L4xx_HAL_Driver/Src/stm32l4xx_hal_pwr_ex.c ****   SET_BIT(PWR->CR2, PWR_CR2_USV);
 256              		.loc 1 312 3 view .LVU52
 257 0000 024A     		ldr	r2, .L23
 258 0002 5368     		ldr	r3, [r2, #4]
 259 0004 43F48063 		orr	r3, r3, #1024
 260 0008 5360     		str	r3, [r2, #4]
 313:../Drivers/STM32L4xx_HAL_Driver/Src/stm32l4xx_hal_pwr_ex.c **** }
 261              		.loc 1 313 1 is_stmt 0 view .LVU53
 262 000a 7047     		bx	lr
 263              	.L24:
 264              		.align	2
 265              	.L23:
 266 000c 00700040 		.word	1073770496
 267              		.cfi_endproc
 268              	.LFE78:
 270              		.section	.text.HAL_PWREx_DisableVddUSB,"ax",%progbits
 271              		.align	1
 272              		.global	HAL_PWREx_DisableVddUSB
 273              		.syntax unified
 274              		.thumb
 275              		.thumb_func
 277              	HAL_PWREx_DisableVddUSB:
 278              	.LFB79:
 314:../Drivers/STM32L4xx_HAL_Driver/Src/stm32l4xx_hal_pwr_ex.c **** 
 315:../Drivers/STM32L4xx_HAL_Driver/Src/stm32l4xx_hal_pwr_ex.c **** 
 316:../Drivers/STM32L4xx_HAL_Driver/Src/stm32l4xx_hal_pwr_ex.c **** /**
 317:../Drivers/STM32L4xx_HAL_Driver/Src/stm32l4xx_hal_pwr_ex.c ****   * @brief Disable VDDUSB supply.
 318:../Drivers/STM32L4xx_HAL_Driver/Src/stm32l4xx_hal_pwr_ex.c ****   * @retval None
 319:../Drivers/STM32L4xx_HAL_Driver/Src/stm32l4xx_hal_pwr_ex.c ****   */
 320:../Drivers/STM32L4xx_HAL_Driver/Src/stm32l4xx_hal_pwr_ex.c **** void HAL_PWREx_DisableVddUSB(void)
 321:../Drivers/STM32L4xx_HAL_Driver/Src/stm32l4xx_hal_pwr_ex.c **** {
 279              		.loc 1 321 1 is_stmt 1 view -0
 280              		.cfi_startproc
 281              		@ args = 0, pretend = 0, frame = 0
 282              		@ frame_needed = 0, uses_anonymous_args = 0
 283              		@ link register save eliminated.
 322:../Drivers/STM32L4xx_HAL_Driver/Src/stm32l4xx_hal_pwr_ex.c ****   CLEAR_BIT(PWR->CR2, PWR_CR2_USV);
 284              		.loc 1 322 3 view .LVU55
 285 0000 024A     		ldr	r2, .L26
 286 0002 5368     		ldr	r3, [r2, #4]
 287 0004 23F48063 		bic	r3, r3, #1024
 288 0008 5360     		str	r3, [r2, #4]
 323:../Drivers/STM32L4xx_HAL_Driver/Src/stm32l4xx_hal_pwr_ex.c **** }
 289              		.loc 1 323 1 is_stmt 0 view .LVU56
 290 000a 7047     		bx	lr
 291              	.L27:
 292              		.align	2
 293              	.L26:
ARM GAS  Build/stm32l4xx_hal_pwr_ex.s 			page 12


 294 000c 00700040 		.word	1073770496
 295              		.cfi_endproc
 296              	.LFE79:
 298              		.section	.text.HAL_PWREx_EnableVddIO2,"ax",%progbits
 299              		.align	1
 300              		.global	HAL_PWREx_EnableVddIO2
 301              		.syntax unified
 302              		.thumb
 303              		.thumb_func
 305              	HAL_PWREx_EnableVddIO2:
 306              	.LFB80:
 324:../Drivers/STM32L4xx_HAL_Driver/Src/stm32l4xx_hal_pwr_ex.c **** #endif /* PWR_CR2_USV */
 325:../Drivers/STM32L4xx_HAL_Driver/Src/stm32l4xx_hal_pwr_ex.c **** 
 326:../Drivers/STM32L4xx_HAL_Driver/Src/stm32l4xx_hal_pwr_ex.c **** #if defined(PWR_CR2_IOSV)
 327:../Drivers/STM32L4xx_HAL_Driver/Src/stm32l4xx_hal_pwr_ex.c **** /**
 328:../Drivers/STM32L4xx_HAL_Driver/Src/stm32l4xx_hal_pwr_ex.c ****   * @brief Enable VDDIO2 supply.
 329:../Drivers/STM32L4xx_HAL_Driver/Src/stm32l4xx_hal_pwr_ex.c ****   * @note  Remove VDDIO2 electrical and logical isolation, once VDDIO2 supply is present.
 330:../Drivers/STM32L4xx_HAL_Driver/Src/stm32l4xx_hal_pwr_ex.c ****   * @retval None
 331:../Drivers/STM32L4xx_HAL_Driver/Src/stm32l4xx_hal_pwr_ex.c ****   */
 332:../Drivers/STM32L4xx_HAL_Driver/Src/stm32l4xx_hal_pwr_ex.c **** void HAL_PWREx_EnableVddIO2(void)
 333:../Drivers/STM32L4xx_HAL_Driver/Src/stm32l4xx_hal_pwr_ex.c **** {
 307              		.loc 1 333 1 is_stmt 1 view -0
 308              		.cfi_startproc
 309              		@ args = 0, pretend = 0, frame = 0
 310              		@ frame_needed = 0, uses_anonymous_args = 0
 311              		@ link register save eliminated.
 334:../Drivers/STM32L4xx_HAL_Driver/Src/stm32l4xx_hal_pwr_ex.c ****   SET_BIT(PWR->CR2, PWR_CR2_IOSV);
 312              		.loc 1 334 3 view .LVU58
 313 0000 024A     		ldr	r2, .L29
 314 0002 5368     		ldr	r3, [r2, #4]
 315 0004 43F40073 		orr	r3, r3, #512
 316 0008 5360     		str	r3, [r2, #4]
 335:../Drivers/STM32L4xx_HAL_Driver/Src/stm32l4xx_hal_pwr_ex.c **** }
 317              		.loc 1 335 1 is_stmt 0 view .LVU59
 318 000a 7047     		bx	lr
 319              	.L30:
 320              		.align	2
 321              	.L29:
 322 000c 00700040 		.word	1073770496
 323              		.cfi_endproc
 324              	.LFE80:
 326              		.section	.text.HAL_PWREx_DisableVddIO2,"ax",%progbits
 327              		.align	1
 328              		.global	HAL_PWREx_DisableVddIO2
 329              		.syntax unified
 330              		.thumb
 331              		.thumb_func
 333              	HAL_PWREx_DisableVddIO2:
 334              	.LFB81:
 336:../Drivers/STM32L4xx_HAL_Driver/Src/stm32l4xx_hal_pwr_ex.c **** 
 337:../Drivers/STM32L4xx_HAL_Driver/Src/stm32l4xx_hal_pwr_ex.c **** 
 338:../Drivers/STM32L4xx_HAL_Driver/Src/stm32l4xx_hal_pwr_ex.c **** /**
 339:../Drivers/STM32L4xx_HAL_Driver/Src/stm32l4xx_hal_pwr_ex.c ****   * @brief Disable VDDIO2 supply.
 340:../Drivers/STM32L4xx_HAL_Driver/Src/stm32l4xx_hal_pwr_ex.c ****   * @retval None
 341:../Drivers/STM32L4xx_HAL_Driver/Src/stm32l4xx_hal_pwr_ex.c ****   */
 342:../Drivers/STM32L4xx_HAL_Driver/Src/stm32l4xx_hal_pwr_ex.c **** void HAL_PWREx_DisableVddIO2(void)
 343:../Drivers/STM32L4xx_HAL_Driver/Src/stm32l4xx_hal_pwr_ex.c **** {
ARM GAS  Build/stm32l4xx_hal_pwr_ex.s 			page 13


 335              		.loc 1 343 1 is_stmt 1 view -0
 336              		.cfi_startproc
 337              		@ args = 0, pretend = 0, frame = 0
 338              		@ frame_needed = 0, uses_anonymous_args = 0
 339              		@ link register save eliminated.
 344:../Drivers/STM32L4xx_HAL_Driver/Src/stm32l4xx_hal_pwr_ex.c ****   CLEAR_BIT(PWR->CR2, PWR_CR2_IOSV);
 340              		.loc 1 344 3 view .LVU61
 341 0000 024A     		ldr	r2, .L32
 342 0002 5368     		ldr	r3, [r2, #4]
 343 0004 23F40073 		bic	r3, r3, #512
 344 0008 5360     		str	r3, [r2, #4]
 345:../Drivers/STM32L4xx_HAL_Driver/Src/stm32l4xx_hal_pwr_ex.c **** }
 345              		.loc 1 345 1 is_stmt 0 view .LVU62
 346 000a 7047     		bx	lr
 347              	.L33:
 348              		.align	2
 349              	.L32:
 350 000c 00700040 		.word	1073770496
 351              		.cfi_endproc
 352              	.LFE81:
 354              		.section	.text.HAL_PWREx_EnableInternalWakeUpLine,"ax",%progbits
 355              		.align	1
 356              		.global	HAL_PWREx_EnableInternalWakeUpLine
 357              		.syntax unified
 358              		.thumb
 359              		.thumb_func
 361              	HAL_PWREx_EnableInternalWakeUpLine:
 362              	.LFB82:
 346:../Drivers/STM32L4xx_HAL_Driver/Src/stm32l4xx_hal_pwr_ex.c **** #endif /* PWR_CR2_IOSV */
 347:../Drivers/STM32L4xx_HAL_Driver/Src/stm32l4xx_hal_pwr_ex.c **** 
 348:../Drivers/STM32L4xx_HAL_Driver/Src/stm32l4xx_hal_pwr_ex.c **** 
 349:../Drivers/STM32L4xx_HAL_Driver/Src/stm32l4xx_hal_pwr_ex.c **** /**
 350:../Drivers/STM32L4xx_HAL_Driver/Src/stm32l4xx_hal_pwr_ex.c ****   * @brief Enable Internal Wake-up Line.
 351:../Drivers/STM32L4xx_HAL_Driver/Src/stm32l4xx_hal_pwr_ex.c ****   * @retval None
 352:../Drivers/STM32L4xx_HAL_Driver/Src/stm32l4xx_hal_pwr_ex.c ****   */
 353:../Drivers/STM32L4xx_HAL_Driver/Src/stm32l4xx_hal_pwr_ex.c **** void HAL_PWREx_EnableInternalWakeUpLine(void)
 354:../Drivers/STM32L4xx_HAL_Driver/Src/stm32l4xx_hal_pwr_ex.c **** {
 363              		.loc 1 354 1 is_stmt 1 view -0
 364              		.cfi_startproc
 365              		@ args = 0, pretend = 0, frame = 0
 366              		@ frame_needed = 0, uses_anonymous_args = 0
 367              		@ link register save eliminated.
 355:../Drivers/STM32L4xx_HAL_Driver/Src/stm32l4xx_hal_pwr_ex.c ****   SET_BIT(PWR->CR3, PWR_CR3_EIWF);
 368              		.loc 1 355 3 view .LVU64
 369 0000 024A     		ldr	r2, .L35
 370 0002 9368     		ldr	r3, [r2, #8]
 371 0004 43F40043 		orr	r3, r3, #32768
 372 0008 9360     		str	r3, [r2, #8]
 356:../Drivers/STM32L4xx_HAL_Driver/Src/stm32l4xx_hal_pwr_ex.c **** }
 373              		.loc 1 356 1 is_stmt 0 view .LVU65
 374 000a 7047     		bx	lr
 375              	.L36:
 376              		.align	2
 377              	.L35:
 378 000c 00700040 		.word	1073770496
 379              		.cfi_endproc
 380              	.LFE82:
ARM GAS  Build/stm32l4xx_hal_pwr_ex.s 			page 14


 382              		.section	.text.HAL_PWREx_DisableInternalWakeUpLine,"ax",%progbits
 383              		.align	1
 384              		.global	HAL_PWREx_DisableInternalWakeUpLine
 385              		.syntax unified
 386              		.thumb
 387              		.thumb_func
 389              	HAL_PWREx_DisableInternalWakeUpLine:
 390              	.LFB83:
 357:../Drivers/STM32L4xx_HAL_Driver/Src/stm32l4xx_hal_pwr_ex.c **** 
 358:../Drivers/STM32L4xx_HAL_Driver/Src/stm32l4xx_hal_pwr_ex.c **** 
 359:../Drivers/STM32L4xx_HAL_Driver/Src/stm32l4xx_hal_pwr_ex.c **** /**
 360:../Drivers/STM32L4xx_HAL_Driver/Src/stm32l4xx_hal_pwr_ex.c ****   * @brief Disable Internal Wake-up Line.
 361:../Drivers/STM32L4xx_HAL_Driver/Src/stm32l4xx_hal_pwr_ex.c ****   * @retval None
 362:../Drivers/STM32L4xx_HAL_Driver/Src/stm32l4xx_hal_pwr_ex.c ****   */
 363:../Drivers/STM32L4xx_HAL_Driver/Src/stm32l4xx_hal_pwr_ex.c **** void HAL_PWREx_DisableInternalWakeUpLine(void)
 364:../Drivers/STM32L4xx_HAL_Driver/Src/stm32l4xx_hal_pwr_ex.c **** {
 391              		.loc 1 364 1 is_stmt 1 view -0
 392              		.cfi_startproc
 393              		@ args = 0, pretend = 0, frame = 0
 394              		@ frame_needed = 0, uses_anonymous_args = 0
 395              		@ link register save eliminated.
 365:../Drivers/STM32L4xx_HAL_Driver/Src/stm32l4xx_hal_pwr_ex.c ****   CLEAR_BIT(PWR->CR3, PWR_CR3_EIWF);
 396              		.loc 1 365 3 view .LVU67
 397 0000 024A     		ldr	r2, .L38
 398 0002 9368     		ldr	r3, [r2, #8]
 399 0004 23F40043 		bic	r3, r3, #32768
 400 0008 9360     		str	r3, [r2, #8]
 366:../Drivers/STM32L4xx_HAL_Driver/Src/stm32l4xx_hal_pwr_ex.c **** }
 401              		.loc 1 366 1 is_stmt 0 view .LVU68
 402 000a 7047     		bx	lr
 403              	.L39:
 404              		.align	2
 405              	.L38:
 406 000c 00700040 		.word	1073770496
 407              		.cfi_endproc
 408              	.LFE83:
 410              		.section	.text.HAL_PWREx_EnableGPIOPullUp,"ax",%progbits
 411              		.align	1
 412              		.global	HAL_PWREx_EnableGPIOPullUp
 413              		.syntax unified
 414              		.thumb
 415              		.thumb_func
 417              	HAL_PWREx_EnableGPIOPullUp:
 418              	.LVL14:
 419              	.LFB84:
 367:../Drivers/STM32L4xx_HAL_Driver/Src/stm32l4xx_hal_pwr_ex.c **** 
 368:../Drivers/STM32L4xx_HAL_Driver/Src/stm32l4xx_hal_pwr_ex.c **** 
 369:../Drivers/STM32L4xx_HAL_Driver/Src/stm32l4xx_hal_pwr_ex.c **** 
 370:../Drivers/STM32L4xx_HAL_Driver/Src/stm32l4xx_hal_pwr_ex.c **** /**
 371:../Drivers/STM32L4xx_HAL_Driver/Src/stm32l4xx_hal_pwr_ex.c ****   * @brief Enable GPIO pull-up state in Standby and Shutdown modes.
 372:../Drivers/STM32L4xx_HAL_Driver/Src/stm32l4xx_hal_pwr_ex.c ****   * @note  Set the relevant PUy bits of PWR_PUCRx register to configure the I/O in
 373:../Drivers/STM32L4xx_HAL_Driver/Src/stm32l4xx_hal_pwr_ex.c ****   *        pull-up state in Standby and Shutdown modes.
 374:../Drivers/STM32L4xx_HAL_Driver/Src/stm32l4xx_hal_pwr_ex.c ****   * @note  This state is effective in Standby and Shutdown modes only if APC bit
 375:../Drivers/STM32L4xx_HAL_Driver/Src/stm32l4xx_hal_pwr_ex.c ****   *        is set through HAL_PWREx_EnablePullUpPullDownConfig() API.
 376:../Drivers/STM32L4xx_HAL_Driver/Src/stm32l4xx_hal_pwr_ex.c ****   * @note  The configuration is lost when exiting the Shutdown mode due to the
 377:../Drivers/STM32L4xx_HAL_Driver/Src/stm32l4xx_hal_pwr_ex.c ****   *        power-on reset, maintained when exiting the Standby mode.
 378:../Drivers/STM32L4xx_HAL_Driver/Src/stm32l4xx_hal_pwr_ex.c ****   * @note  To avoid any conflict at Standby and Shutdown modes exits, the corresponding
ARM GAS  Build/stm32l4xx_hal_pwr_ex.s 			page 15


 379:../Drivers/STM32L4xx_HAL_Driver/Src/stm32l4xx_hal_pwr_ex.c ****   *        PDy bit of PWR_PDCRx register is cleared unless it is reserved.
 380:../Drivers/STM32L4xx_HAL_Driver/Src/stm32l4xx_hal_pwr_ex.c ****   * @note  Even if a PUy bit to set is reserved, the other PUy bits entered as input
 381:../Drivers/STM32L4xx_HAL_Driver/Src/stm32l4xx_hal_pwr_ex.c ****   *        parameter at the same time are set.
 382:../Drivers/STM32L4xx_HAL_Driver/Src/stm32l4xx_hal_pwr_ex.c ****   * @param  GPIO Specify the IO port. This parameter can be PWR_GPIO_A, ..., PWR_GPIO_H
 383:../Drivers/STM32L4xx_HAL_Driver/Src/stm32l4xx_hal_pwr_ex.c ****   *         (or PWR_GPIO_I depending on the devices) to select the GPIO peripheral.
 384:../Drivers/STM32L4xx_HAL_Driver/Src/stm32l4xx_hal_pwr_ex.c ****   * @param  GPIONumber Specify the I/O pins numbers.
 385:../Drivers/STM32L4xx_HAL_Driver/Src/stm32l4xx_hal_pwr_ex.c ****   *         This parameter can be one of the following values:
 386:../Drivers/STM32L4xx_HAL_Driver/Src/stm32l4xx_hal_pwr_ex.c ****   *         PWR_GPIO_BIT_0, ..., PWR_GPIO_BIT_15 (except for the port where less
 387:../Drivers/STM32L4xx_HAL_Driver/Src/stm32l4xx_hal_pwr_ex.c ****   *         I/O pins are available) or the logical OR of several of them to set
 388:../Drivers/STM32L4xx_HAL_Driver/Src/stm32l4xx_hal_pwr_ex.c ****   *         several bits for a given port in a single API call.
 389:../Drivers/STM32L4xx_HAL_Driver/Src/stm32l4xx_hal_pwr_ex.c ****   * @retval HAL Status
 390:../Drivers/STM32L4xx_HAL_Driver/Src/stm32l4xx_hal_pwr_ex.c ****   */
 391:../Drivers/STM32L4xx_HAL_Driver/Src/stm32l4xx_hal_pwr_ex.c **** HAL_StatusTypeDef HAL_PWREx_EnableGPIOPullUp(uint32_t GPIO, uint32_t GPIONumber)
 392:../Drivers/STM32L4xx_HAL_Driver/Src/stm32l4xx_hal_pwr_ex.c **** {
 420              		.loc 1 392 1 is_stmt 1 view -0
 421              		.cfi_startproc
 422              		@ args = 0, pretend = 0, frame = 0
 423              		@ frame_needed = 0, uses_anonymous_args = 0
 424              		@ link register save eliminated.
 393:../Drivers/STM32L4xx_HAL_Driver/Src/stm32l4xx_hal_pwr_ex.c ****   HAL_StatusTypeDef status = HAL_OK;
 425              		.loc 1 393 3 view .LVU70
 394:../Drivers/STM32L4xx_HAL_Driver/Src/stm32l4xx_hal_pwr_ex.c **** 
 395:../Drivers/STM32L4xx_HAL_Driver/Src/stm32l4xx_hal_pwr_ex.c ****   assert_param(IS_PWR_GPIO(GPIO));
 426              		.loc 1 395 3 view .LVU71
 396:../Drivers/STM32L4xx_HAL_Driver/Src/stm32l4xx_hal_pwr_ex.c ****   assert_param(IS_PWR_GPIO_BIT_NUMBER(GPIONumber));
 427              		.loc 1 396 3 view .LVU72
 397:../Drivers/STM32L4xx_HAL_Driver/Src/stm32l4xx_hal_pwr_ex.c **** 
 398:../Drivers/STM32L4xx_HAL_Driver/Src/stm32l4xx_hal_pwr_ex.c ****   switch (GPIO)
 428              		.loc 1 398 3 view .LVU73
 429 0000 0728     		cmp	r0, #7
 430 0002 5DD8     		bhi	.L51
 431 0004 DFE800F0 		tbb	[pc, r0]
 432              	.L43:
 433 0008 04       		.byte	(.L50-.L43)/2
 434 0009 12       		.byte	(.L49-.L43)/2
 435 000a 1E       		.byte	(.L48-.L43)/2
 436 000b 28       		.byte	(.L47-.L43)/2
 437 000c 32       		.byte	(.L46-.L43)/2
 438 000d 3C       		.byte	(.L45-.L43)/2
 439 000e 46       		.byte	(.L44-.L43)/2
 440 000f 50       		.byte	(.L42-.L43)/2
 441              		.p2align 1
 442              	.L50:
 399:../Drivers/STM32L4xx_HAL_Driver/Src/stm32l4xx_hal_pwr_ex.c ****   {
 400:../Drivers/STM32L4xx_HAL_Driver/Src/stm32l4xx_hal_pwr_ex.c ****     case PWR_GPIO_A:
 401:../Drivers/STM32L4xx_HAL_Driver/Src/stm32l4xx_hal_pwr_ex.c ****        SET_BIT(PWR->PUCRA, (GPIONumber & (~(PWR_GPIO_BIT_14))));
 443              		.loc 1 401 8 view .LVU74
 444 0010 2C4B     		ldr	r3, .L52
 445 0012 1A6A     		ldr	r2, [r3, #32]
 446 0014 21F48040 		bic	r0, r1, #16384
 447              	.LVL15:
 448              		.loc 1 401 8 is_stmt 0 view .LVU75
 449 0018 0243     		orrs	r2, r2, r0
 450 001a 1A62     		str	r2, [r3, #32]
 402:../Drivers/STM32L4xx_HAL_Driver/Src/stm32l4xx_hal_pwr_ex.c ****        CLEAR_BIT(PWR->PDCRA, (GPIONumber & (~(PWR_GPIO_BIT_13|PWR_GPIO_BIT_15))));
 451              		.loc 1 402 8 is_stmt 1 view .LVU76
 452 001c 5A6A     		ldr	r2, [r3, #36]
ARM GAS  Build/stm32l4xx_hal_pwr_ex.s 			page 16


 453 001e 21F42041 		bic	r1, r1, #40960
 454              	.LVL16:
 455              		.loc 1 402 8 is_stmt 0 view .LVU77
 456 0022 22EA0102 		bic	r2, r2, r1
 457 0026 5A62     		str	r2, [r3, #36]
 403:../Drivers/STM32L4xx_HAL_Driver/Src/stm32l4xx_hal_pwr_ex.c ****        break;
 458              		.loc 1 403 8 is_stmt 1 view .LVU78
 393:../Drivers/STM32L4xx_HAL_Driver/Src/stm32l4xx_hal_pwr_ex.c **** 
 459              		.loc 1 393 21 is_stmt 0 view .LVU79
 460 0028 0020     		movs	r0, #0
 461              		.loc 1 403 8 view .LVU80
 462 002a 7047     		bx	lr
 463              	.LVL17:
 464              	.L49:
 404:../Drivers/STM32L4xx_HAL_Driver/Src/stm32l4xx_hal_pwr_ex.c ****     case PWR_GPIO_B:
 405:../Drivers/STM32L4xx_HAL_Driver/Src/stm32l4xx_hal_pwr_ex.c ****        SET_BIT(PWR->PUCRB, GPIONumber);
 465              		.loc 1 405 8 is_stmt 1 view .LVU81
 466 002c 254B     		ldr	r3, .L52
 467 002e 9A6A     		ldr	r2, [r3, #40]
 468 0030 0A43     		orrs	r2, r2, r1
 469 0032 9A62     		str	r2, [r3, #40]
 406:../Drivers/STM32L4xx_HAL_Driver/Src/stm32l4xx_hal_pwr_ex.c ****        CLEAR_BIT(PWR->PDCRB, (GPIONumber & (~(PWR_GPIO_BIT_4))));
 470              		.loc 1 406 8 view .LVU82
 471 0034 DA6A     		ldr	r2, [r3, #44]
 472 0036 21F01001 		bic	r1, r1, #16
 473              	.LVL18:
 474              		.loc 1 406 8 is_stmt 0 view .LVU83
 475 003a 22EA0102 		bic	r2, r2, r1
 476 003e DA62     		str	r2, [r3, #44]
 407:../Drivers/STM32L4xx_HAL_Driver/Src/stm32l4xx_hal_pwr_ex.c ****        break;
 477              		.loc 1 407 8 is_stmt 1 view .LVU84
 393:../Drivers/STM32L4xx_HAL_Driver/Src/stm32l4xx_hal_pwr_ex.c **** 
 478              		.loc 1 393 21 is_stmt 0 view .LVU85
 479 0040 0020     		movs	r0, #0
 480              	.LVL19:
 481              		.loc 1 407 8 view .LVU86
 482 0042 7047     		bx	lr
 483              	.LVL20:
 484              	.L48:
 408:../Drivers/STM32L4xx_HAL_Driver/Src/stm32l4xx_hal_pwr_ex.c ****     case PWR_GPIO_C:
 409:../Drivers/STM32L4xx_HAL_Driver/Src/stm32l4xx_hal_pwr_ex.c ****        SET_BIT(PWR->PUCRC, GPIONumber);
 485              		.loc 1 409 8 is_stmt 1 view .LVU87
 486 0044 1F4B     		ldr	r3, .L52
 487 0046 1A6B     		ldr	r2, [r3, #48]
 488 0048 0A43     		orrs	r2, r2, r1
 489 004a 1A63     		str	r2, [r3, #48]
 410:../Drivers/STM32L4xx_HAL_Driver/Src/stm32l4xx_hal_pwr_ex.c ****        CLEAR_BIT(PWR->PDCRC, GPIONumber);
 490              		.loc 1 410 8 view .LVU88
 491 004c 5A6B     		ldr	r2, [r3, #52]
 492 004e 22EA0102 		bic	r2, r2, r1
 493 0052 5A63     		str	r2, [r3, #52]
 411:../Drivers/STM32L4xx_HAL_Driver/Src/stm32l4xx_hal_pwr_ex.c ****        break;
 494              		.loc 1 411 8 view .LVU89
 393:../Drivers/STM32L4xx_HAL_Driver/Src/stm32l4xx_hal_pwr_ex.c **** 
 495              		.loc 1 393 21 is_stmt 0 view .LVU90
 496 0054 0020     		movs	r0, #0
 497              	.LVL21:
ARM GAS  Build/stm32l4xx_hal_pwr_ex.s 			page 17


 498              		.loc 1 411 8 view .LVU91
 499 0056 7047     		bx	lr
 500              	.LVL22:
 501              	.L47:
 412:../Drivers/STM32L4xx_HAL_Driver/Src/stm32l4xx_hal_pwr_ex.c **** #if defined(GPIOD)
 413:../Drivers/STM32L4xx_HAL_Driver/Src/stm32l4xx_hal_pwr_ex.c ****     case PWR_GPIO_D:
 414:../Drivers/STM32L4xx_HAL_Driver/Src/stm32l4xx_hal_pwr_ex.c ****        SET_BIT(PWR->PUCRD, GPIONumber);
 502              		.loc 1 414 8 is_stmt 1 view .LVU92
 503 0058 1A4B     		ldr	r3, .L52
 504 005a 9A6B     		ldr	r2, [r3, #56]
 505 005c 0A43     		orrs	r2, r2, r1
 506 005e 9A63     		str	r2, [r3, #56]
 415:../Drivers/STM32L4xx_HAL_Driver/Src/stm32l4xx_hal_pwr_ex.c ****        CLEAR_BIT(PWR->PDCRD, GPIONumber);
 507              		.loc 1 415 8 view .LVU93
 508 0060 DA6B     		ldr	r2, [r3, #60]
 509 0062 22EA0102 		bic	r2, r2, r1
 510 0066 DA63     		str	r2, [r3, #60]
 416:../Drivers/STM32L4xx_HAL_Driver/Src/stm32l4xx_hal_pwr_ex.c ****        break;
 511              		.loc 1 416 8 view .LVU94
 393:../Drivers/STM32L4xx_HAL_Driver/Src/stm32l4xx_hal_pwr_ex.c **** 
 512              		.loc 1 393 21 is_stmt 0 view .LVU95
 513 0068 0020     		movs	r0, #0
 514              	.LVL23:
 515              		.loc 1 416 8 view .LVU96
 516 006a 7047     		bx	lr
 517              	.LVL24:
 518              	.L46:
 417:../Drivers/STM32L4xx_HAL_Driver/Src/stm32l4xx_hal_pwr_ex.c **** #endif
 418:../Drivers/STM32L4xx_HAL_Driver/Src/stm32l4xx_hal_pwr_ex.c **** #if defined(GPIOE)
 419:../Drivers/STM32L4xx_HAL_Driver/Src/stm32l4xx_hal_pwr_ex.c ****     case PWR_GPIO_E:
 420:../Drivers/STM32L4xx_HAL_Driver/Src/stm32l4xx_hal_pwr_ex.c ****        SET_BIT(PWR->PUCRE, GPIONumber);
 519              		.loc 1 420 8 is_stmt 1 view .LVU97
 520 006c 154B     		ldr	r3, .L52
 521 006e 1A6C     		ldr	r2, [r3, #64]
 522 0070 0A43     		orrs	r2, r2, r1
 523 0072 1A64     		str	r2, [r3, #64]
 421:../Drivers/STM32L4xx_HAL_Driver/Src/stm32l4xx_hal_pwr_ex.c ****        CLEAR_BIT(PWR->PDCRE, GPIONumber);
 524              		.loc 1 421 8 view .LVU98
 525 0074 5A6C     		ldr	r2, [r3, #68]
 526 0076 22EA0102 		bic	r2, r2, r1
 527 007a 5A64     		str	r2, [r3, #68]
 422:../Drivers/STM32L4xx_HAL_Driver/Src/stm32l4xx_hal_pwr_ex.c ****        break;
 528              		.loc 1 422 8 view .LVU99
 393:../Drivers/STM32L4xx_HAL_Driver/Src/stm32l4xx_hal_pwr_ex.c **** 
 529              		.loc 1 393 21 is_stmt 0 view .LVU100
 530 007c 0020     		movs	r0, #0
 531              	.LVL25:
 532              		.loc 1 422 8 view .LVU101
 533 007e 7047     		bx	lr
 534              	.LVL26:
 535              	.L45:
 423:../Drivers/STM32L4xx_HAL_Driver/Src/stm32l4xx_hal_pwr_ex.c **** #endif
 424:../Drivers/STM32L4xx_HAL_Driver/Src/stm32l4xx_hal_pwr_ex.c **** #if defined(GPIOF)
 425:../Drivers/STM32L4xx_HAL_Driver/Src/stm32l4xx_hal_pwr_ex.c ****     case PWR_GPIO_F:
 426:../Drivers/STM32L4xx_HAL_Driver/Src/stm32l4xx_hal_pwr_ex.c ****        SET_BIT(PWR->PUCRF, GPIONumber);
 536              		.loc 1 426 8 is_stmt 1 view .LVU102
 537 0080 104B     		ldr	r3, .L52
ARM GAS  Build/stm32l4xx_hal_pwr_ex.s 			page 18


 538 0082 9A6C     		ldr	r2, [r3, #72]
 539 0084 0A43     		orrs	r2, r2, r1
 540 0086 9A64     		str	r2, [r3, #72]
 427:../Drivers/STM32L4xx_HAL_Driver/Src/stm32l4xx_hal_pwr_ex.c ****        CLEAR_BIT(PWR->PDCRF, GPIONumber);
 541              		.loc 1 427 8 view .LVU103
 542 0088 DA6C     		ldr	r2, [r3, #76]
 543 008a 22EA0102 		bic	r2, r2, r1
 544 008e DA64     		str	r2, [r3, #76]
 428:../Drivers/STM32L4xx_HAL_Driver/Src/stm32l4xx_hal_pwr_ex.c ****        break;
 545              		.loc 1 428 8 view .LVU104
 393:../Drivers/STM32L4xx_HAL_Driver/Src/stm32l4xx_hal_pwr_ex.c **** 
 546              		.loc 1 393 21 is_stmt 0 view .LVU105
 547 0090 0020     		movs	r0, #0
 548              	.LVL27:
 549              		.loc 1 428 8 view .LVU106
 550 0092 7047     		bx	lr
 551              	.LVL28:
 552              	.L44:
 429:../Drivers/STM32L4xx_HAL_Driver/Src/stm32l4xx_hal_pwr_ex.c **** #endif
 430:../Drivers/STM32L4xx_HAL_Driver/Src/stm32l4xx_hal_pwr_ex.c **** #if defined(GPIOG)
 431:../Drivers/STM32L4xx_HAL_Driver/Src/stm32l4xx_hal_pwr_ex.c ****     case PWR_GPIO_G:
 432:../Drivers/STM32L4xx_HAL_Driver/Src/stm32l4xx_hal_pwr_ex.c ****        SET_BIT(PWR->PUCRG, GPIONumber);
 553              		.loc 1 432 8 is_stmt 1 view .LVU107
 554 0094 0B4B     		ldr	r3, .L52
 555 0096 1A6D     		ldr	r2, [r3, #80]
 556 0098 0A43     		orrs	r2, r2, r1
 557 009a 1A65     		str	r2, [r3, #80]
 433:../Drivers/STM32L4xx_HAL_Driver/Src/stm32l4xx_hal_pwr_ex.c ****        CLEAR_BIT(PWR->PDCRG, GPIONumber);
 558              		.loc 1 433 8 view .LVU108
 559 009c 5A6D     		ldr	r2, [r3, #84]
 560 009e 22EA0102 		bic	r2, r2, r1
 561 00a2 5A65     		str	r2, [r3, #84]
 434:../Drivers/STM32L4xx_HAL_Driver/Src/stm32l4xx_hal_pwr_ex.c ****        break;
 562              		.loc 1 434 8 view .LVU109
 393:../Drivers/STM32L4xx_HAL_Driver/Src/stm32l4xx_hal_pwr_ex.c **** 
 563              		.loc 1 393 21 is_stmt 0 view .LVU110
 564 00a4 0020     		movs	r0, #0
 565              	.LVL29:
 566              		.loc 1 434 8 view .LVU111
 567 00a6 7047     		bx	lr
 568              	.LVL30:
 569              	.L42:
 435:../Drivers/STM32L4xx_HAL_Driver/Src/stm32l4xx_hal_pwr_ex.c **** #endif
 436:../Drivers/STM32L4xx_HAL_Driver/Src/stm32l4xx_hal_pwr_ex.c ****     case PWR_GPIO_H:
 437:../Drivers/STM32L4xx_HAL_Driver/Src/stm32l4xx_hal_pwr_ex.c ****        SET_BIT(PWR->PUCRH, (GPIONumber & PWR_PORTH_AVAILABLE_PINS));
 570              		.loc 1 437 8 is_stmt 1 view .LVU112
 571 00a8 064B     		ldr	r3, .L52
 572 00aa 9A6D     		ldr	r2, [r3, #88]
 573 00ac 01F00301 		and	r1, r1, #3
 574              	.LVL31:
 575              		.loc 1 437 8 is_stmt 0 view .LVU113
 576 00b0 0A43     		orrs	r2, r2, r1
 577 00b2 9A65     		str	r2, [r3, #88]
 438:../Drivers/STM32L4xx_HAL_Driver/Src/stm32l4xx_hal_pwr_ex.c **** #if defined (STM32L496xx) || defined (STM32L4A6xx)
 439:../Drivers/STM32L4xx_HAL_Driver/Src/stm32l4xx_hal_pwr_ex.c ****        CLEAR_BIT(PWR->PDCRH, ((GPIONumber & PWR_PORTH_AVAILABLE_PINS) & (~(PWR_GPIO_BIT_3))));
 440:../Drivers/STM32L4xx_HAL_Driver/Src/stm32l4xx_hal_pwr_ex.c **** #else
 441:../Drivers/STM32L4xx_HAL_Driver/Src/stm32l4xx_hal_pwr_ex.c ****        CLEAR_BIT(PWR->PDCRH, (GPIONumber & PWR_PORTH_AVAILABLE_PINS));
ARM GAS  Build/stm32l4xx_hal_pwr_ex.s 			page 19


 578              		.loc 1 441 8 is_stmt 1 view .LVU114
 579 00b4 DA6D     		ldr	r2, [r3, #92]
 580 00b6 22EA0102 		bic	r2, r2, r1
 581 00ba DA65     		str	r2, [r3, #92]
 442:../Drivers/STM32L4xx_HAL_Driver/Src/stm32l4xx_hal_pwr_ex.c **** #endif
 443:../Drivers/STM32L4xx_HAL_Driver/Src/stm32l4xx_hal_pwr_ex.c ****        break;
 582              		.loc 1 443 8 view .LVU115
 393:../Drivers/STM32L4xx_HAL_Driver/Src/stm32l4xx_hal_pwr_ex.c **** 
 583              		.loc 1 393 21 is_stmt 0 view .LVU116
 584 00bc 0020     		movs	r0, #0
 585              	.LVL32:
 586              		.loc 1 443 8 view .LVU117
 587 00be 7047     		bx	lr
 588              	.LVL33:
 589              	.L51:
 398:../Drivers/STM32L4xx_HAL_Driver/Src/stm32l4xx_hal_pwr_ex.c ****   {
 590              		.loc 1 398 3 view .LVU118
 591 00c0 0120     		movs	r0, #1
 592              	.LVL34:
 444:../Drivers/STM32L4xx_HAL_Driver/Src/stm32l4xx_hal_pwr_ex.c **** #if defined(GPIOI)
 445:../Drivers/STM32L4xx_HAL_Driver/Src/stm32l4xx_hal_pwr_ex.c ****     case PWR_GPIO_I:
 446:../Drivers/STM32L4xx_HAL_Driver/Src/stm32l4xx_hal_pwr_ex.c ****        SET_BIT(PWR->PUCRI, (GPIONumber & PWR_PORTI_AVAILABLE_PINS));
 447:../Drivers/STM32L4xx_HAL_Driver/Src/stm32l4xx_hal_pwr_ex.c ****        CLEAR_BIT(PWR->PDCRI, (GPIONumber & PWR_PORTI_AVAILABLE_PINS));
 448:../Drivers/STM32L4xx_HAL_Driver/Src/stm32l4xx_hal_pwr_ex.c ****        break;
 449:../Drivers/STM32L4xx_HAL_Driver/Src/stm32l4xx_hal_pwr_ex.c **** #endif
 450:../Drivers/STM32L4xx_HAL_Driver/Src/stm32l4xx_hal_pwr_ex.c ****     default:
 451:../Drivers/STM32L4xx_HAL_Driver/Src/stm32l4xx_hal_pwr_ex.c ****       status = HAL_ERROR;
 452:../Drivers/STM32L4xx_HAL_Driver/Src/stm32l4xx_hal_pwr_ex.c ****       break;
 453:../Drivers/STM32L4xx_HAL_Driver/Src/stm32l4xx_hal_pwr_ex.c ****   }
 454:../Drivers/STM32L4xx_HAL_Driver/Src/stm32l4xx_hal_pwr_ex.c **** 
 455:../Drivers/STM32L4xx_HAL_Driver/Src/stm32l4xx_hal_pwr_ex.c ****   return status;
 593              		.loc 1 455 3 is_stmt 1 view .LVU119
 456:../Drivers/STM32L4xx_HAL_Driver/Src/stm32l4xx_hal_pwr_ex.c **** }
 594              		.loc 1 456 1 is_stmt 0 view .LVU120
 595 00c2 7047     		bx	lr
 596              	.L53:
 597              		.align	2
 598              	.L52:
 599 00c4 00700040 		.word	1073770496
 600              		.cfi_endproc
 601              	.LFE84:
 603              		.section	.text.HAL_PWREx_DisableGPIOPullUp,"ax",%progbits
 604              		.align	1
 605              		.global	HAL_PWREx_DisableGPIOPullUp
 606              		.syntax unified
 607              		.thumb
 608              		.thumb_func
 610              	HAL_PWREx_DisableGPIOPullUp:
 611              	.LVL35:
 612              	.LFB85:
 457:../Drivers/STM32L4xx_HAL_Driver/Src/stm32l4xx_hal_pwr_ex.c **** 
 458:../Drivers/STM32L4xx_HAL_Driver/Src/stm32l4xx_hal_pwr_ex.c **** 
 459:../Drivers/STM32L4xx_HAL_Driver/Src/stm32l4xx_hal_pwr_ex.c **** /**
 460:../Drivers/STM32L4xx_HAL_Driver/Src/stm32l4xx_hal_pwr_ex.c ****   * @brief Disable GPIO pull-up state in Standby mode and Shutdown modes.
 461:../Drivers/STM32L4xx_HAL_Driver/Src/stm32l4xx_hal_pwr_ex.c ****   * @note  Reset the relevant PUy bits of PWR_PUCRx register used to configure the I/O
 462:../Drivers/STM32L4xx_HAL_Driver/Src/stm32l4xx_hal_pwr_ex.c ****   *        in pull-up state in Standby and Shutdown modes.
 463:../Drivers/STM32L4xx_HAL_Driver/Src/stm32l4xx_hal_pwr_ex.c ****   * @note  Even if a PUy bit to reset is reserved, the other PUy bits entered as input
ARM GAS  Build/stm32l4xx_hal_pwr_ex.s 			page 20


 464:../Drivers/STM32L4xx_HAL_Driver/Src/stm32l4xx_hal_pwr_ex.c ****   *        parameter at the same time are reset.
 465:../Drivers/STM32L4xx_HAL_Driver/Src/stm32l4xx_hal_pwr_ex.c ****   * @param  GPIO Specifies the IO port. This parameter can be PWR_GPIO_A, ..., PWR_GPIO_H
 466:../Drivers/STM32L4xx_HAL_Driver/Src/stm32l4xx_hal_pwr_ex.c ****   *          (or PWR_GPIO_I depending on the devices) to select the GPIO peripheral.
 467:../Drivers/STM32L4xx_HAL_Driver/Src/stm32l4xx_hal_pwr_ex.c ****   * @param  GPIONumber Specify the I/O pins numbers.
 468:../Drivers/STM32L4xx_HAL_Driver/Src/stm32l4xx_hal_pwr_ex.c ****   *         This parameter can be one of the following values:
 469:../Drivers/STM32L4xx_HAL_Driver/Src/stm32l4xx_hal_pwr_ex.c ****   *         PWR_GPIO_BIT_0, ..., PWR_GPIO_BIT_15 (except for the port where less
 470:../Drivers/STM32L4xx_HAL_Driver/Src/stm32l4xx_hal_pwr_ex.c ****   *         I/O pins are available) or the logical OR of several of them to reset
 471:../Drivers/STM32L4xx_HAL_Driver/Src/stm32l4xx_hal_pwr_ex.c ****   *         several bits for a given port in a single API call.
 472:../Drivers/STM32L4xx_HAL_Driver/Src/stm32l4xx_hal_pwr_ex.c ****   * @retval HAL Status
 473:../Drivers/STM32L4xx_HAL_Driver/Src/stm32l4xx_hal_pwr_ex.c ****   */
 474:../Drivers/STM32L4xx_HAL_Driver/Src/stm32l4xx_hal_pwr_ex.c **** HAL_StatusTypeDef HAL_PWREx_DisableGPIOPullUp(uint32_t GPIO, uint32_t GPIONumber)
 475:../Drivers/STM32L4xx_HAL_Driver/Src/stm32l4xx_hal_pwr_ex.c **** {
 613              		.loc 1 475 1 is_stmt 1 view -0
 614              		.cfi_startproc
 615              		@ args = 0, pretend = 0, frame = 0
 616              		@ frame_needed = 0, uses_anonymous_args = 0
 617              		@ link register save eliminated.
 476:../Drivers/STM32L4xx_HAL_Driver/Src/stm32l4xx_hal_pwr_ex.c ****   HAL_StatusTypeDef status = HAL_OK;
 618              		.loc 1 476 3 view .LVU122
 477:../Drivers/STM32L4xx_HAL_Driver/Src/stm32l4xx_hal_pwr_ex.c **** 
 478:../Drivers/STM32L4xx_HAL_Driver/Src/stm32l4xx_hal_pwr_ex.c ****   assert_param(IS_PWR_GPIO(GPIO));
 619              		.loc 1 478 3 view .LVU123
 479:../Drivers/STM32L4xx_HAL_Driver/Src/stm32l4xx_hal_pwr_ex.c ****   assert_param(IS_PWR_GPIO_BIT_NUMBER(GPIONumber));
 620              		.loc 1 479 3 view .LVU124
 480:../Drivers/STM32L4xx_HAL_Driver/Src/stm32l4xx_hal_pwr_ex.c **** 
 481:../Drivers/STM32L4xx_HAL_Driver/Src/stm32l4xx_hal_pwr_ex.c ****   switch (GPIO)
 621              		.loc 1 481 3 view .LVU125
 622 0000 0728     		cmp	r0, #7
 623 0002 41D8     		bhi	.L65
 624 0004 DFE800F0 		tbb	[pc, r0]
 625              	.L57:
 626 0008 04       		.byte	(.L64-.L57)/2
 627 0009 0D       		.byte	(.L63-.L57)/2
 628 000a 14       		.byte	(.L62-.L57)/2
 629 000b 1B       		.byte	(.L61-.L57)/2
 630 000c 22       		.byte	(.L60-.L57)/2
 631 000d 29       		.byte	(.L59-.L57)/2
 632 000e 30       		.byte	(.L58-.L57)/2
 633 000f 37       		.byte	(.L56-.L57)/2
 634              		.p2align 1
 635              	.L64:
 482:../Drivers/STM32L4xx_HAL_Driver/Src/stm32l4xx_hal_pwr_ex.c ****   {
 483:../Drivers/STM32L4xx_HAL_Driver/Src/stm32l4xx_hal_pwr_ex.c ****     case PWR_GPIO_A:
 484:../Drivers/STM32L4xx_HAL_Driver/Src/stm32l4xx_hal_pwr_ex.c ****        CLEAR_BIT(PWR->PUCRA, (GPIONumber & (~(PWR_GPIO_BIT_14))));
 636              		.loc 1 484 8 view .LVU126
 637 0010 1E4A     		ldr	r2, .L66
 638 0012 136A     		ldr	r3, [r2, #32]
 639 0014 21F48041 		bic	r1, r1, #16384
 640              	.LVL36:
 641              		.loc 1 484 8 is_stmt 0 view .LVU127
 642 0018 23EA0101 		bic	r1, r3, r1
 643 001c 1162     		str	r1, [r2, #32]
 485:../Drivers/STM32L4xx_HAL_Driver/Src/stm32l4xx_hal_pwr_ex.c ****        break;
 644              		.loc 1 485 8 is_stmt 1 view .LVU128
 476:../Drivers/STM32L4xx_HAL_Driver/Src/stm32l4xx_hal_pwr_ex.c **** 
 645              		.loc 1 476 21 is_stmt 0 view .LVU129
 646 001e 0020     		movs	r0, #0
ARM GAS  Build/stm32l4xx_hal_pwr_ex.s 			page 21


 647              	.LVL37:
 648              		.loc 1 485 8 view .LVU130
 649 0020 7047     		bx	lr
 650              	.LVL38:
 651              	.L63:
 486:../Drivers/STM32L4xx_HAL_Driver/Src/stm32l4xx_hal_pwr_ex.c ****     case PWR_GPIO_B:
 487:../Drivers/STM32L4xx_HAL_Driver/Src/stm32l4xx_hal_pwr_ex.c ****        CLEAR_BIT(PWR->PUCRB, GPIONumber);
 652              		.loc 1 487 8 is_stmt 1 view .LVU131
 653 0022 1A4A     		ldr	r2, .L66
 654 0024 936A     		ldr	r3, [r2, #40]
 655 0026 23EA0103 		bic	r3, r3, r1
 656 002a 9362     		str	r3, [r2, #40]
 488:../Drivers/STM32L4xx_HAL_Driver/Src/stm32l4xx_hal_pwr_ex.c ****        break;
 657              		.loc 1 488 8 view .LVU132
 476:../Drivers/STM32L4xx_HAL_Driver/Src/stm32l4xx_hal_pwr_ex.c **** 
 658              		.loc 1 476 21 is_stmt 0 view .LVU133
 659 002c 0020     		movs	r0, #0
 660              	.LVL39:
 661              		.loc 1 488 8 view .LVU134
 662 002e 7047     		bx	lr
 663              	.LVL40:
 664              	.L62:
 489:../Drivers/STM32L4xx_HAL_Driver/Src/stm32l4xx_hal_pwr_ex.c ****     case PWR_GPIO_C:
 490:../Drivers/STM32L4xx_HAL_Driver/Src/stm32l4xx_hal_pwr_ex.c ****        CLEAR_BIT(PWR->PUCRC, GPIONumber);
 665              		.loc 1 490 8 is_stmt 1 view .LVU135
 666 0030 164A     		ldr	r2, .L66
 667 0032 136B     		ldr	r3, [r2, #48]
 668 0034 23EA0103 		bic	r3, r3, r1
 669 0038 1363     		str	r3, [r2, #48]
 491:../Drivers/STM32L4xx_HAL_Driver/Src/stm32l4xx_hal_pwr_ex.c ****        break;
 670              		.loc 1 491 8 view .LVU136
 476:../Drivers/STM32L4xx_HAL_Driver/Src/stm32l4xx_hal_pwr_ex.c **** 
 671              		.loc 1 476 21 is_stmt 0 view .LVU137
 672 003a 0020     		movs	r0, #0
 673              	.LVL41:
 674              		.loc 1 491 8 view .LVU138
 675 003c 7047     		bx	lr
 676              	.LVL42:
 677              	.L61:
 492:../Drivers/STM32L4xx_HAL_Driver/Src/stm32l4xx_hal_pwr_ex.c **** #if defined(GPIOD)
 493:../Drivers/STM32L4xx_HAL_Driver/Src/stm32l4xx_hal_pwr_ex.c ****     case PWR_GPIO_D:
 494:../Drivers/STM32L4xx_HAL_Driver/Src/stm32l4xx_hal_pwr_ex.c ****        CLEAR_BIT(PWR->PUCRD, GPIONumber);
 678              		.loc 1 494 8 is_stmt 1 view .LVU139
 679 003e 134A     		ldr	r2, .L66
 680 0040 936B     		ldr	r3, [r2, #56]
 681 0042 23EA0103 		bic	r3, r3, r1
 682 0046 9363     		str	r3, [r2, #56]
 495:../Drivers/STM32L4xx_HAL_Driver/Src/stm32l4xx_hal_pwr_ex.c ****        break;
 683              		.loc 1 495 8 view .LVU140
 476:../Drivers/STM32L4xx_HAL_Driver/Src/stm32l4xx_hal_pwr_ex.c **** 
 684              		.loc 1 476 21 is_stmt 0 view .LVU141
 685 0048 0020     		movs	r0, #0
 686              	.LVL43:
 687              		.loc 1 495 8 view .LVU142
 688 004a 7047     		bx	lr
 689              	.LVL44:
 690              	.L60:
ARM GAS  Build/stm32l4xx_hal_pwr_ex.s 			page 22


 496:../Drivers/STM32L4xx_HAL_Driver/Src/stm32l4xx_hal_pwr_ex.c **** #endif
 497:../Drivers/STM32L4xx_HAL_Driver/Src/stm32l4xx_hal_pwr_ex.c **** #if defined(GPIOE)
 498:../Drivers/STM32L4xx_HAL_Driver/Src/stm32l4xx_hal_pwr_ex.c ****     case PWR_GPIO_E:
 499:../Drivers/STM32L4xx_HAL_Driver/Src/stm32l4xx_hal_pwr_ex.c ****        CLEAR_BIT(PWR->PUCRE, GPIONumber);
 691              		.loc 1 499 8 is_stmt 1 view .LVU143
 692 004c 0F4A     		ldr	r2, .L66
 693 004e 136C     		ldr	r3, [r2, #64]
 694 0050 23EA0103 		bic	r3, r3, r1
 695 0054 1364     		str	r3, [r2, #64]
 500:../Drivers/STM32L4xx_HAL_Driver/Src/stm32l4xx_hal_pwr_ex.c ****        break;
 696              		.loc 1 500 8 view .LVU144
 476:../Drivers/STM32L4xx_HAL_Driver/Src/stm32l4xx_hal_pwr_ex.c **** 
 697              		.loc 1 476 21 is_stmt 0 view .LVU145
 698 0056 0020     		movs	r0, #0
 699              	.LVL45:
 700              		.loc 1 500 8 view .LVU146
 701 0058 7047     		bx	lr
 702              	.LVL46:
 703              	.L59:
 501:../Drivers/STM32L4xx_HAL_Driver/Src/stm32l4xx_hal_pwr_ex.c **** #endif
 502:../Drivers/STM32L4xx_HAL_Driver/Src/stm32l4xx_hal_pwr_ex.c **** #if defined(GPIOF)
 503:../Drivers/STM32L4xx_HAL_Driver/Src/stm32l4xx_hal_pwr_ex.c ****     case PWR_GPIO_F:
 504:../Drivers/STM32L4xx_HAL_Driver/Src/stm32l4xx_hal_pwr_ex.c ****        CLEAR_BIT(PWR->PUCRF, GPIONumber);
 704              		.loc 1 504 8 is_stmt 1 view .LVU147
 705 005a 0C4A     		ldr	r2, .L66
 706 005c 936C     		ldr	r3, [r2, #72]
 707 005e 23EA0103 		bic	r3, r3, r1
 708 0062 9364     		str	r3, [r2, #72]
 505:../Drivers/STM32L4xx_HAL_Driver/Src/stm32l4xx_hal_pwr_ex.c ****        break;
 709              		.loc 1 505 8 view .LVU148
 476:../Drivers/STM32L4xx_HAL_Driver/Src/stm32l4xx_hal_pwr_ex.c **** 
 710              		.loc 1 476 21 is_stmt 0 view .LVU149
 711 0064 0020     		movs	r0, #0
 712              	.LVL47:
 713              		.loc 1 505 8 view .LVU150
 714 0066 7047     		bx	lr
 715              	.LVL48:
 716              	.L58:
 506:../Drivers/STM32L4xx_HAL_Driver/Src/stm32l4xx_hal_pwr_ex.c **** #endif
 507:../Drivers/STM32L4xx_HAL_Driver/Src/stm32l4xx_hal_pwr_ex.c **** #if defined(GPIOG)
 508:../Drivers/STM32L4xx_HAL_Driver/Src/stm32l4xx_hal_pwr_ex.c ****     case PWR_GPIO_G:
 509:../Drivers/STM32L4xx_HAL_Driver/Src/stm32l4xx_hal_pwr_ex.c ****        CLEAR_BIT(PWR->PUCRG, GPIONumber);
 717              		.loc 1 509 8 is_stmt 1 view .LVU151
 718 0068 084A     		ldr	r2, .L66
 719 006a 136D     		ldr	r3, [r2, #80]
 720 006c 23EA0103 		bic	r3, r3, r1
 721 0070 1365     		str	r3, [r2, #80]
 510:../Drivers/STM32L4xx_HAL_Driver/Src/stm32l4xx_hal_pwr_ex.c ****        break;
 722              		.loc 1 510 8 view .LVU152
 476:../Drivers/STM32L4xx_HAL_Driver/Src/stm32l4xx_hal_pwr_ex.c **** 
 723              		.loc 1 476 21 is_stmt 0 view .LVU153
 724 0072 0020     		movs	r0, #0
 725              	.LVL49:
 726              		.loc 1 510 8 view .LVU154
 727 0074 7047     		bx	lr
 728              	.LVL50:
 729              	.L56:
ARM GAS  Build/stm32l4xx_hal_pwr_ex.s 			page 23


 511:../Drivers/STM32L4xx_HAL_Driver/Src/stm32l4xx_hal_pwr_ex.c **** #endif
 512:../Drivers/STM32L4xx_HAL_Driver/Src/stm32l4xx_hal_pwr_ex.c ****     case PWR_GPIO_H:
 513:../Drivers/STM32L4xx_HAL_Driver/Src/stm32l4xx_hal_pwr_ex.c ****        CLEAR_BIT(PWR->PUCRH, (GPIONumber & PWR_PORTH_AVAILABLE_PINS));
 730              		.loc 1 513 8 is_stmt 1 view .LVU155
 731 0076 054A     		ldr	r2, .L66
 732 0078 936D     		ldr	r3, [r2, #88]
 733 007a 01F00301 		and	r1, r1, #3
 734              	.LVL51:
 735              		.loc 1 513 8 is_stmt 0 view .LVU156
 736 007e 23EA0103 		bic	r3, r3, r1
 737 0082 9365     		str	r3, [r2, #88]
 514:../Drivers/STM32L4xx_HAL_Driver/Src/stm32l4xx_hal_pwr_ex.c ****        break;
 738              		.loc 1 514 8 is_stmt 1 view .LVU157
 476:../Drivers/STM32L4xx_HAL_Driver/Src/stm32l4xx_hal_pwr_ex.c **** 
 739              		.loc 1 476 21 is_stmt 0 view .LVU158
 740 0084 0020     		movs	r0, #0
 741              	.LVL52:
 742              		.loc 1 514 8 view .LVU159
 743 0086 7047     		bx	lr
 744              	.LVL53:
 745              	.L65:
 481:../Drivers/STM32L4xx_HAL_Driver/Src/stm32l4xx_hal_pwr_ex.c ****   {
 746              		.loc 1 481 3 view .LVU160
 747 0088 0120     		movs	r0, #1
 748              	.LVL54:
 515:../Drivers/STM32L4xx_HAL_Driver/Src/stm32l4xx_hal_pwr_ex.c **** #if defined(GPIOI)
 516:../Drivers/STM32L4xx_HAL_Driver/Src/stm32l4xx_hal_pwr_ex.c ****     case PWR_GPIO_I:
 517:../Drivers/STM32L4xx_HAL_Driver/Src/stm32l4xx_hal_pwr_ex.c ****        CLEAR_BIT(PWR->PUCRI, (GPIONumber & PWR_PORTI_AVAILABLE_PINS));
 518:../Drivers/STM32L4xx_HAL_Driver/Src/stm32l4xx_hal_pwr_ex.c ****        break;
 519:../Drivers/STM32L4xx_HAL_Driver/Src/stm32l4xx_hal_pwr_ex.c **** #endif
 520:../Drivers/STM32L4xx_HAL_Driver/Src/stm32l4xx_hal_pwr_ex.c ****     default:
 521:../Drivers/STM32L4xx_HAL_Driver/Src/stm32l4xx_hal_pwr_ex.c ****        status = HAL_ERROR;
 522:../Drivers/STM32L4xx_HAL_Driver/Src/stm32l4xx_hal_pwr_ex.c ****        break;
 523:../Drivers/STM32L4xx_HAL_Driver/Src/stm32l4xx_hal_pwr_ex.c ****   }
 524:../Drivers/STM32L4xx_HAL_Driver/Src/stm32l4xx_hal_pwr_ex.c **** 
 525:../Drivers/STM32L4xx_HAL_Driver/Src/stm32l4xx_hal_pwr_ex.c ****   return status;
 749              		.loc 1 525 3 is_stmt 1 view .LVU161
 526:../Drivers/STM32L4xx_HAL_Driver/Src/stm32l4xx_hal_pwr_ex.c **** }
 750              		.loc 1 526 1 is_stmt 0 view .LVU162
 751 008a 7047     		bx	lr
 752              	.L67:
 753              		.align	2
 754              	.L66:
 755 008c 00700040 		.word	1073770496
 756              		.cfi_endproc
 757              	.LFE85:
 759              		.section	.text.HAL_PWREx_EnableGPIOPullDown,"ax",%progbits
 760              		.align	1
 761              		.global	HAL_PWREx_EnableGPIOPullDown
 762              		.syntax unified
 763              		.thumb
 764              		.thumb_func
 766              	HAL_PWREx_EnableGPIOPullDown:
 767              	.LVL55:
 768              	.LFB86:
 527:../Drivers/STM32L4xx_HAL_Driver/Src/stm32l4xx_hal_pwr_ex.c **** 
 528:../Drivers/STM32L4xx_HAL_Driver/Src/stm32l4xx_hal_pwr_ex.c **** 
ARM GAS  Build/stm32l4xx_hal_pwr_ex.s 			page 24


 529:../Drivers/STM32L4xx_HAL_Driver/Src/stm32l4xx_hal_pwr_ex.c **** 
 530:../Drivers/STM32L4xx_HAL_Driver/Src/stm32l4xx_hal_pwr_ex.c **** /**
 531:../Drivers/STM32L4xx_HAL_Driver/Src/stm32l4xx_hal_pwr_ex.c ****   * @brief Enable GPIO pull-down state in Standby and Shutdown modes.
 532:../Drivers/STM32L4xx_HAL_Driver/Src/stm32l4xx_hal_pwr_ex.c ****   * @note  Set the relevant PDy bits of PWR_PDCRx register to configure the I/O in
 533:../Drivers/STM32L4xx_HAL_Driver/Src/stm32l4xx_hal_pwr_ex.c ****   *        pull-down state in Standby and Shutdown modes.
 534:../Drivers/STM32L4xx_HAL_Driver/Src/stm32l4xx_hal_pwr_ex.c ****   * @note  This state is effective in Standby and Shutdown modes only if APC bit
 535:../Drivers/STM32L4xx_HAL_Driver/Src/stm32l4xx_hal_pwr_ex.c ****   *        is set through HAL_PWREx_EnablePullUpPullDownConfig() API.
 536:../Drivers/STM32L4xx_HAL_Driver/Src/stm32l4xx_hal_pwr_ex.c ****   * @note  The configuration is lost when exiting the Shutdown mode due to the
 537:../Drivers/STM32L4xx_HAL_Driver/Src/stm32l4xx_hal_pwr_ex.c ****   *        power-on reset, maintained when exiting the Standby mode.
 538:../Drivers/STM32L4xx_HAL_Driver/Src/stm32l4xx_hal_pwr_ex.c ****   * @note  To avoid any conflict at Standby and Shutdown modes exits, the corresponding
 539:../Drivers/STM32L4xx_HAL_Driver/Src/stm32l4xx_hal_pwr_ex.c ****   *        PUy bit of PWR_PUCRx register is cleared unless it is reserved.
 540:../Drivers/STM32L4xx_HAL_Driver/Src/stm32l4xx_hal_pwr_ex.c ****   * @note  Even if a PDy bit to set is reserved, the other PDy bits entered as input
 541:../Drivers/STM32L4xx_HAL_Driver/Src/stm32l4xx_hal_pwr_ex.c ****   *        parameter at the same time are set.
 542:../Drivers/STM32L4xx_HAL_Driver/Src/stm32l4xx_hal_pwr_ex.c ****   * @param  GPIO Specify the IO port. This parameter can be PWR_GPIO_A..PWR_GPIO_H
 543:../Drivers/STM32L4xx_HAL_Driver/Src/stm32l4xx_hal_pwr_ex.c ****   *         (or PWR_GPIO_I depending on the devices) to select the GPIO peripheral.
 544:../Drivers/STM32L4xx_HAL_Driver/Src/stm32l4xx_hal_pwr_ex.c ****   * @param  GPIONumber Specify the I/O pins numbers.
 545:../Drivers/STM32L4xx_HAL_Driver/Src/stm32l4xx_hal_pwr_ex.c ****   *         This parameter can be one of the following values:
 546:../Drivers/STM32L4xx_HAL_Driver/Src/stm32l4xx_hal_pwr_ex.c ****   *         PWR_GPIO_BIT_0, ..., PWR_GPIO_BIT_15 (except for the port where less
 547:../Drivers/STM32L4xx_HAL_Driver/Src/stm32l4xx_hal_pwr_ex.c ****   *         I/O pins are available) or the logical OR of several of them to set
 548:../Drivers/STM32L4xx_HAL_Driver/Src/stm32l4xx_hal_pwr_ex.c ****   *         several bits for a given port in a single API call.
 549:../Drivers/STM32L4xx_HAL_Driver/Src/stm32l4xx_hal_pwr_ex.c ****   * @retval HAL Status
 550:../Drivers/STM32L4xx_HAL_Driver/Src/stm32l4xx_hal_pwr_ex.c ****   */
 551:../Drivers/STM32L4xx_HAL_Driver/Src/stm32l4xx_hal_pwr_ex.c **** HAL_StatusTypeDef HAL_PWREx_EnableGPIOPullDown(uint32_t GPIO, uint32_t GPIONumber)
 552:../Drivers/STM32L4xx_HAL_Driver/Src/stm32l4xx_hal_pwr_ex.c **** {
 769              		.loc 1 552 1 is_stmt 1 view -0
 770              		.cfi_startproc
 771              		@ args = 0, pretend = 0, frame = 0
 772              		@ frame_needed = 0, uses_anonymous_args = 0
 773              		@ link register save eliminated.
 553:../Drivers/STM32L4xx_HAL_Driver/Src/stm32l4xx_hal_pwr_ex.c ****   HAL_StatusTypeDef status = HAL_OK;
 774              		.loc 1 553 3 view .LVU164
 554:../Drivers/STM32L4xx_HAL_Driver/Src/stm32l4xx_hal_pwr_ex.c **** 
 555:../Drivers/STM32L4xx_HAL_Driver/Src/stm32l4xx_hal_pwr_ex.c ****   assert_param(IS_PWR_GPIO(GPIO));
 775              		.loc 1 555 3 view .LVU165
 556:../Drivers/STM32L4xx_HAL_Driver/Src/stm32l4xx_hal_pwr_ex.c ****   assert_param(IS_PWR_GPIO_BIT_NUMBER(GPIONumber));
 776              		.loc 1 556 3 view .LVU166
 557:../Drivers/STM32L4xx_HAL_Driver/Src/stm32l4xx_hal_pwr_ex.c **** 
 558:../Drivers/STM32L4xx_HAL_Driver/Src/stm32l4xx_hal_pwr_ex.c ****   switch (GPIO)
 777              		.loc 1 558 3 view .LVU167
 778 0000 0728     		cmp	r0, #7
 779 0002 5DD8     		bhi	.L79
 780 0004 DFE800F0 		tbb	[pc, r0]
 781              	.L71:
 782 0008 04       		.byte	(.L78-.L71)/2
 783 0009 12       		.byte	(.L77-.L71)/2
 784 000a 1E       		.byte	(.L76-.L71)/2
 785 000b 28       		.byte	(.L75-.L71)/2
 786 000c 32       		.byte	(.L74-.L71)/2
 787 000d 3C       		.byte	(.L73-.L71)/2
 788 000e 46       		.byte	(.L72-.L71)/2
 789 000f 50       		.byte	(.L70-.L71)/2
 790              		.p2align 1
 791              	.L78:
 559:../Drivers/STM32L4xx_HAL_Driver/Src/stm32l4xx_hal_pwr_ex.c ****   {
 560:../Drivers/STM32L4xx_HAL_Driver/Src/stm32l4xx_hal_pwr_ex.c ****     case PWR_GPIO_A:
 561:../Drivers/STM32L4xx_HAL_Driver/Src/stm32l4xx_hal_pwr_ex.c ****        SET_BIT(PWR->PDCRA, (GPIONumber & (~(PWR_GPIO_BIT_13|PWR_GPIO_BIT_15))));
 792              		.loc 1 561 8 view .LVU168
ARM GAS  Build/stm32l4xx_hal_pwr_ex.s 			page 25


 793 0010 2C4B     		ldr	r3, .L80
 794 0012 5A6A     		ldr	r2, [r3, #36]
 795 0014 21F42040 		bic	r0, r1, #40960
 796              	.LVL56:
 797              		.loc 1 561 8 is_stmt 0 view .LVU169
 798 0018 0243     		orrs	r2, r2, r0
 799 001a 5A62     		str	r2, [r3, #36]
 562:../Drivers/STM32L4xx_HAL_Driver/Src/stm32l4xx_hal_pwr_ex.c ****        CLEAR_BIT(PWR->PUCRA, (GPIONumber & (~(PWR_GPIO_BIT_14))));
 800              		.loc 1 562 8 is_stmt 1 view .LVU170
 801 001c 1A6A     		ldr	r2, [r3, #32]
 802 001e 21F48041 		bic	r1, r1, #16384
 803              	.LVL57:
 804              		.loc 1 562 8 is_stmt 0 view .LVU171
 805 0022 22EA0102 		bic	r2, r2, r1
 806 0026 1A62     		str	r2, [r3, #32]
 563:../Drivers/STM32L4xx_HAL_Driver/Src/stm32l4xx_hal_pwr_ex.c ****        break;
 807              		.loc 1 563 8 is_stmt 1 view .LVU172
 553:../Drivers/STM32L4xx_HAL_Driver/Src/stm32l4xx_hal_pwr_ex.c **** 
 808              		.loc 1 553 21 is_stmt 0 view .LVU173
 809 0028 0020     		movs	r0, #0
 810              		.loc 1 563 8 view .LVU174
 811 002a 7047     		bx	lr
 812              	.LVL58:
 813              	.L77:
 564:../Drivers/STM32L4xx_HAL_Driver/Src/stm32l4xx_hal_pwr_ex.c ****     case PWR_GPIO_B:
 565:../Drivers/STM32L4xx_HAL_Driver/Src/stm32l4xx_hal_pwr_ex.c ****        SET_BIT(PWR->PDCRB, (GPIONumber & (~(PWR_GPIO_BIT_4))));
 814              		.loc 1 565 8 is_stmt 1 view .LVU175
 815 002c 254B     		ldr	r3, .L80
 816 002e DA6A     		ldr	r2, [r3, #44]
 817 0030 21F01000 		bic	r0, r1, #16
 818              	.LVL59:
 819              		.loc 1 565 8 is_stmt 0 view .LVU176
 820 0034 0243     		orrs	r2, r2, r0
 821 0036 DA62     		str	r2, [r3, #44]
 566:../Drivers/STM32L4xx_HAL_Driver/Src/stm32l4xx_hal_pwr_ex.c ****        CLEAR_BIT(PWR->PUCRB, GPIONumber);
 822              		.loc 1 566 8 is_stmt 1 view .LVU177
 823 0038 9A6A     		ldr	r2, [r3, #40]
 824 003a 22EA0102 		bic	r2, r2, r1
 825 003e 9A62     		str	r2, [r3, #40]
 567:../Drivers/STM32L4xx_HAL_Driver/Src/stm32l4xx_hal_pwr_ex.c ****        break;
 826              		.loc 1 567 8 view .LVU178
 553:../Drivers/STM32L4xx_HAL_Driver/Src/stm32l4xx_hal_pwr_ex.c **** 
 827              		.loc 1 553 21 is_stmt 0 view .LVU179
 828 0040 0020     		movs	r0, #0
 829              		.loc 1 567 8 view .LVU180
 830 0042 7047     		bx	lr
 831              	.LVL60:
 832              	.L76:
 568:../Drivers/STM32L4xx_HAL_Driver/Src/stm32l4xx_hal_pwr_ex.c ****     case PWR_GPIO_C:
 569:../Drivers/STM32L4xx_HAL_Driver/Src/stm32l4xx_hal_pwr_ex.c ****        SET_BIT(PWR->PDCRC, GPIONumber);
 833              		.loc 1 569 8 is_stmt 1 view .LVU181
 834 0044 1F4B     		ldr	r3, .L80
 835 0046 5A6B     		ldr	r2, [r3, #52]
 836 0048 0A43     		orrs	r2, r2, r1
 837 004a 5A63     		str	r2, [r3, #52]
 570:../Drivers/STM32L4xx_HAL_Driver/Src/stm32l4xx_hal_pwr_ex.c ****        CLEAR_BIT(PWR->PUCRC, GPIONumber);
 838              		.loc 1 570 8 view .LVU182
ARM GAS  Build/stm32l4xx_hal_pwr_ex.s 			page 26


 839 004c 1A6B     		ldr	r2, [r3, #48]
 840 004e 22EA0102 		bic	r2, r2, r1
 841 0052 1A63     		str	r2, [r3, #48]
 571:../Drivers/STM32L4xx_HAL_Driver/Src/stm32l4xx_hal_pwr_ex.c ****        break;
 842              		.loc 1 571 8 view .LVU183
 553:../Drivers/STM32L4xx_HAL_Driver/Src/stm32l4xx_hal_pwr_ex.c **** 
 843              		.loc 1 553 21 is_stmt 0 view .LVU184
 844 0054 0020     		movs	r0, #0
 845              	.LVL61:
 846              		.loc 1 571 8 view .LVU185
 847 0056 7047     		bx	lr
 848              	.LVL62:
 849              	.L75:
 572:../Drivers/STM32L4xx_HAL_Driver/Src/stm32l4xx_hal_pwr_ex.c **** #if defined(GPIOD)
 573:../Drivers/STM32L4xx_HAL_Driver/Src/stm32l4xx_hal_pwr_ex.c ****     case PWR_GPIO_D:
 574:../Drivers/STM32L4xx_HAL_Driver/Src/stm32l4xx_hal_pwr_ex.c ****        SET_BIT(PWR->PDCRD, GPIONumber);
 850              		.loc 1 574 8 is_stmt 1 view .LVU186
 851 0058 1A4B     		ldr	r3, .L80
 852 005a DA6B     		ldr	r2, [r3, #60]
 853 005c 0A43     		orrs	r2, r2, r1
 854 005e DA63     		str	r2, [r3, #60]
 575:../Drivers/STM32L4xx_HAL_Driver/Src/stm32l4xx_hal_pwr_ex.c ****        CLEAR_BIT(PWR->PUCRD, GPIONumber);
 855              		.loc 1 575 8 view .LVU187
 856 0060 9A6B     		ldr	r2, [r3, #56]
 857 0062 22EA0102 		bic	r2, r2, r1
 858 0066 9A63     		str	r2, [r3, #56]
 576:../Drivers/STM32L4xx_HAL_Driver/Src/stm32l4xx_hal_pwr_ex.c ****        break;
 859              		.loc 1 576 8 view .LVU188
 553:../Drivers/STM32L4xx_HAL_Driver/Src/stm32l4xx_hal_pwr_ex.c **** 
 860              		.loc 1 553 21 is_stmt 0 view .LVU189
 861 0068 0020     		movs	r0, #0
 862              	.LVL63:
 863              		.loc 1 576 8 view .LVU190
 864 006a 7047     		bx	lr
 865              	.LVL64:
 866              	.L74:
 577:../Drivers/STM32L4xx_HAL_Driver/Src/stm32l4xx_hal_pwr_ex.c **** #endif
 578:../Drivers/STM32L4xx_HAL_Driver/Src/stm32l4xx_hal_pwr_ex.c **** #if defined(GPIOE)
 579:../Drivers/STM32L4xx_HAL_Driver/Src/stm32l4xx_hal_pwr_ex.c ****     case PWR_GPIO_E:
 580:../Drivers/STM32L4xx_HAL_Driver/Src/stm32l4xx_hal_pwr_ex.c ****        SET_BIT(PWR->PDCRE, GPIONumber);
 867              		.loc 1 580 8 is_stmt 1 view .LVU191
 868 006c 154B     		ldr	r3, .L80
 869 006e 5A6C     		ldr	r2, [r3, #68]
 870 0070 0A43     		orrs	r2, r2, r1
 871 0072 5A64     		str	r2, [r3, #68]
 581:../Drivers/STM32L4xx_HAL_Driver/Src/stm32l4xx_hal_pwr_ex.c ****        CLEAR_BIT(PWR->PUCRE, GPIONumber);
 872              		.loc 1 581 8 view .LVU192
 873 0074 1A6C     		ldr	r2, [r3, #64]
 874 0076 22EA0102 		bic	r2, r2, r1
 875 007a 1A64     		str	r2, [r3, #64]
 582:../Drivers/STM32L4xx_HAL_Driver/Src/stm32l4xx_hal_pwr_ex.c ****        break;
 876              		.loc 1 582 8 view .LVU193
 553:../Drivers/STM32L4xx_HAL_Driver/Src/stm32l4xx_hal_pwr_ex.c **** 
 877              		.loc 1 553 21 is_stmt 0 view .LVU194
 878 007c 0020     		movs	r0, #0
 879              	.LVL65:
 880              		.loc 1 582 8 view .LVU195
ARM GAS  Build/stm32l4xx_hal_pwr_ex.s 			page 27


 881 007e 7047     		bx	lr
 882              	.LVL66:
 883              	.L73:
 583:../Drivers/STM32L4xx_HAL_Driver/Src/stm32l4xx_hal_pwr_ex.c **** #endif
 584:../Drivers/STM32L4xx_HAL_Driver/Src/stm32l4xx_hal_pwr_ex.c **** #if defined(GPIOF)
 585:../Drivers/STM32L4xx_HAL_Driver/Src/stm32l4xx_hal_pwr_ex.c ****     case PWR_GPIO_F:
 586:../Drivers/STM32L4xx_HAL_Driver/Src/stm32l4xx_hal_pwr_ex.c ****        SET_BIT(PWR->PDCRF, GPIONumber);
 884              		.loc 1 586 8 is_stmt 1 view .LVU196
 885 0080 104B     		ldr	r3, .L80
 886 0082 DA6C     		ldr	r2, [r3, #76]
 887 0084 0A43     		orrs	r2, r2, r1
 888 0086 DA64     		str	r2, [r3, #76]
 587:../Drivers/STM32L4xx_HAL_Driver/Src/stm32l4xx_hal_pwr_ex.c ****        CLEAR_BIT(PWR->PUCRF, GPIONumber);
 889              		.loc 1 587 8 view .LVU197
 890 0088 9A6C     		ldr	r2, [r3, #72]
 891 008a 22EA0102 		bic	r2, r2, r1
 892 008e 9A64     		str	r2, [r3, #72]
 588:../Drivers/STM32L4xx_HAL_Driver/Src/stm32l4xx_hal_pwr_ex.c ****        break;
 893              		.loc 1 588 8 view .LVU198
 553:../Drivers/STM32L4xx_HAL_Driver/Src/stm32l4xx_hal_pwr_ex.c **** 
 894              		.loc 1 553 21 is_stmt 0 view .LVU199
 895 0090 0020     		movs	r0, #0
 896              	.LVL67:
 897              		.loc 1 588 8 view .LVU200
 898 0092 7047     		bx	lr
 899              	.LVL68:
 900              	.L72:
 589:../Drivers/STM32L4xx_HAL_Driver/Src/stm32l4xx_hal_pwr_ex.c **** #endif
 590:../Drivers/STM32L4xx_HAL_Driver/Src/stm32l4xx_hal_pwr_ex.c **** #if defined(GPIOG)
 591:../Drivers/STM32L4xx_HAL_Driver/Src/stm32l4xx_hal_pwr_ex.c ****     case PWR_GPIO_G:
 592:../Drivers/STM32L4xx_HAL_Driver/Src/stm32l4xx_hal_pwr_ex.c ****        SET_BIT(PWR->PDCRG, GPIONumber);
 901              		.loc 1 592 8 is_stmt 1 view .LVU201
 902 0094 0B4B     		ldr	r3, .L80
 903 0096 5A6D     		ldr	r2, [r3, #84]
 904 0098 0A43     		orrs	r2, r2, r1
 905 009a 5A65     		str	r2, [r3, #84]
 593:../Drivers/STM32L4xx_HAL_Driver/Src/stm32l4xx_hal_pwr_ex.c ****        CLEAR_BIT(PWR->PUCRG, GPIONumber);
 906              		.loc 1 593 8 view .LVU202
 907 009c 1A6D     		ldr	r2, [r3, #80]
 908 009e 22EA0102 		bic	r2, r2, r1
 909 00a2 1A65     		str	r2, [r3, #80]
 594:../Drivers/STM32L4xx_HAL_Driver/Src/stm32l4xx_hal_pwr_ex.c ****        break;
 910              		.loc 1 594 8 view .LVU203
 553:../Drivers/STM32L4xx_HAL_Driver/Src/stm32l4xx_hal_pwr_ex.c **** 
 911              		.loc 1 553 21 is_stmt 0 view .LVU204
 912 00a4 0020     		movs	r0, #0
 913              	.LVL69:
 914              		.loc 1 594 8 view .LVU205
 915 00a6 7047     		bx	lr
 916              	.LVL70:
 917              	.L70:
 595:../Drivers/STM32L4xx_HAL_Driver/Src/stm32l4xx_hal_pwr_ex.c **** #endif
 596:../Drivers/STM32L4xx_HAL_Driver/Src/stm32l4xx_hal_pwr_ex.c ****     case PWR_GPIO_H:
 597:../Drivers/STM32L4xx_HAL_Driver/Src/stm32l4xx_hal_pwr_ex.c **** #if defined (STM32L496xx) || defined (STM32L4A6xx)
 598:../Drivers/STM32L4xx_HAL_Driver/Src/stm32l4xx_hal_pwr_ex.c ****        SET_BIT(PWR->PDCRH, ((GPIONumber & PWR_PORTH_AVAILABLE_PINS) & (~(PWR_GPIO_BIT_3))));
 599:../Drivers/STM32L4xx_HAL_Driver/Src/stm32l4xx_hal_pwr_ex.c **** #else
 600:../Drivers/STM32L4xx_HAL_Driver/Src/stm32l4xx_hal_pwr_ex.c ****        SET_BIT(PWR->PDCRH, (GPIONumber & PWR_PORTH_AVAILABLE_PINS));
ARM GAS  Build/stm32l4xx_hal_pwr_ex.s 			page 28


 918              		.loc 1 600 8 is_stmt 1 view .LVU206
 919 00a8 064B     		ldr	r3, .L80
 920 00aa DA6D     		ldr	r2, [r3, #92]
 921 00ac 01F00301 		and	r1, r1, #3
 922              	.LVL71:
 923              		.loc 1 600 8 is_stmt 0 view .LVU207
 924 00b0 0A43     		orrs	r2, r2, r1
 925 00b2 DA65     		str	r2, [r3, #92]
 601:../Drivers/STM32L4xx_HAL_Driver/Src/stm32l4xx_hal_pwr_ex.c **** #endif
 602:../Drivers/STM32L4xx_HAL_Driver/Src/stm32l4xx_hal_pwr_ex.c ****        CLEAR_BIT(PWR->PUCRH, (GPIONumber & PWR_PORTH_AVAILABLE_PINS));
 926              		.loc 1 602 8 is_stmt 1 view .LVU208
 927 00b4 9A6D     		ldr	r2, [r3, #88]
 928 00b6 22EA0102 		bic	r2, r2, r1
 929 00ba 9A65     		str	r2, [r3, #88]
 603:../Drivers/STM32L4xx_HAL_Driver/Src/stm32l4xx_hal_pwr_ex.c ****        break;
 930              		.loc 1 603 8 view .LVU209
 553:../Drivers/STM32L4xx_HAL_Driver/Src/stm32l4xx_hal_pwr_ex.c **** 
 931              		.loc 1 553 21 is_stmt 0 view .LVU210
 932 00bc 0020     		movs	r0, #0
 933              	.LVL72:
 934              		.loc 1 603 8 view .LVU211
 935 00be 7047     		bx	lr
 936              	.LVL73:
 937              	.L79:
 558:../Drivers/STM32L4xx_HAL_Driver/Src/stm32l4xx_hal_pwr_ex.c ****   {
 938              		.loc 1 558 3 view .LVU212
 939 00c0 0120     		movs	r0, #1
 940              	.LVL74:
 604:../Drivers/STM32L4xx_HAL_Driver/Src/stm32l4xx_hal_pwr_ex.c **** #if defined(GPIOI)
 605:../Drivers/STM32L4xx_HAL_Driver/Src/stm32l4xx_hal_pwr_ex.c ****     case PWR_GPIO_I:
 606:../Drivers/STM32L4xx_HAL_Driver/Src/stm32l4xx_hal_pwr_ex.c ****        SET_BIT(PWR->PDCRI, (GPIONumber & PWR_PORTI_AVAILABLE_PINS));
 607:../Drivers/STM32L4xx_HAL_Driver/Src/stm32l4xx_hal_pwr_ex.c ****        CLEAR_BIT(PWR->PUCRI, (GPIONumber & PWR_PORTI_AVAILABLE_PINS));
 608:../Drivers/STM32L4xx_HAL_Driver/Src/stm32l4xx_hal_pwr_ex.c ****        break;
 609:../Drivers/STM32L4xx_HAL_Driver/Src/stm32l4xx_hal_pwr_ex.c **** #endif
 610:../Drivers/STM32L4xx_HAL_Driver/Src/stm32l4xx_hal_pwr_ex.c ****     default:
 611:../Drivers/STM32L4xx_HAL_Driver/Src/stm32l4xx_hal_pwr_ex.c ****       status = HAL_ERROR;
 612:../Drivers/STM32L4xx_HAL_Driver/Src/stm32l4xx_hal_pwr_ex.c ****       break;
 613:../Drivers/STM32L4xx_HAL_Driver/Src/stm32l4xx_hal_pwr_ex.c ****   }
 614:../Drivers/STM32L4xx_HAL_Driver/Src/stm32l4xx_hal_pwr_ex.c **** 
 615:../Drivers/STM32L4xx_HAL_Driver/Src/stm32l4xx_hal_pwr_ex.c ****   return status;
 941              		.loc 1 615 3 is_stmt 1 view .LVU213
 616:../Drivers/STM32L4xx_HAL_Driver/Src/stm32l4xx_hal_pwr_ex.c **** }
 942              		.loc 1 616 1 is_stmt 0 view .LVU214
 943 00c2 7047     		bx	lr
 944              	.L81:
 945              		.align	2
 946              	.L80:
 947 00c4 00700040 		.word	1073770496
 948              		.cfi_endproc
 949              	.LFE86:
 951              		.section	.text.HAL_PWREx_DisableGPIOPullDown,"ax",%progbits
 952              		.align	1
 953              		.global	HAL_PWREx_DisableGPIOPullDown
 954              		.syntax unified
 955              		.thumb
 956              		.thumb_func
 958              	HAL_PWREx_DisableGPIOPullDown:
ARM GAS  Build/stm32l4xx_hal_pwr_ex.s 			page 29


 959              	.LVL75:
 960              	.LFB87:
 617:../Drivers/STM32L4xx_HAL_Driver/Src/stm32l4xx_hal_pwr_ex.c **** 
 618:../Drivers/STM32L4xx_HAL_Driver/Src/stm32l4xx_hal_pwr_ex.c **** 
 619:../Drivers/STM32L4xx_HAL_Driver/Src/stm32l4xx_hal_pwr_ex.c **** /**
 620:../Drivers/STM32L4xx_HAL_Driver/Src/stm32l4xx_hal_pwr_ex.c ****   * @brief Disable GPIO pull-down state in Standby and Shutdown modes.
 621:../Drivers/STM32L4xx_HAL_Driver/Src/stm32l4xx_hal_pwr_ex.c ****   * @note  Reset the relevant PDy bits of PWR_PDCRx register used to configure the I/O
 622:../Drivers/STM32L4xx_HAL_Driver/Src/stm32l4xx_hal_pwr_ex.c ****   *        in pull-down state in Standby and Shutdown modes.
 623:../Drivers/STM32L4xx_HAL_Driver/Src/stm32l4xx_hal_pwr_ex.c ****   * @note  Even if a PDy bit to reset is reserved, the other PDy bits entered as input
 624:../Drivers/STM32L4xx_HAL_Driver/Src/stm32l4xx_hal_pwr_ex.c ****   *        parameter at the same time are reset.
 625:../Drivers/STM32L4xx_HAL_Driver/Src/stm32l4xx_hal_pwr_ex.c ****   * @param  GPIO Specifies the IO port. This parameter can be PWR_GPIO_A..PWR_GPIO_H
 626:../Drivers/STM32L4xx_HAL_Driver/Src/stm32l4xx_hal_pwr_ex.c ****   *         (or PWR_GPIO_I depending on the devices) to select the GPIO peripheral.
 627:../Drivers/STM32L4xx_HAL_Driver/Src/stm32l4xx_hal_pwr_ex.c ****   * @param  GPIONumber Specify the I/O pins numbers.
 628:../Drivers/STM32L4xx_HAL_Driver/Src/stm32l4xx_hal_pwr_ex.c ****   *         This parameter can be one of the following values:
 629:../Drivers/STM32L4xx_HAL_Driver/Src/stm32l4xx_hal_pwr_ex.c ****   *         PWR_GPIO_BIT_0, ..., PWR_GPIO_BIT_15 (except for the port where less
 630:../Drivers/STM32L4xx_HAL_Driver/Src/stm32l4xx_hal_pwr_ex.c ****   *         I/O pins are available) or the logical OR of several of them to reset
 631:../Drivers/STM32L4xx_HAL_Driver/Src/stm32l4xx_hal_pwr_ex.c ****   *         several bits for a given port in a single API call.
 632:../Drivers/STM32L4xx_HAL_Driver/Src/stm32l4xx_hal_pwr_ex.c ****   * @retval HAL Status
 633:../Drivers/STM32L4xx_HAL_Driver/Src/stm32l4xx_hal_pwr_ex.c ****   */
 634:../Drivers/STM32L4xx_HAL_Driver/Src/stm32l4xx_hal_pwr_ex.c **** HAL_StatusTypeDef HAL_PWREx_DisableGPIOPullDown(uint32_t GPIO, uint32_t GPIONumber)
 635:../Drivers/STM32L4xx_HAL_Driver/Src/stm32l4xx_hal_pwr_ex.c **** {
 961              		.loc 1 635 1 is_stmt 1 view -0
 962              		.cfi_startproc
 963              		@ args = 0, pretend = 0, frame = 0
 964              		@ frame_needed = 0, uses_anonymous_args = 0
 965              		@ link register save eliminated.
 636:../Drivers/STM32L4xx_HAL_Driver/Src/stm32l4xx_hal_pwr_ex.c ****   HAL_StatusTypeDef status = HAL_OK;
 966              		.loc 1 636 3 view .LVU216
 637:../Drivers/STM32L4xx_HAL_Driver/Src/stm32l4xx_hal_pwr_ex.c **** 
 638:../Drivers/STM32L4xx_HAL_Driver/Src/stm32l4xx_hal_pwr_ex.c ****   assert_param(IS_PWR_GPIO(GPIO));
 967              		.loc 1 638 3 view .LVU217
 639:../Drivers/STM32L4xx_HAL_Driver/Src/stm32l4xx_hal_pwr_ex.c ****   assert_param(IS_PWR_GPIO_BIT_NUMBER(GPIONumber));
 968              		.loc 1 639 3 view .LVU218
 640:../Drivers/STM32L4xx_HAL_Driver/Src/stm32l4xx_hal_pwr_ex.c **** 
 641:../Drivers/STM32L4xx_HAL_Driver/Src/stm32l4xx_hal_pwr_ex.c ****   switch (GPIO)
 969              		.loc 1 641 3 view .LVU219
 970 0000 0728     		cmp	r0, #7
 971 0002 43D8     		bhi	.L93
 972 0004 DFE800F0 		tbb	[pc, r0]
 973              	.L85:
 974 0008 04       		.byte	(.L92-.L85)/2
 975 0009 0D       		.byte	(.L91-.L85)/2
 976 000a 16       		.byte	(.L90-.L85)/2
 977 000b 1D       		.byte	(.L89-.L85)/2
 978 000c 24       		.byte	(.L88-.L85)/2
 979 000d 2B       		.byte	(.L87-.L85)/2
 980 000e 32       		.byte	(.L86-.L85)/2
 981 000f 39       		.byte	(.L84-.L85)/2
 982              		.p2align 1
 983              	.L92:
 642:../Drivers/STM32L4xx_HAL_Driver/Src/stm32l4xx_hal_pwr_ex.c ****   {
 643:../Drivers/STM32L4xx_HAL_Driver/Src/stm32l4xx_hal_pwr_ex.c ****     case PWR_GPIO_A:
 644:../Drivers/STM32L4xx_HAL_Driver/Src/stm32l4xx_hal_pwr_ex.c ****        CLEAR_BIT(PWR->PDCRA, (GPIONumber & (~(PWR_GPIO_BIT_13|PWR_GPIO_BIT_15))));
 984              		.loc 1 644 8 view .LVU220
 985 0010 1F4A     		ldr	r2, .L94
 986 0012 536A     		ldr	r3, [r2, #36]
 987 0014 21F42041 		bic	r1, r1, #40960
ARM GAS  Build/stm32l4xx_hal_pwr_ex.s 			page 30


 988              	.LVL76:
 989              		.loc 1 644 8 is_stmt 0 view .LVU221
 990 0018 23EA0101 		bic	r1, r3, r1
 991 001c 5162     		str	r1, [r2, #36]
 645:../Drivers/STM32L4xx_HAL_Driver/Src/stm32l4xx_hal_pwr_ex.c ****        break;
 992              		.loc 1 645 8 is_stmt 1 view .LVU222
 636:../Drivers/STM32L4xx_HAL_Driver/Src/stm32l4xx_hal_pwr_ex.c **** 
 993              		.loc 1 636 21 is_stmt 0 view .LVU223
 994 001e 0020     		movs	r0, #0
 995              	.LVL77:
 996              		.loc 1 645 8 view .LVU224
 997 0020 7047     		bx	lr
 998              	.LVL78:
 999              	.L91:
 646:../Drivers/STM32L4xx_HAL_Driver/Src/stm32l4xx_hal_pwr_ex.c ****     case PWR_GPIO_B:
 647:../Drivers/STM32L4xx_HAL_Driver/Src/stm32l4xx_hal_pwr_ex.c ****        CLEAR_BIT(PWR->PDCRB, (GPIONumber & (~(PWR_GPIO_BIT_4))));
 1000              		.loc 1 647 8 is_stmt 1 view .LVU225
 1001 0022 1B4A     		ldr	r2, .L94
 1002 0024 D36A     		ldr	r3, [r2, #44]
 1003 0026 21F01001 		bic	r1, r1, #16
 1004              	.LVL79:
 1005              		.loc 1 647 8 is_stmt 0 view .LVU226
 1006 002a 23EA0101 		bic	r1, r3, r1
 1007 002e D162     		str	r1, [r2, #44]
 648:../Drivers/STM32L4xx_HAL_Driver/Src/stm32l4xx_hal_pwr_ex.c ****        break;
 1008              		.loc 1 648 8 is_stmt 1 view .LVU227
 636:../Drivers/STM32L4xx_HAL_Driver/Src/stm32l4xx_hal_pwr_ex.c **** 
 1009              		.loc 1 636 21 is_stmt 0 view .LVU228
 1010 0030 0020     		movs	r0, #0
 1011              	.LVL80:
 1012              		.loc 1 648 8 view .LVU229
 1013 0032 7047     		bx	lr
 1014              	.LVL81:
 1015              	.L90:
 649:../Drivers/STM32L4xx_HAL_Driver/Src/stm32l4xx_hal_pwr_ex.c ****     case PWR_GPIO_C:
 650:../Drivers/STM32L4xx_HAL_Driver/Src/stm32l4xx_hal_pwr_ex.c ****        CLEAR_BIT(PWR->PDCRC, GPIONumber);
 1016              		.loc 1 650 8 is_stmt 1 view .LVU230
 1017 0034 164A     		ldr	r2, .L94
 1018 0036 536B     		ldr	r3, [r2, #52]
 1019 0038 23EA0103 		bic	r3, r3, r1
 1020 003c 5363     		str	r3, [r2, #52]
 651:../Drivers/STM32L4xx_HAL_Driver/Src/stm32l4xx_hal_pwr_ex.c ****        break;
 1021              		.loc 1 651 8 view .LVU231
 636:../Drivers/STM32L4xx_HAL_Driver/Src/stm32l4xx_hal_pwr_ex.c **** 
 1022              		.loc 1 636 21 is_stmt 0 view .LVU232
 1023 003e 0020     		movs	r0, #0
 1024              	.LVL82:
 1025              		.loc 1 651 8 view .LVU233
 1026 0040 7047     		bx	lr
 1027              	.LVL83:
 1028              	.L89:
 652:../Drivers/STM32L4xx_HAL_Driver/Src/stm32l4xx_hal_pwr_ex.c **** #if defined(GPIOD)
 653:../Drivers/STM32L4xx_HAL_Driver/Src/stm32l4xx_hal_pwr_ex.c ****     case PWR_GPIO_D:
 654:../Drivers/STM32L4xx_HAL_Driver/Src/stm32l4xx_hal_pwr_ex.c ****        CLEAR_BIT(PWR->PDCRD, GPIONumber);
 1029              		.loc 1 654 8 is_stmt 1 view .LVU234
 1030 0042 134A     		ldr	r2, .L94
 1031 0044 D36B     		ldr	r3, [r2, #60]
ARM GAS  Build/stm32l4xx_hal_pwr_ex.s 			page 31


 1032 0046 23EA0103 		bic	r3, r3, r1
 1033 004a D363     		str	r3, [r2, #60]
 655:../Drivers/STM32L4xx_HAL_Driver/Src/stm32l4xx_hal_pwr_ex.c ****        break;
 1034              		.loc 1 655 8 view .LVU235
 636:../Drivers/STM32L4xx_HAL_Driver/Src/stm32l4xx_hal_pwr_ex.c **** 
 1035              		.loc 1 636 21 is_stmt 0 view .LVU236
 1036 004c 0020     		movs	r0, #0
 1037              	.LVL84:
 1038              		.loc 1 655 8 view .LVU237
 1039 004e 7047     		bx	lr
 1040              	.LVL85:
 1041              	.L88:
 656:../Drivers/STM32L4xx_HAL_Driver/Src/stm32l4xx_hal_pwr_ex.c **** #endif
 657:../Drivers/STM32L4xx_HAL_Driver/Src/stm32l4xx_hal_pwr_ex.c **** #if defined(GPIOE)
 658:../Drivers/STM32L4xx_HAL_Driver/Src/stm32l4xx_hal_pwr_ex.c ****     case PWR_GPIO_E:
 659:../Drivers/STM32L4xx_HAL_Driver/Src/stm32l4xx_hal_pwr_ex.c ****        CLEAR_BIT(PWR->PDCRE, GPIONumber);
 1042              		.loc 1 659 8 is_stmt 1 view .LVU238
 1043 0050 0F4A     		ldr	r2, .L94
 1044 0052 536C     		ldr	r3, [r2, #68]
 1045 0054 23EA0103 		bic	r3, r3, r1
 1046 0058 5364     		str	r3, [r2, #68]
 660:../Drivers/STM32L4xx_HAL_Driver/Src/stm32l4xx_hal_pwr_ex.c ****        break;
 1047              		.loc 1 660 8 view .LVU239
 636:../Drivers/STM32L4xx_HAL_Driver/Src/stm32l4xx_hal_pwr_ex.c **** 
 1048              		.loc 1 636 21 is_stmt 0 view .LVU240
 1049 005a 0020     		movs	r0, #0
 1050              	.LVL86:
 1051              		.loc 1 660 8 view .LVU241
 1052 005c 7047     		bx	lr
 1053              	.LVL87:
 1054              	.L87:
 661:../Drivers/STM32L4xx_HAL_Driver/Src/stm32l4xx_hal_pwr_ex.c **** #endif
 662:../Drivers/STM32L4xx_HAL_Driver/Src/stm32l4xx_hal_pwr_ex.c **** #if defined(GPIOF)
 663:../Drivers/STM32L4xx_HAL_Driver/Src/stm32l4xx_hal_pwr_ex.c ****     case PWR_GPIO_F:
 664:../Drivers/STM32L4xx_HAL_Driver/Src/stm32l4xx_hal_pwr_ex.c ****        CLEAR_BIT(PWR->PDCRF, GPIONumber);
 1055              		.loc 1 664 8 is_stmt 1 view .LVU242
 1056 005e 0C4A     		ldr	r2, .L94
 1057 0060 D36C     		ldr	r3, [r2, #76]
 1058 0062 23EA0103 		bic	r3, r3, r1
 1059 0066 D364     		str	r3, [r2, #76]
 665:../Drivers/STM32L4xx_HAL_Driver/Src/stm32l4xx_hal_pwr_ex.c ****        break;
 1060              		.loc 1 665 8 view .LVU243
 636:../Drivers/STM32L4xx_HAL_Driver/Src/stm32l4xx_hal_pwr_ex.c **** 
 1061              		.loc 1 636 21 is_stmt 0 view .LVU244
 1062 0068 0020     		movs	r0, #0
 1063              	.LVL88:
 1064              		.loc 1 665 8 view .LVU245
 1065 006a 7047     		bx	lr
 1066              	.LVL89:
 1067              	.L86:
 666:../Drivers/STM32L4xx_HAL_Driver/Src/stm32l4xx_hal_pwr_ex.c **** #endif
 667:../Drivers/STM32L4xx_HAL_Driver/Src/stm32l4xx_hal_pwr_ex.c **** #if defined(GPIOG)
 668:../Drivers/STM32L4xx_HAL_Driver/Src/stm32l4xx_hal_pwr_ex.c ****     case PWR_GPIO_G:
 669:../Drivers/STM32L4xx_HAL_Driver/Src/stm32l4xx_hal_pwr_ex.c ****        CLEAR_BIT(PWR->PDCRG, GPIONumber);
 1068              		.loc 1 669 8 is_stmt 1 view .LVU246
 1069 006c 084A     		ldr	r2, .L94
 1070 006e 536D     		ldr	r3, [r2, #84]
ARM GAS  Build/stm32l4xx_hal_pwr_ex.s 			page 32


 1071 0070 23EA0103 		bic	r3, r3, r1
 1072 0074 5365     		str	r3, [r2, #84]
 670:../Drivers/STM32L4xx_HAL_Driver/Src/stm32l4xx_hal_pwr_ex.c ****        break;
 1073              		.loc 1 670 8 view .LVU247
 636:../Drivers/STM32L4xx_HAL_Driver/Src/stm32l4xx_hal_pwr_ex.c **** 
 1074              		.loc 1 636 21 is_stmt 0 view .LVU248
 1075 0076 0020     		movs	r0, #0
 1076              	.LVL90:
 1077              		.loc 1 670 8 view .LVU249
 1078 0078 7047     		bx	lr
 1079              	.LVL91:
 1080              	.L84:
 671:../Drivers/STM32L4xx_HAL_Driver/Src/stm32l4xx_hal_pwr_ex.c **** #endif
 672:../Drivers/STM32L4xx_HAL_Driver/Src/stm32l4xx_hal_pwr_ex.c ****     case PWR_GPIO_H:
 673:../Drivers/STM32L4xx_HAL_Driver/Src/stm32l4xx_hal_pwr_ex.c **** #if defined (STM32L496xx) || defined (STM32L4A6xx)
 674:../Drivers/STM32L4xx_HAL_Driver/Src/stm32l4xx_hal_pwr_ex.c ****        CLEAR_BIT(PWR->PDCRH, ((GPIONumber & PWR_PORTH_AVAILABLE_PINS) & (~(PWR_GPIO_BIT_3))));
 675:../Drivers/STM32L4xx_HAL_Driver/Src/stm32l4xx_hal_pwr_ex.c **** #else
 676:../Drivers/STM32L4xx_HAL_Driver/Src/stm32l4xx_hal_pwr_ex.c ****        CLEAR_BIT(PWR->PDCRH, (GPIONumber & PWR_PORTH_AVAILABLE_PINS));
 1081              		.loc 1 676 8 is_stmt 1 view .LVU250
 1082 007a 054A     		ldr	r2, .L94
 1083 007c D36D     		ldr	r3, [r2, #92]
 1084 007e 01F00301 		and	r1, r1, #3
 1085              	.LVL92:
 1086              		.loc 1 676 8 is_stmt 0 view .LVU251
 1087 0082 23EA0103 		bic	r3, r3, r1
 1088 0086 D365     		str	r3, [r2, #92]
 677:../Drivers/STM32L4xx_HAL_Driver/Src/stm32l4xx_hal_pwr_ex.c **** #endif
 678:../Drivers/STM32L4xx_HAL_Driver/Src/stm32l4xx_hal_pwr_ex.c ****        break;
 1089              		.loc 1 678 8 is_stmt 1 view .LVU252
 636:../Drivers/STM32L4xx_HAL_Driver/Src/stm32l4xx_hal_pwr_ex.c **** 
 1090              		.loc 1 636 21 is_stmt 0 view .LVU253
 1091 0088 0020     		movs	r0, #0
 1092              	.LVL93:
 1093              		.loc 1 678 8 view .LVU254
 1094 008a 7047     		bx	lr
 1095              	.LVL94:
 1096              	.L93:
 641:../Drivers/STM32L4xx_HAL_Driver/Src/stm32l4xx_hal_pwr_ex.c ****   {
 1097              		.loc 1 641 3 view .LVU255
 1098 008c 0120     		movs	r0, #1
 1099              	.LVL95:
 679:../Drivers/STM32L4xx_HAL_Driver/Src/stm32l4xx_hal_pwr_ex.c **** #if defined(GPIOI)
 680:../Drivers/STM32L4xx_HAL_Driver/Src/stm32l4xx_hal_pwr_ex.c ****     case PWR_GPIO_I:
 681:../Drivers/STM32L4xx_HAL_Driver/Src/stm32l4xx_hal_pwr_ex.c ****        CLEAR_BIT(PWR->PDCRI, (GPIONumber & PWR_PORTI_AVAILABLE_PINS));
 682:../Drivers/STM32L4xx_HAL_Driver/Src/stm32l4xx_hal_pwr_ex.c ****        break;
 683:../Drivers/STM32L4xx_HAL_Driver/Src/stm32l4xx_hal_pwr_ex.c **** #endif
 684:../Drivers/STM32L4xx_HAL_Driver/Src/stm32l4xx_hal_pwr_ex.c ****     default:
 685:../Drivers/STM32L4xx_HAL_Driver/Src/stm32l4xx_hal_pwr_ex.c ****       status = HAL_ERROR;
 686:../Drivers/STM32L4xx_HAL_Driver/Src/stm32l4xx_hal_pwr_ex.c ****       break;
 687:../Drivers/STM32L4xx_HAL_Driver/Src/stm32l4xx_hal_pwr_ex.c ****   }
 688:../Drivers/STM32L4xx_HAL_Driver/Src/stm32l4xx_hal_pwr_ex.c **** 
 689:../Drivers/STM32L4xx_HAL_Driver/Src/stm32l4xx_hal_pwr_ex.c ****   return status;
 1100              		.loc 1 689 3 is_stmt 1 view .LVU256
 690:../Drivers/STM32L4xx_HAL_Driver/Src/stm32l4xx_hal_pwr_ex.c **** }
 1101              		.loc 1 690 1 is_stmt 0 view .LVU257
 1102 008e 7047     		bx	lr
 1103              	.L95:
ARM GAS  Build/stm32l4xx_hal_pwr_ex.s 			page 33


 1104              		.align	2
 1105              	.L94:
 1106 0090 00700040 		.word	1073770496
 1107              		.cfi_endproc
 1108              	.LFE87:
 1110              		.section	.text.HAL_PWREx_EnablePullUpPullDownConfig,"ax",%progbits
 1111              		.align	1
 1112              		.global	HAL_PWREx_EnablePullUpPullDownConfig
 1113              		.syntax unified
 1114              		.thumb
 1115              		.thumb_func
 1117              	HAL_PWREx_EnablePullUpPullDownConfig:
 1118              	.LFB88:
 691:../Drivers/STM32L4xx_HAL_Driver/Src/stm32l4xx_hal_pwr_ex.c **** 
 692:../Drivers/STM32L4xx_HAL_Driver/Src/stm32l4xx_hal_pwr_ex.c **** 
 693:../Drivers/STM32L4xx_HAL_Driver/Src/stm32l4xx_hal_pwr_ex.c **** 
 694:../Drivers/STM32L4xx_HAL_Driver/Src/stm32l4xx_hal_pwr_ex.c **** /**
 695:../Drivers/STM32L4xx_HAL_Driver/Src/stm32l4xx_hal_pwr_ex.c ****   * @brief Enable pull-up and pull-down configuration.
 696:../Drivers/STM32L4xx_HAL_Driver/Src/stm32l4xx_hal_pwr_ex.c ****   * @note  When APC bit is set, the I/O pull-up and pull-down configurations defined in
 697:../Drivers/STM32L4xx_HAL_Driver/Src/stm32l4xx_hal_pwr_ex.c ****   *        PWR_PUCRx and PWR_PDCRx registers are applied in Standby and Shutdown modes.
 698:../Drivers/STM32L4xx_HAL_Driver/Src/stm32l4xx_hal_pwr_ex.c ****   * @note  Pull-up set by PUy bit of PWR_PUCRx register is not activated if the corresponding
 699:../Drivers/STM32L4xx_HAL_Driver/Src/stm32l4xx_hal_pwr_ex.c ****   *        PDy bit of PWR_PDCRx register is also set (pull-down configuration priority is higher).
 700:../Drivers/STM32L4xx_HAL_Driver/Src/stm32l4xx_hal_pwr_ex.c ****   *        HAL_PWREx_EnableGPIOPullUp() and HAL_PWREx_EnableGPIOPullDown() API's ensure there
 701:../Drivers/STM32L4xx_HAL_Driver/Src/stm32l4xx_hal_pwr_ex.c ****   *        is no conflict when setting PUy or PDy bit.
 702:../Drivers/STM32L4xx_HAL_Driver/Src/stm32l4xx_hal_pwr_ex.c ****   * @retval None
 703:../Drivers/STM32L4xx_HAL_Driver/Src/stm32l4xx_hal_pwr_ex.c ****   */
 704:../Drivers/STM32L4xx_HAL_Driver/Src/stm32l4xx_hal_pwr_ex.c **** void HAL_PWREx_EnablePullUpPullDownConfig(void)
 705:../Drivers/STM32L4xx_HAL_Driver/Src/stm32l4xx_hal_pwr_ex.c **** {
 1119              		.loc 1 705 1 is_stmt 1 view -0
 1120              		.cfi_startproc
 1121              		@ args = 0, pretend = 0, frame = 0
 1122              		@ frame_needed = 0, uses_anonymous_args = 0
 1123              		@ link register save eliminated.
 706:../Drivers/STM32L4xx_HAL_Driver/Src/stm32l4xx_hal_pwr_ex.c ****   SET_BIT(PWR->CR3, PWR_CR3_APC);
 1124              		.loc 1 706 3 view .LVU259
 1125 0000 024A     		ldr	r2, .L97
 1126 0002 9368     		ldr	r3, [r2, #8]
 1127 0004 43F48063 		orr	r3, r3, #1024
 1128 0008 9360     		str	r3, [r2, #8]
 707:../Drivers/STM32L4xx_HAL_Driver/Src/stm32l4xx_hal_pwr_ex.c **** }
 1129              		.loc 1 707 1 is_stmt 0 view .LVU260
 1130 000a 7047     		bx	lr
 1131              	.L98:
 1132              		.align	2
 1133              	.L97:
 1134 000c 00700040 		.word	1073770496
 1135              		.cfi_endproc
 1136              	.LFE88:
 1138              		.section	.text.HAL_PWREx_DisablePullUpPullDownConfig,"ax",%progbits
 1139              		.align	1
 1140              		.global	HAL_PWREx_DisablePullUpPullDownConfig
 1141              		.syntax unified
 1142              		.thumb
 1143              		.thumb_func
 1145              	HAL_PWREx_DisablePullUpPullDownConfig:
 1146              	.LFB89:
 708:../Drivers/STM32L4xx_HAL_Driver/Src/stm32l4xx_hal_pwr_ex.c **** 
ARM GAS  Build/stm32l4xx_hal_pwr_ex.s 			page 34


 709:../Drivers/STM32L4xx_HAL_Driver/Src/stm32l4xx_hal_pwr_ex.c **** 
 710:../Drivers/STM32L4xx_HAL_Driver/Src/stm32l4xx_hal_pwr_ex.c **** /**
 711:../Drivers/STM32L4xx_HAL_Driver/Src/stm32l4xx_hal_pwr_ex.c ****   * @brief Disable pull-up and pull-down configuration.
 712:../Drivers/STM32L4xx_HAL_Driver/Src/stm32l4xx_hal_pwr_ex.c ****   * @note  When APC bit is cleared, the I/O pull-up and pull-down configurations defined in
 713:../Drivers/STM32L4xx_HAL_Driver/Src/stm32l4xx_hal_pwr_ex.c ****   *        PWR_PUCRx and PWR_PDCRx registers are not applied in Standby and Shutdown modes.
 714:../Drivers/STM32L4xx_HAL_Driver/Src/stm32l4xx_hal_pwr_ex.c ****   * @retval None
 715:../Drivers/STM32L4xx_HAL_Driver/Src/stm32l4xx_hal_pwr_ex.c ****   */
 716:../Drivers/STM32L4xx_HAL_Driver/Src/stm32l4xx_hal_pwr_ex.c **** void HAL_PWREx_DisablePullUpPullDownConfig(void)
 717:../Drivers/STM32L4xx_HAL_Driver/Src/stm32l4xx_hal_pwr_ex.c **** {
 1147              		.loc 1 717 1 is_stmt 1 view -0
 1148              		.cfi_startproc
 1149              		@ args = 0, pretend = 0, frame = 0
 1150              		@ frame_needed = 0, uses_anonymous_args = 0
 1151              		@ link register save eliminated.
 718:../Drivers/STM32L4xx_HAL_Driver/Src/stm32l4xx_hal_pwr_ex.c ****   CLEAR_BIT(PWR->CR3, PWR_CR3_APC);
 1152              		.loc 1 718 3 view .LVU262
 1153 0000 024A     		ldr	r2, .L100
 1154 0002 9368     		ldr	r3, [r2, #8]
 1155 0004 23F48063 		bic	r3, r3, #1024
 1156 0008 9360     		str	r3, [r2, #8]
 719:../Drivers/STM32L4xx_HAL_Driver/Src/stm32l4xx_hal_pwr_ex.c **** }
 1157              		.loc 1 719 1 is_stmt 0 view .LVU263
 1158 000a 7047     		bx	lr
 1159              	.L101:
 1160              		.align	2
 1161              	.L100:
 1162 000c 00700040 		.word	1073770496
 1163              		.cfi_endproc
 1164              	.LFE89:
 1166              		.section	.text.HAL_PWREx_SetSRAM2ContentRetention,"ax",%progbits
 1167              		.align	1
 1168              		.global	HAL_PWREx_SetSRAM2ContentRetention
 1169              		.syntax unified
 1170              		.thumb
 1171              		.thumb_func
 1173              	HAL_PWREx_SetSRAM2ContentRetention:
 1174              	.LVL96:
 1175              	.LFB92:
 720:../Drivers/STM32L4xx_HAL_Driver/Src/stm32l4xx_hal_pwr_ex.c **** 
 721:../Drivers/STM32L4xx_HAL_Driver/Src/stm32l4xx_hal_pwr_ex.c **** 
 722:../Drivers/STM32L4xx_HAL_Driver/Src/stm32l4xx_hal_pwr_ex.c **** 
 723:../Drivers/STM32L4xx_HAL_Driver/Src/stm32l4xx_hal_pwr_ex.c **** /**
 724:../Drivers/STM32L4xx_HAL_Driver/Src/stm32l4xx_hal_pwr_ex.c ****   * @brief Enable Full SRAM2 content retention in Standby mode.
 725:../Drivers/STM32L4xx_HAL_Driver/Src/stm32l4xx_hal_pwr_ex.c ****   * @retval None
 726:../Drivers/STM32L4xx_HAL_Driver/Src/stm32l4xx_hal_pwr_ex.c ****   */
 727:../Drivers/STM32L4xx_HAL_Driver/Src/stm32l4xx_hal_pwr_ex.c **** void HAL_PWREx_EnableSRAM2ContentRetention(void)
 728:../Drivers/STM32L4xx_HAL_Driver/Src/stm32l4xx_hal_pwr_ex.c **** {
 729:../Drivers/STM32L4xx_HAL_Driver/Src/stm32l4xx_hal_pwr_ex.c ****   (void) HAL_PWREx_SetSRAM2ContentRetention(PWR_FULL_SRAM2_RETENTION);
 730:../Drivers/STM32L4xx_HAL_Driver/Src/stm32l4xx_hal_pwr_ex.c **** }
 731:../Drivers/STM32L4xx_HAL_Driver/Src/stm32l4xx_hal_pwr_ex.c **** 
 732:../Drivers/STM32L4xx_HAL_Driver/Src/stm32l4xx_hal_pwr_ex.c **** /**
 733:../Drivers/STM32L4xx_HAL_Driver/Src/stm32l4xx_hal_pwr_ex.c ****   * @brief Disable SRAM2 content retention in Standby mode.
 734:../Drivers/STM32L4xx_HAL_Driver/Src/stm32l4xx_hal_pwr_ex.c ****   * @retval None
 735:../Drivers/STM32L4xx_HAL_Driver/Src/stm32l4xx_hal_pwr_ex.c ****   */
 736:../Drivers/STM32L4xx_HAL_Driver/Src/stm32l4xx_hal_pwr_ex.c **** void HAL_PWREx_DisableSRAM2ContentRetention(void)
 737:../Drivers/STM32L4xx_HAL_Driver/Src/stm32l4xx_hal_pwr_ex.c **** {
 738:../Drivers/STM32L4xx_HAL_Driver/Src/stm32l4xx_hal_pwr_ex.c ****   (void) HAL_PWREx_SetSRAM2ContentRetention(PWR_NO_SRAM2_RETENTION);
ARM GAS  Build/stm32l4xx_hal_pwr_ex.s 			page 35


 739:../Drivers/STM32L4xx_HAL_Driver/Src/stm32l4xx_hal_pwr_ex.c **** }
 740:../Drivers/STM32L4xx_HAL_Driver/Src/stm32l4xx_hal_pwr_ex.c **** 
 741:../Drivers/STM32L4xx_HAL_Driver/Src/stm32l4xx_hal_pwr_ex.c **** /**
 742:../Drivers/STM32L4xx_HAL_Driver/Src/stm32l4xx_hal_pwr_ex.c ****   * @brief Enable SRAM2 content retention in Standby mode.
 743:../Drivers/STM32L4xx_HAL_Driver/Src/stm32l4xx_hal_pwr_ex.c ****   * @param  SRAM2Size: specifies the SRAM2 size kept in Standby mode
 744:../Drivers/STM32L4xx_HAL_Driver/Src/stm32l4xx_hal_pwr_ex.c ****   *          This parameter can be one of the following values:
 745:../Drivers/STM32L4xx_HAL_Driver/Src/stm32l4xx_hal_pwr_ex.c ****   *            @arg @ref PWR_NO_SRAM2_RETENTION        SRAM2 is powered off in Standby mode (SRAM2 
 746:../Drivers/STM32L4xx_HAL_Driver/Src/stm32l4xx_hal_pwr_ex.c ****   *            @arg @ref PWR_FULL_SRAM2_RETENTION      Full SRAM2 is powered by the low-power regul
 747:../Drivers/STM32L4xx_HAL_Driver/Src/stm32l4xx_hal_pwr_ex.c ****   *            @arg @ref PWR_4KBYTES_SRAM2_RETENTION   Only 4 Kbytes of SRAM2 is powered by the low
 748:../Drivers/STM32L4xx_HAL_Driver/Src/stm32l4xx_hal_pwr_ex.c ****   * @note  PWR_4KBYTES_SRAM2_RETENTION parameter is not available on all devices
 749:../Drivers/STM32L4xx_HAL_Driver/Src/stm32l4xx_hal_pwr_ex.c ****   * @retval HAL Status
 750:../Drivers/STM32L4xx_HAL_Driver/Src/stm32l4xx_hal_pwr_ex.c ****   */
 751:../Drivers/STM32L4xx_HAL_Driver/Src/stm32l4xx_hal_pwr_ex.c **** HAL_StatusTypeDef HAL_PWREx_SetSRAM2ContentRetention(uint32_t SRAM2Size)
 752:../Drivers/STM32L4xx_HAL_Driver/Src/stm32l4xx_hal_pwr_ex.c **** {
 1176              		.loc 1 752 1 is_stmt 1 view -0
 1177              		.cfi_startproc
 1178              		@ args = 0, pretend = 0, frame = 0
 1179              		@ frame_needed = 0, uses_anonymous_args = 0
 1180              		@ link register save eliminated.
 753:../Drivers/STM32L4xx_HAL_Driver/Src/stm32l4xx_hal_pwr_ex.c ****   assert_param(IS_PWR_SRAM2_RETENTION(SRAM2Size));
 1181              		.loc 1 753 3 view .LVU265
 754:../Drivers/STM32L4xx_HAL_Driver/Src/stm32l4xx_hal_pwr_ex.c **** 
 755:../Drivers/STM32L4xx_HAL_Driver/Src/stm32l4xx_hal_pwr_ex.c ****   if (SRAM2Size == PWR_NO_SRAM2_RETENTION)
 1182              		.loc 1 755 3 view .LVU266
 1183              		.loc 1 755 6 is_stmt 0 view .LVU267
 1184 0000 28B9     		cbnz	r0, .L103
 756:../Drivers/STM32L4xx_HAL_Driver/Src/stm32l4xx_hal_pwr_ex.c ****   {
 757:../Drivers/STM32L4xx_HAL_Driver/Src/stm32l4xx_hal_pwr_ex.c ****     CLEAR_BIT(PWR->CR3, PWR_CR3_RRS);
 1185              		.loc 1 757 5 is_stmt 1 view .LVU268
 1186 0002 094A     		ldr	r2, .L106
 1187 0004 9368     		ldr	r3, [r2, #8]
 1188 0006 23F48073 		bic	r3, r3, #256
 1189 000a 9360     		str	r3, [r2, #8]
 1190 000c 7047     		bx	lr
 1191              	.L103:
 758:../Drivers/STM32L4xx_HAL_Driver/Src/stm32l4xx_hal_pwr_ex.c ****   }
 759:../Drivers/STM32L4xx_HAL_Driver/Src/stm32l4xx_hal_pwr_ex.c ****   else if (SRAM2Size == PWR_FULL_SRAM2_RETENTION)
 1192              		.loc 1 759 8 view .LVU269
 1193              		.loc 1 759 11 is_stmt 0 view .LVU270
 1194 000e B0F5807F 		cmp	r0, #256
 1195 0012 06D1     		bne	.L105
 760:../Drivers/STM32L4xx_HAL_Driver/Src/stm32l4xx_hal_pwr_ex.c ****   {
 761:../Drivers/STM32L4xx_HAL_Driver/Src/stm32l4xx_hal_pwr_ex.c ****     MODIFY_REG(PWR->CR3, PWR_CR3_RRS, PWR_FULL_SRAM2_RETENTION);
 1196              		.loc 1 761 5 is_stmt 1 view .LVU271
 1197 0014 044A     		ldr	r2, .L106
 1198 0016 9368     		ldr	r3, [r2, #8]
 1199 0018 43F48073 		orr	r3, r3, #256
 1200 001c 9360     		str	r3, [r2, #8]
 762:../Drivers/STM32L4xx_HAL_Driver/Src/stm32l4xx_hal_pwr_ex.c ****   }
 763:../Drivers/STM32L4xx_HAL_Driver/Src/stm32l4xx_hal_pwr_ex.c **** #if defined(PWR_CR3_RRS_1)
 764:../Drivers/STM32L4xx_HAL_Driver/Src/stm32l4xx_hal_pwr_ex.c ****   else if (SRAM2Size == PWR_4KBYTES_SRAM2_RETENTION)
 765:../Drivers/STM32L4xx_HAL_Driver/Src/stm32l4xx_hal_pwr_ex.c ****   {
 766:../Drivers/STM32L4xx_HAL_Driver/Src/stm32l4xx_hal_pwr_ex.c ****     MODIFY_REG(PWR->CR3, PWR_CR3_RRS, PWR_4KBYTES_SRAM2_RETENTION);
 767:../Drivers/STM32L4xx_HAL_Driver/Src/stm32l4xx_hal_pwr_ex.c ****   }
 768:../Drivers/STM32L4xx_HAL_Driver/Src/stm32l4xx_hal_pwr_ex.c **** #endif /* PWR_CR3_RRS_1 */
 769:../Drivers/STM32L4xx_HAL_Driver/Src/stm32l4xx_hal_pwr_ex.c ****   else {
 770:../Drivers/STM32L4xx_HAL_Driver/Src/stm32l4xx_hal_pwr_ex.c ****     return HAL_ERROR;
ARM GAS  Build/stm32l4xx_hal_pwr_ex.s 			page 36


 771:../Drivers/STM32L4xx_HAL_Driver/Src/stm32l4xx_hal_pwr_ex.c ****   }
 772:../Drivers/STM32L4xx_HAL_Driver/Src/stm32l4xx_hal_pwr_ex.c **** 
 773:../Drivers/STM32L4xx_HAL_Driver/Src/stm32l4xx_hal_pwr_ex.c ****   return HAL_OK;
 1201              		.loc 1 773 10 is_stmt 0 view .LVU272
 1202 001e 0020     		movs	r0, #0
 1203              	.LVL97:
 1204              		.loc 1 773 10 view .LVU273
 1205 0020 7047     		bx	lr
 1206              	.LVL98:
 1207              	.L105:
 770:../Drivers/STM32L4xx_HAL_Driver/Src/stm32l4xx_hal_pwr_ex.c ****   }
 1208              		.loc 1 770 12 view .LVU274
 1209 0022 0120     		movs	r0, #1
 1210              	.LVL99:
 774:../Drivers/STM32L4xx_HAL_Driver/Src/stm32l4xx_hal_pwr_ex.c **** }
 1211              		.loc 1 774 1 view .LVU275
 1212 0024 7047     		bx	lr
 1213              	.L107:
 1214 0026 00BF     		.align	2
 1215              	.L106:
 1216 0028 00700040 		.word	1073770496
 1217              		.cfi_endproc
 1218              	.LFE92:
 1220              		.section	.text.HAL_PWREx_EnableSRAM2ContentRetention,"ax",%progbits
 1221              		.align	1
 1222              		.global	HAL_PWREx_EnableSRAM2ContentRetention
 1223              		.syntax unified
 1224              		.thumb
 1225              		.thumb_func
 1227              	HAL_PWREx_EnableSRAM2ContentRetention:
 1228              	.LFB90:
 728:../Drivers/STM32L4xx_HAL_Driver/Src/stm32l4xx_hal_pwr_ex.c ****   (void) HAL_PWREx_SetSRAM2ContentRetention(PWR_FULL_SRAM2_RETENTION);
 1229              		.loc 1 728 1 is_stmt 1 view -0
 1230              		.cfi_startproc
 1231              		@ args = 0, pretend = 0, frame = 0
 1232              		@ frame_needed = 0, uses_anonymous_args = 0
 1233 0000 08B5     		push	{r3, lr}
 1234              	.LCFI0:
 1235              		.cfi_def_cfa_offset 8
 1236              		.cfi_offset 3, -8
 1237              		.cfi_offset 14, -4
 729:../Drivers/STM32L4xx_HAL_Driver/Src/stm32l4xx_hal_pwr_ex.c **** }
 1238              		.loc 1 729 3 view .LVU277
 729:../Drivers/STM32L4xx_HAL_Driver/Src/stm32l4xx_hal_pwr_ex.c **** }
 1239              		.loc 1 729 10 is_stmt 0 view .LVU278
 1240 0002 4FF48070 		mov	r0, #256
 1241 0006 FFF7FEFF 		bl	HAL_PWREx_SetSRAM2ContentRetention
 1242              	.LVL100:
 730:../Drivers/STM32L4xx_HAL_Driver/Src/stm32l4xx_hal_pwr_ex.c **** 
 1243              		.loc 1 730 1 view .LVU279
 1244 000a 08BD     		pop	{r3, pc}
 1245              		.cfi_endproc
 1246              	.LFE90:
 1248              		.section	.text.HAL_PWREx_DisableSRAM2ContentRetention,"ax",%progbits
 1249              		.align	1
 1250              		.global	HAL_PWREx_DisableSRAM2ContentRetention
 1251              		.syntax unified
ARM GAS  Build/stm32l4xx_hal_pwr_ex.s 			page 37


 1252              		.thumb
 1253              		.thumb_func
 1255              	HAL_PWREx_DisableSRAM2ContentRetention:
 1256              	.LFB91:
 737:../Drivers/STM32L4xx_HAL_Driver/Src/stm32l4xx_hal_pwr_ex.c ****   (void) HAL_PWREx_SetSRAM2ContentRetention(PWR_NO_SRAM2_RETENTION);
 1257              		.loc 1 737 1 is_stmt 1 view -0
 1258              		.cfi_startproc
 1259              		@ args = 0, pretend = 0, frame = 0
 1260              		@ frame_needed = 0, uses_anonymous_args = 0
 1261 0000 08B5     		push	{r3, lr}
 1262              	.LCFI1:
 1263              		.cfi_def_cfa_offset 8
 1264              		.cfi_offset 3, -8
 1265              		.cfi_offset 14, -4
 738:../Drivers/STM32L4xx_HAL_Driver/Src/stm32l4xx_hal_pwr_ex.c **** }
 1266              		.loc 1 738 3 view .LVU281
 738:../Drivers/STM32L4xx_HAL_Driver/Src/stm32l4xx_hal_pwr_ex.c **** }
 1267              		.loc 1 738 10 is_stmt 0 view .LVU282
 1268 0002 0020     		movs	r0, #0
 1269 0004 FFF7FEFF 		bl	HAL_PWREx_SetSRAM2ContentRetention
 1270              	.LVL101:
 739:../Drivers/STM32L4xx_HAL_Driver/Src/stm32l4xx_hal_pwr_ex.c **** 
 1271              		.loc 1 739 1 view .LVU283
 1272 0008 08BD     		pop	{r3, pc}
 1273              		.cfi_endproc
 1274              	.LFE91:
 1276              		.section	.text.HAL_PWREx_EnablePVM1,"ax",%progbits
 1277              		.align	1
 1278              		.global	HAL_PWREx_EnablePVM1
 1279              		.syntax unified
 1280              		.thumb
 1281              		.thumb_func
 1283              	HAL_PWREx_EnablePVM1:
 1284              	.LFB93:
 775:../Drivers/STM32L4xx_HAL_Driver/Src/stm32l4xx_hal_pwr_ex.c **** 
 776:../Drivers/STM32L4xx_HAL_Driver/Src/stm32l4xx_hal_pwr_ex.c **** 
 777:../Drivers/STM32L4xx_HAL_Driver/Src/stm32l4xx_hal_pwr_ex.c **** #if defined(PWR_CR3_ENULP)
 778:../Drivers/STM32L4xx_HAL_Driver/Src/stm32l4xx_hal_pwr_ex.c **** /**
 779:../Drivers/STM32L4xx_HAL_Driver/Src/stm32l4xx_hal_pwr_ex.c ****   * @brief Enable Ultra Low Power BORL, BORH and PVD for STOP2 and Standby modes.
 780:../Drivers/STM32L4xx_HAL_Driver/Src/stm32l4xx_hal_pwr_ex.c ****   * @note  All the other modes are not affected by this bit.
 781:../Drivers/STM32L4xx_HAL_Driver/Src/stm32l4xx_hal_pwr_ex.c ****   * @retval None
 782:../Drivers/STM32L4xx_HAL_Driver/Src/stm32l4xx_hal_pwr_ex.c ****   */
 783:../Drivers/STM32L4xx_HAL_Driver/Src/stm32l4xx_hal_pwr_ex.c **** void HAL_PWREx_EnableBORPVD_ULP(void)
 784:../Drivers/STM32L4xx_HAL_Driver/Src/stm32l4xx_hal_pwr_ex.c **** {
 785:../Drivers/STM32L4xx_HAL_Driver/Src/stm32l4xx_hal_pwr_ex.c ****   SET_BIT(PWR->CR3, PWR_CR3_ENULP);
 786:../Drivers/STM32L4xx_HAL_Driver/Src/stm32l4xx_hal_pwr_ex.c **** }
 787:../Drivers/STM32L4xx_HAL_Driver/Src/stm32l4xx_hal_pwr_ex.c **** 
 788:../Drivers/STM32L4xx_HAL_Driver/Src/stm32l4xx_hal_pwr_ex.c **** 
 789:../Drivers/STM32L4xx_HAL_Driver/Src/stm32l4xx_hal_pwr_ex.c **** /**
 790:../Drivers/STM32L4xx_HAL_Driver/Src/stm32l4xx_hal_pwr_ex.c ****   * @brief Disable Ultra Low Power BORL, BORH and PVD for STOP2 and Standby modes.
 791:../Drivers/STM32L4xx_HAL_Driver/Src/stm32l4xx_hal_pwr_ex.c ****   * @note  All the other modes are not affected by this bit
 792:../Drivers/STM32L4xx_HAL_Driver/Src/stm32l4xx_hal_pwr_ex.c ****   * @retval None
 793:../Drivers/STM32L4xx_HAL_Driver/Src/stm32l4xx_hal_pwr_ex.c ****   */
 794:../Drivers/STM32L4xx_HAL_Driver/Src/stm32l4xx_hal_pwr_ex.c **** void HAL_PWREx_DisableBORPVD_ULP(void)
 795:../Drivers/STM32L4xx_HAL_Driver/Src/stm32l4xx_hal_pwr_ex.c **** {
 796:../Drivers/STM32L4xx_HAL_Driver/Src/stm32l4xx_hal_pwr_ex.c ****   CLEAR_BIT(PWR->CR3, PWR_CR3_ENULP);
 797:../Drivers/STM32L4xx_HAL_Driver/Src/stm32l4xx_hal_pwr_ex.c **** }
ARM GAS  Build/stm32l4xx_hal_pwr_ex.s 			page 38


 798:../Drivers/STM32L4xx_HAL_Driver/Src/stm32l4xx_hal_pwr_ex.c **** #endif /* PWR_CR3_ENULP */
 799:../Drivers/STM32L4xx_HAL_Driver/Src/stm32l4xx_hal_pwr_ex.c **** 
 800:../Drivers/STM32L4xx_HAL_Driver/Src/stm32l4xx_hal_pwr_ex.c **** 
 801:../Drivers/STM32L4xx_HAL_Driver/Src/stm32l4xx_hal_pwr_ex.c **** #if defined(PWR_CR4_EXT_SMPS_ON)
 802:../Drivers/STM32L4xx_HAL_Driver/Src/stm32l4xx_hal_pwr_ex.c **** /**
 803:../Drivers/STM32L4xx_HAL_Driver/Src/stm32l4xx_hal_pwr_ex.c ****   * @brief Enable the CFLDO working @ 0.95V.
 804:../Drivers/STM32L4xx_HAL_Driver/Src/stm32l4xx_hal_pwr_ex.c ****   * @note  When external SMPS is used & CFLDO operating in Range 2, the regulated voltage of the
 805:../Drivers/STM32L4xx_HAL_Driver/Src/stm32l4xx_hal_pwr_ex.c ****   *        internal CFLDO can be reduced to 0.95V.
 806:../Drivers/STM32L4xx_HAL_Driver/Src/stm32l4xx_hal_pwr_ex.c ****   * @retval None
 807:../Drivers/STM32L4xx_HAL_Driver/Src/stm32l4xx_hal_pwr_ex.c ****   */
 808:../Drivers/STM32L4xx_HAL_Driver/Src/stm32l4xx_hal_pwr_ex.c **** void HAL_PWREx_EnableExtSMPS_0V95(void)
 809:../Drivers/STM32L4xx_HAL_Driver/Src/stm32l4xx_hal_pwr_ex.c **** {
 810:../Drivers/STM32L4xx_HAL_Driver/Src/stm32l4xx_hal_pwr_ex.c ****   SET_BIT(PWR->CR4, PWR_CR4_EXT_SMPS_ON);
 811:../Drivers/STM32L4xx_HAL_Driver/Src/stm32l4xx_hal_pwr_ex.c **** }
 812:../Drivers/STM32L4xx_HAL_Driver/Src/stm32l4xx_hal_pwr_ex.c **** 
 813:../Drivers/STM32L4xx_HAL_Driver/Src/stm32l4xx_hal_pwr_ex.c **** /**
 814:../Drivers/STM32L4xx_HAL_Driver/Src/stm32l4xx_hal_pwr_ex.c ****   * @brief Disable the CFLDO working @ 0.95V
 815:../Drivers/STM32L4xx_HAL_Driver/Src/stm32l4xx_hal_pwr_ex.c ****   * @note  Before SMPS is switched off, the regulated voltage of the
 816:../Drivers/STM32L4xx_HAL_Driver/Src/stm32l4xx_hal_pwr_ex.c ****   *        internal CFLDO shall be set to 1.00V.
 817:../Drivers/STM32L4xx_HAL_Driver/Src/stm32l4xx_hal_pwr_ex.c ****   *        1.00V. is also default operating Range 2 voltage.
 818:../Drivers/STM32L4xx_HAL_Driver/Src/stm32l4xx_hal_pwr_ex.c ****   * @retval None
 819:../Drivers/STM32L4xx_HAL_Driver/Src/stm32l4xx_hal_pwr_ex.c ****   */
 820:../Drivers/STM32L4xx_HAL_Driver/Src/stm32l4xx_hal_pwr_ex.c **** void HAL_PWREx_DisableExtSMPS_0V95(void)
 821:../Drivers/STM32L4xx_HAL_Driver/Src/stm32l4xx_hal_pwr_ex.c **** {
 822:../Drivers/STM32L4xx_HAL_Driver/Src/stm32l4xx_hal_pwr_ex.c ****   CLEAR_BIT(PWR->CR4, PWR_CR4_EXT_SMPS_ON);
 823:../Drivers/STM32L4xx_HAL_Driver/Src/stm32l4xx_hal_pwr_ex.c **** }
 824:../Drivers/STM32L4xx_HAL_Driver/Src/stm32l4xx_hal_pwr_ex.c **** #endif /* PWR_CR4_EXT_SMPS_ON */
 825:../Drivers/STM32L4xx_HAL_Driver/Src/stm32l4xx_hal_pwr_ex.c **** 
 826:../Drivers/STM32L4xx_HAL_Driver/Src/stm32l4xx_hal_pwr_ex.c **** 
 827:../Drivers/STM32L4xx_HAL_Driver/Src/stm32l4xx_hal_pwr_ex.c **** #if defined(PWR_CR1_RRSTP)
 828:../Drivers/STM32L4xx_HAL_Driver/Src/stm32l4xx_hal_pwr_ex.c **** /**
 829:../Drivers/STM32L4xx_HAL_Driver/Src/stm32l4xx_hal_pwr_ex.c ****   * @brief Enable SRAM3 content retention in Stop 2 mode.
 830:../Drivers/STM32L4xx_HAL_Driver/Src/stm32l4xx_hal_pwr_ex.c ****   * @note  When RRSTP bit is set, SRAM3 is powered by the low-power regulator in
 831:../Drivers/STM32L4xx_HAL_Driver/Src/stm32l4xx_hal_pwr_ex.c ****   *        Stop 2 mode and its content is kept.
 832:../Drivers/STM32L4xx_HAL_Driver/Src/stm32l4xx_hal_pwr_ex.c ****   * @retval None
 833:../Drivers/STM32L4xx_HAL_Driver/Src/stm32l4xx_hal_pwr_ex.c ****   */
 834:../Drivers/STM32L4xx_HAL_Driver/Src/stm32l4xx_hal_pwr_ex.c **** void HAL_PWREx_EnableSRAM3ContentRetention(void)
 835:../Drivers/STM32L4xx_HAL_Driver/Src/stm32l4xx_hal_pwr_ex.c **** {
 836:../Drivers/STM32L4xx_HAL_Driver/Src/stm32l4xx_hal_pwr_ex.c ****   SET_BIT(PWR->CR1, PWR_CR1_RRSTP);
 837:../Drivers/STM32L4xx_HAL_Driver/Src/stm32l4xx_hal_pwr_ex.c **** }
 838:../Drivers/STM32L4xx_HAL_Driver/Src/stm32l4xx_hal_pwr_ex.c **** 
 839:../Drivers/STM32L4xx_HAL_Driver/Src/stm32l4xx_hal_pwr_ex.c **** 
 840:../Drivers/STM32L4xx_HAL_Driver/Src/stm32l4xx_hal_pwr_ex.c **** /**
 841:../Drivers/STM32L4xx_HAL_Driver/Src/stm32l4xx_hal_pwr_ex.c ****   * @brief Disable SRAM3 content retention in Stop 2 mode.
 842:../Drivers/STM32L4xx_HAL_Driver/Src/stm32l4xx_hal_pwr_ex.c ****   * @note  When RRSTP bit is reset, SRAM3 is powered off in Stop 2 mode
 843:../Drivers/STM32L4xx_HAL_Driver/Src/stm32l4xx_hal_pwr_ex.c ****   *        and its content is lost.
 844:../Drivers/STM32L4xx_HAL_Driver/Src/stm32l4xx_hal_pwr_ex.c ****   * @retval None
 845:../Drivers/STM32L4xx_HAL_Driver/Src/stm32l4xx_hal_pwr_ex.c ****   */
 846:../Drivers/STM32L4xx_HAL_Driver/Src/stm32l4xx_hal_pwr_ex.c **** void HAL_PWREx_DisableSRAM3ContentRetention(void)
 847:../Drivers/STM32L4xx_HAL_Driver/Src/stm32l4xx_hal_pwr_ex.c **** {
 848:../Drivers/STM32L4xx_HAL_Driver/Src/stm32l4xx_hal_pwr_ex.c ****   CLEAR_BIT(PWR->CR1, PWR_CR1_RRSTP);
 849:../Drivers/STM32L4xx_HAL_Driver/Src/stm32l4xx_hal_pwr_ex.c **** }
 850:../Drivers/STM32L4xx_HAL_Driver/Src/stm32l4xx_hal_pwr_ex.c **** #endif /* PWR_CR1_RRSTP */
 851:../Drivers/STM32L4xx_HAL_Driver/Src/stm32l4xx_hal_pwr_ex.c **** 
 852:../Drivers/STM32L4xx_HAL_Driver/Src/stm32l4xx_hal_pwr_ex.c **** #if defined(PWR_CR3_DSIPDEN)
 853:../Drivers/STM32L4xx_HAL_Driver/Src/stm32l4xx_hal_pwr_ex.c **** /**
 854:../Drivers/STM32L4xx_HAL_Driver/Src/stm32l4xx_hal_pwr_ex.c ****   * @brief Enable pull-down activation on DSI pins.
ARM GAS  Build/stm32l4xx_hal_pwr_ex.s 			page 39


 855:../Drivers/STM32L4xx_HAL_Driver/Src/stm32l4xx_hal_pwr_ex.c ****   * @retval None
 856:../Drivers/STM32L4xx_HAL_Driver/Src/stm32l4xx_hal_pwr_ex.c ****   */
 857:../Drivers/STM32L4xx_HAL_Driver/Src/stm32l4xx_hal_pwr_ex.c **** void HAL_PWREx_EnableDSIPinsPDActivation(void)
 858:../Drivers/STM32L4xx_HAL_Driver/Src/stm32l4xx_hal_pwr_ex.c **** {
 859:../Drivers/STM32L4xx_HAL_Driver/Src/stm32l4xx_hal_pwr_ex.c ****   SET_BIT(PWR->CR3, PWR_CR3_DSIPDEN);
 860:../Drivers/STM32L4xx_HAL_Driver/Src/stm32l4xx_hal_pwr_ex.c **** }
 861:../Drivers/STM32L4xx_HAL_Driver/Src/stm32l4xx_hal_pwr_ex.c **** 
 862:../Drivers/STM32L4xx_HAL_Driver/Src/stm32l4xx_hal_pwr_ex.c **** 
 863:../Drivers/STM32L4xx_HAL_Driver/Src/stm32l4xx_hal_pwr_ex.c **** /**
 864:../Drivers/STM32L4xx_HAL_Driver/Src/stm32l4xx_hal_pwr_ex.c ****   * @brief Disable pull-down activation on DSI pins.
 865:../Drivers/STM32L4xx_HAL_Driver/Src/stm32l4xx_hal_pwr_ex.c ****   * @retval None
 866:../Drivers/STM32L4xx_HAL_Driver/Src/stm32l4xx_hal_pwr_ex.c ****   */
 867:../Drivers/STM32L4xx_HAL_Driver/Src/stm32l4xx_hal_pwr_ex.c **** void HAL_PWREx_DisableDSIPinsPDActivation(void)
 868:../Drivers/STM32L4xx_HAL_Driver/Src/stm32l4xx_hal_pwr_ex.c **** {
 869:../Drivers/STM32L4xx_HAL_Driver/Src/stm32l4xx_hal_pwr_ex.c ****   CLEAR_BIT(PWR->CR3, PWR_CR3_DSIPDEN);
 870:../Drivers/STM32L4xx_HAL_Driver/Src/stm32l4xx_hal_pwr_ex.c **** }
 871:../Drivers/STM32L4xx_HAL_Driver/Src/stm32l4xx_hal_pwr_ex.c **** #endif /* PWR_CR3_DSIPDEN */
 872:../Drivers/STM32L4xx_HAL_Driver/Src/stm32l4xx_hal_pwr_ex.c **** 
 873:../Drivers/STM32L4xx_HAL_Driver/Src/stm32l4xx_hal_pwr_ex.c **** #if defined(PWR_CR2_PVME1)
 874:../Drivers/STM32L4xx_HAL_Driver/Src/stm32l4xx_hal_pwr_ex.c **** /**
 875:../Drivers/STM32L4xx_HAL_Driver/Src/stm32l4xx_hal_pwr_ex.c ****   * @brief Enable the Power Voltage Monitoring 1: VDDUSB versus 1.2V.
 876:../Drivers/STM32L4xx_HAL_Driver/Src/stm32l4xx_hal_pwr_ex.c ****   * @retval None
 877:../Drivers/STM32L4xx_HAL_Driver/Src/stm32l4xx_hal_pwr_ex.c ****   */
 878:../Drivers/STM32L4xx_HAL_Driver/Src/stm32l4xx_hal_pwr_ex.c **** void HAL_PWREx_EnablePVM1(void)
 879:../Drivers/STM32L4xx_HAL_Driver/Src/stm32l4xx_hal_pwr_ex.c **** {
 1285              		.loc 1 879 1 is_stmt 1 view -0
 1286              		.cfi_startproc
 1287              		@ args = 0, pretend = 0, frame = 0
 1288              		@ frame_needed = 0, uses_anonymous_args = 0
 1289              		@ link register save eliminated.
 880:../Drivers/STM32L4xx_HAL_Driver/Src/stm32l4xx_hal_pwr_ex.c ****   SET_BIT(PWR->CR2, PWR_PVM_1);
 1290              		.loc 1 880 3 view .LVU285
 1291 0000 024A     		ldr	r2, .L113
 1292 0002 5368     		ldr	r3, [r2, #4]
 1293 0004 43F01003 		orr	r3, r3, #16
 1294 0008 5360     		str	r3, [r2, #4]
 881:../Drivers/STM32L4xx_HAL_Driver/Src/stm32l4xx_hal_pwr_ex.c **** }
 1295              		.loc 1 881 1 is_stmt 0 view .LVU286
 1296 000a 7047     		bx	lr
 1297              	.L114:
 1298              		.align	2
 1299              	.L113:
 1300 000c 00700040 		.word	1073770496
 1301              		.cfi_endproc
 1302              	.LFE93:
 1304              		.section	.text.HAL_PWREx_DisablePVM1,"ax",%progbits
 1305              		.align	1
 1306              		.global	HAL_PWREx_DisablePVM1
 1307              		.syntax unified
 1308              		.thumb
 1309              		.thumb_func
 1311              	HAL_PWREx_DisablePVM1:
 1312              	.LFB94:
 882:../Drivers/STM32L4xx_HAL_Driver/Src/stm32l4xx_hal_pwr_ex.c **** 
 883:../Drivers/STM32L4xx_HAL_Driver/Src/stm32l4xx_hal_pwr_ex.c **** /**
 884:../Drivers/STM32L4xx_HAL_Driver/Src/stm32l4xx_hal_pwr_ex.c ****   * @brief Disable the Power Voltage Monitoring 1: VDDUSB versus 1.2V.
 885:../Drivers/STM32L4xx_HAL_Driver/Src/stm32l4xx_hal_pwr_ex.c ****   * @retval None
ARM GAS  Build/stm32l4xx_hal_pwr_ex.s 			page 40


 886:../Drivers/STM32L4xx_HAL_Driver/Src/stm32l4xx_hal_pwr_ex.c ****   */
 887:../Drivers/STM32L4xx_HAL_Driver/Src/stm32l4xx_hal_pwr_ex.c **** void HAL_PWREx_DisablePVM1(void)
 888:../Drivers/STM32L4xx_HAL_Driver/Src/stm32l4xx_hal_pwr_ex.c **** {
 1313              		.loc 1 888 1 is_stmt 1 view -0
 1314              		.cfi_startproc
 1315              		@ args = 0, pretend = 0, frame = 0
 1316              		@ frame_needed = 0, uses_anonymous_args = 0
 1317              		@ link register save eliminated.
 889:../Drivers/STM32L4xx_HAL_Driver/Src/stm32l4xx_hal_pwr_ex.c ****   CLEAR_BIT(PWR->CR2, PWR_PVM_1);
 1318              		.loc 1 889 3 view .LVU288
 1319 0000 024A     		ldr	r2, .L116
 1320 0002 5368     		ldr	r3, [r2, #4]
 1321 0004 23F01003 		bic	r3, r3, #16
 1322 0008 5360     		str	r3, [r2, #4]
 890:../Drivers/STM32L4xx_HAL_Driver/Src/stm32l4xx_hal_pwr_ex.c **** }
 1323              		.loc 1 890 1 is_stmt 0 view .LVU289
 1324 000a 7047     		bx	lr
 1325              	.L117:
 1326              		.align	2
 1327              	.L116:
 1328 000c 00700040 		.word	1073770496
 1329              		.cfi_endproc
 1330              	.LFE94:
 1332              		.section	.text.HAL_PWREx_EnablePVM2,"ax",%progbits
 1333              		.align	1
 1334              		.global	HAL_PWREx_EnablePVM2
 1335              		.syntax unified
 1336              		.thumb
 1337              		.thumb_func
 1339              	HAL_PWREx_EnablePVM2:
 1340              	.LFB95:
 891:../Drivers/STM32L4xx_HAL_Driver/Src/stm32l4xx_hal_pwr_ex.c **** #endif /* PWR_CR2_PVME1 */
 892:../Drivers/STM32L4xx_HAL_Driver/Src/stm32l4xx_hal_pwr_ex.c **** 
 893:../Drivers/STM32L4xx_HAL_Driver/Src/stm32l4xx_hal_pwr_ex.c **** 
 894:../Drivers/STM32L4xx_HAL_Driver/Src/stm32l4xx_hal_pwr_ex.c **** #if defined(PWR_CR2_PVME2)
 895:../Drivers/STM32L4xx_HAL_Driver/Src/stm32l4xx_hal_pwr_ex.c **** /**
 896:../Drivers/STM32L4xx_HAL_Driver/Src/stm32l4xx_hal_pwr_ex.c ****   * @brief Enable the Power Voltage Monitoring 2: VDDIO2 versus 0.9V.
 897:../Drivers/STM32L4xx_HAL_Driver/Src/stm32l4xx_hal_pwr_ex.c ****   * @retval None
 898:../Drivers/STM32L4xx_HAL_Driver/Src/stm32l4xx_hal_pwr_ex.c ****   */
 899:../Drivers/STM32L4xx_HAL_Driver/Src/stm32l4xx_hal_pwr_ex.c **** void HAL_PWREx_EnablePVM2(void)
 900:../Drivers/STM32L4xx_HAL_Driver/Src/stm32l4xx_hal_pwr_ex.c **** {
 1341              		.loc 1 900 1 is_stmt 1 view -0
 1342              		.cfi_startproc
 1343              		@ args = 0, pretend = 0, frame = 0
 1344              		@ frame_needed = 0, uses_anonymous_args = 0
 1345              		@ link register save eliminated.
 901:../Drivers/STM32L4xx_HAL_Driver/Src/stm32l4xx_hal_pwr_ex.c ****   SET_BIT(PWR->CR2, PWR_PVM_2);
 1346              		.loc 1 901 3 view .LVU291
 1347 0000 024A     		ldr	r2, .L119
 1348 0002 5368     		ldr	r3, [r2, #4]
 1349 0004 43F02003 		orr	r3, r3, #32
 1350 0008 5360     		str	r3, [r2, #4]
 902:../Drivers/STM32L4xx_HAL_Driver/Src/stm32l4xx_hal_pwr_ex.c **** }
 1351              		.loc 1 902 1 is_stmt 0 view .LVU292
 1352 000a 7047     		bx	lr
 1353              	.L120:
 1354              		.align	2
ARM GAS  Build/stm32l4xx_hal_pwr_ex.s 			page 41


 1355              	.L119:
 1356 000c 00700040 		.word	1073770496
 1357              		.cfi_endproc
 1358              	.LFE95:
 1360              		.section	.text.HAL_PWREx_DisablePVM2,"ax",%progbits
 1361              		.align	1
 1362              		.global	HAL_PWREx_DisablePVM2
 1363              		.syntax unified
 1364              		.thumb
 1365              		.thumb_func
 1367              	HAL_PWREx_DisablePVM2:
 1368              	.LFB96:
 903:../Drivers/STM32L4xx_HAL_Driver/Src/stm32l4xx_hal_pwr_ex.c **** 
 904:../Drivers/STM32L4xx_HAL_Driver/Src/stm32l4xx_hal_pwr_ex.c **** /**
 905:../Drivers/STM32L4xx_HAL_Driver/Src/stm32l4xx_hal_pwr_ex.c ****   * @brief Disable the Power Voltage Monitoring 2: VDDIO2 versus 0.9V.
 906:../Drivers/STM32L4xx_HAL_Driver/Src/stm32l4xx_hal_pwr_ex.c ****   * @retval None
 907:../Drivers/STM32L4xx_HAL_Driver/Src/stm32l4xx_hal_pwr_ex.c ****   */
 908:../Drivers/STM32L4xx_HAL_Driver/Src/stm32l4xx_hal_pwr_ex.c **** void HAL_PWREx_DisablePVM2(void)
 909:../Drivers/STM32L4xx_HAL_Driver/Src/stm32l4xx_hal_pwr_ex.c **** {
 1369              		.loc 1 909 1 is_stmt 1 view -0
 1370              		.cfi_startproc
 1371              		@ args = 0, pretend = 0, frame = 0
 1372              		@ frame_needed = 0, uses_anonymous_args = 0
 1373              		@ link register save eliminated.
 910:../Drivers/STM32L4xx_HAL_Driver/Src/stm32l4xx_hal_pwr_ex.c ****   CLEAR_BIT(PWR->CR2, PWR_PVM_2);
 1374              		.loc 1 910 3 view .LVU294
 1375 0000 024A     		ldr	r2, .L122
 1376 0002 5368     		ldr	r3, [r2, #4]
 1377 0004 23F02003 		bic	r3, r3, #32
 1378 0008 5360     		str	r3, [r2, #4]
 911:../Drivers/STM32L4xx_HAL_Driver/Src/stm32l4xx_hal_pwr_ex.c **** }
 1379              		.loc 1 911 1 is_stmt 0 view .LVU295
 1380 000a 7047     		bx	lr
 1381              	.L123:
 1382              		.align	2
 1383              	.L122:
 1384 000c 00700040 		.word	1073770496
 1385              		.cfi_endproc
 1386              	.LFE96:
 1388              		.section	.text.HAL_PWREx_EnablePVM3,"ax",%progbits
 1389              		.align	1
 1390              		.global	HAL_PWREx_EnablePVM3
 1391              		.syntax unified
 1392              		.thumb
 1393              		.thumb_func
 1395              	HAL_PWREx_EnablePVM3:
 1396              	.LFB97:
 912:../Drivers/STM32L4xx_HAL_Driver/Src/stm32l4xx_hal_pwr_ex.c **** #endif /* PWR_CR2_PVME2 */
 913:../Drivers/STM32L4xx_HAL_Driver/Src/stm32l4xx_hal_pwr_ex.c **** 
 914:../Drivers/STM32L4xx_HAL_Driver/Src/stm32l4xx_hal_pwr_ex.c **** 
 915:../Drivers/STM32L4xx_HAL_Driver/Src/stm32l4xx_hal_pwr_ex.c **** /**
 916:../Drivers/STM32L4xx_HAL_Driver/Src/stm32l4xx_hal_pwr_ex.c ****   * @brief Enable the Power Voltage Monitoring 3: VDDA versus 1.62V.
 917:../Drivers/STM32L4xx_HAL_Driver/Src/stm32l4xx_hal_pwr_ex.c ****   * @retval None
 918:../Drivers/STM32L4xx_HAL_Driver/Src/stm32l4xx_hal_pwr_ex.c ****   */
 919:../Drivers/STM32L4xx_HAL_Driver/Src/stm32l4xx_hal_pwr_ex.c **** void HAL_PWREx_EnablePVM3(void)
 920:../Drivers/STM32L4xx_HAL_Driver/Src/stm32l4xx_hal_pwr_ex.c **** {
 1397              		.loc 1 920 1 is_stmt 1 view -0
ARM GAS  Build/stm32l4xx_hal_pwr_ex.s 			page 42


 1398              		.cfi_startproc
 1399              		@ args = 0, pretend = 0, frame = 0
 1400              		@ frame_needed = 0, uses_anonymous_args = 0
 1401              		@ link register save eliminated.
 921:../Drivers/STM32L4xx_HAL_Driver/Src/stm32l4xx_hal_pwr_ex.c ****   SET_BIT(PWR->CR2, PWR_PVM_3);
 1402              		.loc 1 921 3 view .LVU297
 1403 0000 024A     		ldr	r2, .L125
 1404 0002 5368     		ldr	r3, [r2, #4]
 1405 0004 43F04003 		orr	r3, r3, #64
 1406 0008 5360     		str	r3, [r2, #4]
 922:../Drivers/STM32L4xx_HAL_Driver/Src/stm32l4xx_hal_pwr_ex.c **** }
 1407              		.loc 1 922 1 is_stmt 0 view .LVU298
 1408 000a 7047     		bx	lr
 1409              	.L126:
 1410              		.align	2
 1411              	.L125:
 1412 000c 00700040 		.word	1073770496
 1413              		.cfi_endproc
 1414              	.LFE97:
 1416              		.section	.text.HAL_PWREx_DisablePVM3,"ax",%progbits
 1417              		.align	1
 1418              		.global	HAL_PWREx_DisablePVM3
 1419              		.syntax unified
 1420              		.thumb
 1421              		.thumb_func
 1423              	HAL_PWREx_DisablePVM3:
 1424              	.LFB98:
 923:../Drivers/STM32L4xx_HAL_Driver/Src/stm32l4xx_hal_pwr_ex.c **** 
 924:../Drivers/STM32L4xx_HAL_Driver/Src/stm32l4xx_hal_pwr_ex.c **** /**
 925:../Drivers/STM32L4xx_HAL_Driver/Src/stm32l4xx_hal_pwr_ex.c ****   * @brief Disable the Power Voltage Monitoring 3: VDDA versus 1.62V.
 926:../Drivers/STM32L4xx_HAL_Driver/Src/stm32l4xx_hal_pwr_ex.c ****   * @retval None
 927:../Drivers/STM32L4xx_HAL_Driver/Src/stm32l4xx_hal_pwr_ex.c ****   */
 928:../Drivers/STM32L4xx_HAL_Driver/Src/stm32l4xx_hal_pwr_ex.c **** void HAL_PWREx_DisablePVM3(void)
 929:../Drivers/STM32L4xx_HAL_Driver/Src/stm32l4xx_hal_pwr_ex.c **** {
 1425              		.loc 1 929 1 is_stmt 1 view -0
 1426              		.cfi_startproc
 1427              		@ args = 0, pretend = 0, frame = 0
 1428              		@ frame_needed = 0, uses_anonymous_args = 0
 1429              		@ link register save eliminated.
 930:../Drivers/STM32L4xx_HAL_Driver/Src/stm32l4xx_hal_pwr_ex.c ****   CLEAR_BIT(PWR->CR2, PWR_PVM_3);
 1430              		.loc 1 930 3 view .LVU300
 1431 0000 024A     		ldr	r2, .L128
 1432 0002 5368     		ldr	r3, [r2, #4]
 1433 0004 23F04003 		bic	r3, r3, #64
 1434 0008 5360     		str	r3, [r2, #4]
 931:../Drivers/STM32L4xx_HAL_Driver/Src/stm32l4xx_hal_pwr_ex.c **** }
 1435              		.loc 1 931 1 is_stmt 0 view .LVU301
 1436 000a 7047     		bx	lr
 1437              	.L129:
 1438              		.align	2
 1439              	.L128:
 1440 000c 00700040 		.word	1073770496
 1441              		.cfi_endproc
 1442              	.LFE98:
 1444              		.section	.text.HAL_PWREx_EnablePVM4,"ax",%progbits
 1445              		.align	1
 1446              		.global	HAL_PWREx_EnablePVM4
ARM GAS  Build/stm32l4xx_hal_pwr_ex.s 			page 43


 1447              		.syntax unified
 1448              		.thumb
 1449              		.thumb_func
 1451              	HAL_PWREx_EnablePVM4:
 1452              	.LFB99:
 932:../Drivers/STM32L4xx_HAL_Driver/Src/stm32l4xx_hal_pwr_ex.c **** 
 933:../Drivers/STM32L4xx_HAL_Driver/Src/stm32l4xx_hal_pwr_ex.c **** 
 934:../Drivers/STM32L4xx_HAL_Driver/Src/stm32l4xx_hal_pwr_ex.c **** /**
 935:../Drivers/STM32L4xx_HAL_Driver/Src/stm32l4xx_hal_pwr_ex.c ****   * @brief Enable the Power Voltage Monitoring 4:  VDDA versus 2.2V.
 936:../Drivers/STM32L4xx_HAL_Driver/Src/stm32l4xx_hal_pwr_ex.c ****   * @retval None
 937:../Drivers/STM32L4xx_HAL_Driver/Src/stm32l4xx_hal_pwr_ex.c ****   */
 938:../Drivers/STM32L4xx_HAL_Driver/Src/stm32l4xx_hal_pwr_ex.c **** void HAL_PWREx_EnablePVM4(void)
 939:../Drivers/STM32L4xx_HAL_Driver/Src/stm32l4xx_hal_pwr_ex.c **** {
 1453              		.loc 1 939 1 is_stmt 1 view -0
 1454              		.cfi_startproc
 1455              		@ args = 0, pretend = 0, frame = 0
 1456              		@ frame_needed = 0, uses_anonymous_args = 0
 1457              		@ link register save eliminated.
 940:../Drivers/STM32L4xx_HAL_Driver/Src/stm32l4xx_hal_pwr_ex.c ****   SET_BIT(PWR->CR2, PWR_PVM_4);
 1458              		.loc 1 940 3 view .LVU303
 1459 0000 024A     		ldr	r2, .L131
 1460 0002 5368     		ldr	r3, [r2, #4]
 1461 0004 43F08003 		orr	r3, r3, #128
 1462 0008 5360     		str	r3, [r2, #4]
 941:../Drivers/STM32L4xx_HAL_Driver/Src/stm32l4xx_hal_pwr_ex.c **** }
 1463              		.loc 1 941 1 is_stmt 0 view .LVU304
 1464 000a 7047     		bx	lr
 1465              	.L132:
 1466              		.align	2
 1467              	.L131:
 1468 000c 00700040 		.word	1073770496
 1469              		.cfi_endproc
 1470              	.LFE99:
 1472              		.section	.text.HAL_PWREx_DisablePVM4,"ax",%progbits
 1473              		.align	1
 1474              		.global	HAL_PWREx_DisablePVM4
 1475              		.syntax unified
 1476              		.thumb
 1477              		.thumb_func
 1479              	HAL_PWREx_DisablePVM4:
 1480              	.LFB100:
 942:../Drivers/STM32L4xx_HAL_Driver/Src/stm32l4xx_hal_pwr_ex.c **** 
 943:../Drivers/STM32L4xx_HAL_Driver/Src/stm32l4xx_hal_pwr_ex.c **** /**
 944:../Drivers/STM32L4xx_HAL_Driver/Src/stm32l4xx_hal_pwr_ex.c ****   * @brief Disable the Power Voltage Monitoring 4:  VDDA versus 2.2V.
 945:../Drivers/STM32L4xx_HAL_Driver/Src/stm32l4xx_hal_pwr_ex.c ****   * @retval None
 946:../Drivers/STM32L4xx_HAL_Driver/Src/stm32l4xx_hal_pwr_ex.c ****   */
 947:../Drivers/STM32L4xx_HAL_Driver/Src/stm32l4xx_hal_pwr_ex.c **** void HAL_PWREx_DisablePVM4(void)
 948:../Drivers/STM32L4xx_HAL_Driver/Src/stm32l4xx_hal_pwr_ex.c **** {
 1481              		.loc 1 948 1 is_stmt 1 view -0
 1482              		.cfi_startproc
 1483              		@ args = 0, pretend = 0, frame = 0
 1484              		@ frame_needed = 0, uses_anonymous_args = 0
 1485              		@ link register save eliminated.
 949:../Drivers/STM32L4xx_HAL_Driver/Src/stm32l4xx_hal_pwr_ex.c ****   CLEAR_BIT(PWR->CR2, PWR_PVM_4);
 1486              		.loc 1 949 3 view .LVU306
 1487 0000 024A     		ldr	r2, .L134
 1488 0002 5368     		ldr	r3, [r2, #4]
ARM GAS  Build/stm32l4xx_hal_pwr_ex.s 			page 44


 1489 0004 23F08003 		bic	r3, r3, #128
 1490 0008 5360     		str	r3, [r2, #4]
 950:../Drivers/STM32L4xx_HAL_Driver/Src/stm32l4xx_hal_pwr_ex.c **** }
 1491              		.loc 1 950 1 is_stmt 0 view .LVU307
 1492 000a 7047     		bx	lr
 1493              	.L135:
 1494              		.align	2
 1495              	.L134:
 1496 000c 00700040 		.word	1073770496
 1497              		.cfi_endproc
 1498              	.LFE100:
 1500              		.section	.text.HAL_PWREx_ConfigPVM,"ax",%progbits
 1501              		.align	1
 1502              		.global	HAL_PWREx_ConfigPVM
 1503              		.syntax unified
 1504              		.thumb
 1505              		.thumb_func
 1507              	HAL_PWREx_ConfigPVM:
 1508              	.LVL102:
 1509              	.LFB101:
 951:../Drivers/STM32L4xx_HAL_Driver/Src/stm32l4xx_hal_pwr_ex.c **** 
 952:../Drivers/STM32L4xx_HAL_Driver/Src/stm32l4xx_hal_pwr_ex.c **** 
 953:../Drivers/STM32L4xx_HAL_Driver/Src/stm32l4xx_hal_pwr_ex.c **** 
 954:../Drivers/STM32L4xx_HAL_Driver/Src/stm32l4xx_hal_pwr_ex.c **** 
 955:../Drivers/STM32L4xx_HAL_Driver/Src/stm32l4xx_hal_pwr_ex.c **** /**
 956:../Drivers/STM32L4xx_HAL_Driver/Src/stm32l4xx_hal_pwr_ex.c ****   * @brief Configure the Peripheral Voltage Monitoring (PVM).
 957:../Drivers/STM32L4xx_HAL_Driver/Src/stm32l4xx_hal_pwr_ex.c ****   * @param sConfigPVM: pointer to a PWR_PVMTypeDef structure that contains the
 958:../Drivers/STM32L4xx_HAL_Driver/Src/stm32l4xx_hal_pwr_ex.c ****   *        PVM configuration information.
 959:../Drivers/STM32L4xx_HAL_Driver/Src/stm32l4xx_hal_pwr_ex.c ****   * @note The API configures a single PVM according to the information contained
 960:../Drivers/STM32L4xx_HAL_Driver/Src/stm32l4xx_hal_pwr_ex.c ****   *       in the input structure. To configure several PVMs, the API must be singly
 961:../Drivers/STM32L4xx_HAL_Driver/Src/stm32l4xx_hal_pwr_ex.c ****   *       called for each PVM used.
 962:../Drivers/STM32L4xx_HAL_Driver/Src/stm32l4xx_hal_pwr_ex.c ****   * @note Refer to the electrical characteristics of your device datasheet for
 963:../Drivers/STM32L4xx_HAL_Driver/Src/stm32l4xx_hal_pwr_ex.c ****   *         more details about the voltage thresholds corresponding to each
 964:../Drivers/STM32L4xx_HAL_Driver/Src/stm32l4xx_hal_pwr_ex.c ****   *         detection level and to each monitored supply.
 965:../Drivers/STM32L4xx_HAL_Driver/Src/stm32l4xx_hal_pwr_ex.c ****   * @retval HAL status
 966:../Drivers/STM32L4xx_HAL_Driver/Src/stm32l4xx_hal_pwr_ex.c ****   */
 967:../Drivers/STM32L4xx_HAL_Driver/Src/stm32l4xx_hal_pwr_ex.c **** HAL_StatusTypeDef HAL_PWREx_ConfigPVM(PWR_PVMTypeDef *sConfigPVM)
 968:../Drivers/STM32L4xx_HAL_Driver/Src/stm32l4xx_hal_pwr_ex.c **** {
 1510              		.loc 1 968 1 is_stmt 1 view -0
 1511              		.cfi_startproc
 1512              		@ args = 0, pretend = 0, frame = 0
 1513              		@ frame_needed = 0, uses_anonymous_args = 0
 1514              		@ link register save eliminated.
 969:../Drivers/STM32L4xx_HAL_Driver/Src/stm32l4xx_hal_pwr_ex.c ****   HAL_StatusTypeDef status = HAL_OK;
 1515              		.loc 1 969 3 view .LVU309
 970:../Drivers/STM32L4xx_HAL_Driver/Src/stm32l4xx_hal_pwr_ex.c **** 
 971:../Drivers/STM32L4xx_HAL_Driver/Src/stm32l4xx_hal_pwr_ex.c ****   /* Check the parameters */
 972:../Drivers/STM32L4xx_HAL_Driver/Src/stm32l4xx_hal_pwr_ex.c ****   assert_param(IS_PWR_PVM_TYPE(sConfigPVM->PVMType));
 1516              		.loc 1 972 3 view .LVU310
 973:../Drivers/STM32L4xx_HAL_Driver/Src/stm32l4xx_hal_pwr_ex.c ****   assert_param(IS_PWR_PVM_MODE(sConfigPVM->Mode));
 1517              		.loc 1 973 3 view .LVU311
 974:../Drivers/STM32L4xx_HAL_Driver/Src/stm32l4xx_hal_pwr_ex.c **** 
 975:../Drivers/STM32L4xx_HAL_Driver/Src/stm32l4xx_hal_pwr_ex.c **** 
 976:../Drivers/STM32L4xx_HAL_Driver/Src/stm32l4xx_hal_pwr_ex.c ****   /* Configure EXTI 35 to 38 interrupts if so required:
 977:../Drivers/STM32L4xx_HAL_Driver/Src/stm32l4xx_hal_pwr_ex.c ****      scan through PVMType to detect which PVMx is set and
 978:../Drivers/STM32L4xx_HAL_Driver/Src/stm32l4xx_hal_pwr_ex.c ****      configure the corresponding EXTI line accordingly. */
 979:../Drivers/STM32L4xx_HAL_Driver/Src/stm32l4xx_hal_pwr_ex.c ****   switch (sConfigPVM->PVMType)
ARM GAS  Build/stm32l4xx_hal_pwr_ex.s 			page 45


 1518              		.loc 1 979 3 view .LVU312
 1519              		.loc 1 979 21 is_stmt 0 view .LVU313
 1520 0000 0368     		ldr	r3, [r0]
 1521              		.loc 1 979 3 view .LVU314
 1522 0002 402B     		cmp	r3, #64
 1523 0004 00F0B180 		beq	.L137
 1524 0008 3DD8     		bhi	.L138
 1525 000a 102B     		cmp	r3, #16
 1526 000c 76D0     		beq	.L139
 1527 000e 202B     		cmp	r3, #32
 1528 0010 37D1     		bne	.L159
 980:../Drivers/STM32L4xx_HAL_Driver/Src/stm32l4xx_hal_pwr_ex.c ****   {
 981:../Drivers/STM32L4xx_HAL_Driver/Src/stm32l4xx_hal_pwr_ex.c **** #if defined(PWR_CR2_PVME1)
 982:../Drivers/STM32L4xx_HAL_Driver/Src/stm32l4xx_hal_pwr_ex.c ****     case PWR_PVM_1:
 983:../Drivers/STM32L4xx_HAL_Driver/Src/stm32l4xx_hal_pwr_ex.c ****       /* Clear any previous config. Keep it clear if no event or IT mode is selected */
 984:../Drivers/STM32L4xx_HAL_Driver/Src/stm32l4xx_hal_pwr_ex.c ****       __HAL_PWR_PVM1_EXTI_DISABLE_EVENT();
 985:../Drivers/STM32L4xx_HAL_Driver/Src/stm32l4xx_hal_pwr_ex.c ****       __HAL_PWR_PVM1_EXTI_DISABLE_IT();
 986:../Drivers/STM32L4xx_HAL_Driver/Src/stm32l4xx_hal_pwr_ex.c ****       __HAL_PWR_PVM1_EXTI_DISABLE_FALLING_EDGE();
 987:../Drivers/STM32L4xx_HAL_Driver/Src/stm32l4xx_hal_pwr_ex.c ****       __HAL_PWR_PVM1_EXTI_DISABLE_RISING_EDGE();
 988:../Drivers/STM32L4xx_HAL_Driver/Src/stm32l4xx_hal_pwr_ex.c **** 
 989:../Drivers/STM32L4xx_HAL_Driver/Src/stm32l4xx_hal_pwr_ex.c ****       /* Configure interrupt mode */
 990:../Drivers/STM32L4xx_HAL_Driver/Src/stm32l4xx_hal_pwr_ex.c ****       if((sConfigPVM->Mode & PVM_MODE_IT) == PVM_MODE_IT)
 991:../Drivers/STM32L4xx_HAL_Driver/Src/stm32l4xx_hal_pwr_ex.c ****       {
 992:../Drivers/STM32L4xx_HAL_Driver/Src/stm32l4xx_hal_pwr_ex.c ****         __HAL_PWR_PVM1_EXTI_ENABLE_IT();
 993:../Drivers/STM32L4xx_HAL_Driver/Src/stm32l4xx_hal_pwr_ex.c ****       }
 994:../Drivers/STM32L4xx_HAL_Driver/Src/stm32l4xx_hal_pwr_ex.c **** 
 995:../Drivers/STM32L4xx_HAL_Driver/Src/stm32l4xx_hal_pwr_ex.c ****       /* Configure event mode */
 996:../Drivers/STM32L4xx_HAL_Driver/Src/stm32l4xx_hal_pwr_ex.c ****       if((sConfigPVM->Mode & PVM_MODE_EVT) == PVM_MODE_EVT)
 997:../Drivers/STM32L4xx_HAL_Driver/Src/stm32l4xx_hal_pwr_ex.c ****       {
 998:../Drivers/STM32L4xx_HAL_Driver/Src/stm32l4xx_hal_pwr_ex.c ****         __HAL_PWR_PVM1_EXTI_ENABLE_EVENT();
 999:../Drivers/STM32L4xx_HAL_Driver/Src/stm32l4xx_hal_pwr_ex.c ****       }
1000:../Drivers/STM32L4xx_HAL_Driver/Src/stm32l4xx_hal_pwr_ex.c **** 
1001:../Drivers/STM32L4xx_HAL_Driver/Src/stm32l4xx_hal_pwr_ex.c ****       /* Configure the edge */
1002:../Drivers/STM32L4xx_HAL_Driver/Src/stm32l4xx_hal_pwr_ex.c ****       if((sConfigPVM->Mode & PVM_RISING_EDGE) == PVM_RISING_EDGE)
1003:../Drivers/STM32L4xx_HAL_Driver/Src/stm32l4xx_hal_pwr_ex.c ****       {
1004:../Drivers/STM32L4xx_HAL_Driver/Src/stm32l4xx_hal_pwr_ex.c ****         __HAL_PWR_PVM1_EXTI_ENABLE_RISING_EDGE();
1005:../Drivers/STM32L4xx_HAL_Driver/Src/stm32l4xx_hal_pwr_ex.c ****       }
1006:../Drivers/STM32L4xx_HAL_Driver/Src/stm32l4xx_hal_pwr_ex.c **** 
1007:../Drivers/STM32L4xx_HAL_Driver/Src/stm32l4xx_hal_pwr_ex.c ****       if((sConfigPVM->Mode & PVM_FALLING_EDGE) == PVM_FALLING_EDGE)
1008:../Drivers/STM32L4xx_HAL_Driver/Src/stm32l4xx_hal_pwr_ex.c ****       {
1009:../Drivers/STM32L4xx_HAL_Driver/Src/stm32l4xx_hal_pwr_ex.c ****         __HAL_PWR_PVM1_EXTI_ENABLE_FALLING_EDGE();
1010:../Drivers/STM32L4xx_HAL_Driver/Src/stm32l4xx_hal_pwr_ex.c ****       }
1011:../Drivers/STM32L4xx_HAL_Driver/Src/stm32l4xx_hal_pwr_ex.c ****       break;
1012:../Drivers/STM32L4xx_HAL_Driver/Src/stm32l4xx_hal_pwr_ex.c **** #endif /* PWR_CR2_PVME1 */
1013:../Drivers/STM32L4xx_HAL_Driver/Src/stm32l4xx_hal_pwr_ex.c **** 
1014:../Drivers/STM32L4xx_HAL_Driver/Src/stm32l4xx_hal_pwr_ex.c **** #if defined(PWR_CR2_PVME2)
1015:../Drivers/STM32L4xx_HAL_Driver/Src/stm32l4xx_hal_pwr_ex.c ****     case PWR_PVM_2:
1016:../Drivers/STM32L4xx_HAL_Driver/Src/stm32l4xx_hal_pwr_ex.c ****       /* Clear any previous config. Keep it clear if no event or IT mode is selected */
1017:../Drivers/STM32L4xx_HAL_Driver/Src/stm32l4xx_hal_pwr_ex.c ****       __HAL_PWR_PVM2_EXTI_DISABLE_EVENT();
 1529              		.loc 1 1017 7 is_stmt 1 view .LVU315
 1530 0012 754B     		ldr	r3, .L161
 1531 0014 5A6A     		ldr	r2, [r3, #36]
 1532 0016 22F01002 		bic	r2, r2, #16
 1533 001a 5A62     		str	r2, [r3, #36]
1018:../Drivers/STM32L4xx_HAL_Driver/Src/stm32l4xx_hal_pwr_ex.c ****       __HAL_PWR_PVM2_EXTI_DISABLE_IT();
 1534              		.loc 1 1018 7 view .LVU316
 1535 001c 1A6A     		ldr	r2, [r3, #32]
ARM GAS  Build/stm32l4xx_hal_pwr_ex.s 			page 46


 1536 001e 22F01002 		bic	r2, r2, #16
 1537 0022 1A62     		str	r2, [r3, #32]
1019:../Drivers/STM32L4xx_HAL_Driver/Src/stm32l4xx_hal_pwr_ex.c ****       __HAL_PWR_PVM2_EXTI_DISABLE_FALLING_EDGE();
 1538              		.loc 1 1019 7 view .LVU317
 1539 0024 DA6A     		ldr	r2, [r3, #44]
 1540 0026 22F01002 		bic	r2, r2, #16
 1541 002a DA62     		str	r2, [r3, #44]
1020:../Drivers/STM32L4xx_HAL_Driver/Src/stm32l4xx_hal_pwr_ex.c ****       __HAL_PWR_PVM2_EXTI_DISABLE_RISING_EDGE();
 1542              		.loc 1 1020 7 view .LVU318
 1543 002c 9A6A     		ldr	r2, [r3, #40]
 1544 002e 22F01002 		bic	r2, r2, #16
 1545 0032 9A62     		str	r2, [r3, #40]
1021:../Drivers/STM32L4xx_HAL_Driver/Src/stm32l4xx_hal_pwr_ex.c **** 
1022:../Drivers/STM32L4xx_HAL_Driver/Src/stm32l4xx_hal_pwr_ex.c ****       /* Configure interrupt mode */
1023:../Drivers/STM32L4xx_HAL_Driver/Src/stm32l4xx_hal_pwr_ex.c ****       if((sConfigPVM->Mode & PVM_MODE_IT) == PVM_MODE_IT)
 1546              		.loc 1 1023 7 view .LVU319
 1547              		.loc 1 1023 21 is_stmt 0 view .LVU320
 1548 0034 4368     		ldr	r3, [r0, #4]
 1549              		.loc 1 1023 9 view .LVU321
 1550 0036 13F4803F 		tst	r3, #65536
 1551 003a 04D0     		beq	.L146
1024:../Drivers/STM32L4xx_HAL_Driver/Src/stm32l4xx_hal_pwr_ex.c ****       {
1025:../Drivers/STM32L4xx_HAL_Driver/Src/stm32l4xx_hal_pwr_ex.c ****         __HAL_PWR_PVM2_EXTI_ENABLE_IT();
 1552              		.loc 1 1025 9 is_stmt 1 view .LVU322
 1553 003c 6A4A     		ldr	r2, .L161
 1554 003e 136A     		ldr	r3, [r2, #32]
 1555 0040 43F01003 		orr	r3, r3, #16
 1556 0044 1362     		str	r3, [r2, #32]
 1557              	.L146:
1026:../Drivers/STM32L4xx_HAL_Driver/Src/stm32l4xx_hal_pwr_ex.c ****       }
1027:../Drivers/STM32L4xx_HAL_Driver/Src/stm32l4xx_hal_pwr_ex.c **** 
1028:../Drivers/STM32L4xx_HAL_Driver/Src/stm32l4xx_hal_pwr_ex.c ****       /* Configure event mode */
1029:../Drivers/STM32L4xx_HAL_Driver/Src/stm32l4xx_hal_pwr_ex.c ****       if((sConfigPVM->Mode & PVM_MODE_EVT) == PVM_MODE_EVT)
 1558              		.loc 1 1029 7 view .LVU323
 1559              		.loc 1 1029 21 is_stmt 0 view .LVU324
 1560 0046 4368     		ldr	r3, [r0, #4]
 1561              		.loc 1 1029 9 view .LVU325
 1562 0048 13F4003F 		tst	r3, #131072
 1563 004c 04D0     		beq	.L147
1030:../Drivers/STM32L4xx_HAL_Driver/Src/stm32l4xx_hal_pwr_ex.c ****       {
1031:../Drivers/STM32L4xx_HAL_Driver/Src/stm32l4xx_hal_pwr_ex.c ****         __HAL_PWR_PVM2_EXTI_ENABLE_EVENT();
 1564              		.loc 1 1031 9 is_stmt 1 view .LVU326
 1565 004e 664A     		ldr	r2, .L161
 1566 0050 536A     		ldr	r3, [r2, #36]
 1567 0052 43F01003 		orr	r3, r3, #16
 1568 0056 5362     		str	r3, [r2, #36]
 1569              	.L147:
1032:../Drivers/STM32L4xx_HAL_Driver/Src/stm32l4xx_hal_pwr_ex.c ****       }
1033:../Drivers/STM32L4xx_HAL_Driver/Src/stm32l4xx_hal_pwr_ex.c **** 
1034:../Drivers/STM32L4xx_HAL_Driver/Src/stm32l4xx_hal_pwr_ex.c ****       /* Configure the edge */
1035:../Drivers/STM32L4xx_HAL_Driver/Src/stm32l4xx_hal_pwr_ex.c ****       if((sConfigPVM->Mode & PVM_RISING_EDGE) == PVM_RISING_EDGE)
 1570              		.loc 1 1035 7 view .LVU327
 1571              		.loc 1 1035 21 is_stmt 0 view .LVU328
 1572 0058 4368     		ldr	r3, [r0, #4]
 1573              		.loc 1 1035 9 view .LVU329
 1574 005a 13F0010F 		tst	r3, #1
 1575 005e 04D0     		beq	.L148
ARM GAS  Build/stm32l4xx_hal_pwr_ex.s 			page 47


1036:../Drivers/STM32L4xx_HAL_Driver/Src/stm32l4xx_hal_pwr_ex.c ****       {
1037:../Drivers/STM32L4xx_HAL_Driver/Src/stm32l4xx_hal_pwr_ex.c ****         __HAL_PWR_PVM2_EXTI_ENABLE_RISING_EDGE();
 1576              		.loc 1 1037 9 is_stmt 1 view .LVU330
 1577 0060 614A     		ldr	r2, .L161
 1578 0062 936A     		ldr	r3, [r2, #40]
 1579 0064 43F01003 		orr	r3, r3, #16
 1580 0068 9362     		str	r3, [r2, #40]
 1581              	.L148:
1038:../Drivers/STM32L4xx_HAL_Driver/Src/stm32l4xx_hal_pwr_ex.c ****       }
1039:../Drivers/STM32L4xx_HAL_Driver/Src/stm32l4xx_hal_pwr_ex.c **** 
1040:../Drivers/STM32L4xx_HAL_Driver/Src/stm32l4xx_hal_pwr_ex.c ****       if((sConfigPVM->Mode & PVM_FALLING_EDGE) == PVM_FALLING_EDGE)
 1582              		.loc 1 1040 7 view .LVU331
 1583              		.loc 1 1040 21 is_stmt 0 view .LVU332
 1584 006a 4368     		ldr	r3, [r0, #4]
 1585              		.loc 1 1040 9 view .LVU333
 1586 006c 13F0020F 		tst	r3, #2
 1587 0070 00F0B480 		beq	.L156
1041:../Drivers/STM32L4xx_HAL_Driver/Src/stm32l4xx_hal_pwr_ex.c ****       {
1042:../Drivers/STM32L4xx_HAL_Driver/Src/stm32l4xx_hal_pwr_ex.c ****         __HAL_PWR_PVM2_EXTI_ENABLE_FALLING_EDGE();
 1588              		.loc 1 1042 9 is_stmt 1 view .LVU334
 1589 0074 5C4A     		ldr	r2, .L161
 1590 0076 D36A     		ldr	r3, [r2, #44]
 1591 0078 43F01003 		orr	r3, r3, #16
 1592 007c D362     		str	r3, [r2, #44]
 969:../Drivers/STM32L4xx_HAL_Driver/Src/stm32l4xx_hal_pwr_ex.c **** 
 1593              		.loc 1 969 21 is_stmt 0 view .LVU335
 1594 007e 0020     		movs	r0, #0
 1595              	.LVL103:
 969:../Drivers/STM32L4xx_HAL_Driver/Src/stm32l4xx_hal_pwr_ex.c **** 
 1596              		.loc 1 969 21 view .LVU336
 1597 0080 7047     		bx	lr
 1598              	.LVL104:
 1599              	.L159:
 979:../Drivers/STM32L4xx_HAL_Driver/Src/stm32l4xx_hal_pwr_ex.c ****   {
 1600              		.loc 1 979 3 view .LVU337
 1601 0082 0120     		movs	r0, #1
 1602              	.LVL105:
 979:../Drivers/STM32L4xx_HAL_Driver/Src/stm32l4xx_hal_pwr_ex.c ****   {
 1603              		.loc 1 979 3 view .LVU338
 1604 0084 7047     		bx	lr
 1605              	.LVL106:
 1606              	.L138:
 979:../Drivers/STM32L4xx_HAL_Driver/Src/stm32l4xx_hal_pwr_ex.c ****   {
 1607              		.loc 1 979 3 view .LVU339
 1608 0086 802B     		cmp	r3, #128
 1609 0088 36D1     		bne	.L160
1043:../Drivers/STM32L4xx_HAL_Driver/Src/stm32l4xx_hal_pwr_ex.c ****       }
1044:../Drivers/STM32L4xx_HAL_Driver/Src/stm32l4xx_hal_pwr_ex.c ****       break;
1045:../Drivers/STM32L4xx_HAL_Driver/Src/stm32l4xx_hal_pwr_ex.c **** #endif /* PWR_CR2_PVME2 */
1046:../Drivers/STM32L4xx_HAL_Driver/Src/stm32l4xx_hal_pwr_ex.c **** 
1047:../Drivers/STM32L4xx_HAL_Driver/Src/stm32l4xx_hal_pwr_ex.c ****     case PWR_PVM_3:
1048:../Drivers/STM32L4xx_HAL_Driver/Src/stm32l4xx_hal_pwr_ex.c ****       /* Clear any previous config. Keep it clear if no event or IT mode is selected */
1049:../Drivers/STM32L4xx_HAL_Driver/Src/stm32l4xx_hal_pwr_ex.c ****       __HAL_PWR_PVM3_EXTI_DISABLE_EVENT();
1050:../Drivers/STM32L4xx_HAL_Driver/Src/stm32l4xx_hal_pwr_ex.c ****       __HAL_PWR_PVM3_EXTI_DISABLE_IT();
1051:../Drivers/STM32L4xx_HAL_Driver/Src/stm32l4xx_hal_pwr_ex.c ****       __HAL_PWR_PVM3_EXTI_DISABLE_FALLING_EDGE();
1052:../Drivers/STM32L4xx_HAL_Driver/Src/stm32l4xx_hal_pwr_ex.c ****       __HAL_PWR_PVM3_EXTI_DISABLE_RISING_EDGE();
1053:../Drivers/STM32L4xx_HAL_Driver/Src/stm32l4xx_hal_pwr_ex.c **** 
ARM GAS  Build/stm32l4xx_hal_pwr_ex.s 			page 48


1054:../Drivers/STM32L4xx_HAL_Driver/Src/stm32l4xx_hal_pwr_ex.c ****       /* Configure interrupt mode */
1055:../Drivers/STM32L4xx_HAL_Driver/Src/stm32l4xx_hal_pwr_ex.c ****       if((sConfigPVM->Mode & PVM_MODE_IT) == PVM_MODE_IT)
1056:../Drivers/STM32L4xx_HAL_Driver/Src/stm32l4xx_hal_pwr_ex.c ****       {
1057:../Drivers/STM32L4xx_HAL_Driver/Src/stm32l4xx_hal_pwr_ex.c ****         __HAL_PWR_PVM3_EXTI_ENABLE_IT();
1058:../Drivers/STM32L4xx_HAL_Driver/Src/stm32l4xx_hal_pwr_ex.c ****       }
1059:../Drivers/STM32L4xx_HAL_Driver/Src/stm32l4xx_hal_pwr_ex.c **** 
1060:../Drivers/STM32L4xx_HAL_Driver/Src/stm32l4xx_hal_pwr_ex.c ****       /* Configure event mode */
1061:../Drivers/STM32L4xx_HAL_Driver/Src/stm32l4xx_hal_pwr_ex.c ****       if((sConfigPVM->Mode & PVM_MODE_EVT) == PVM_MODE_EVT)
1062:../Drivers/STM32L4xx_HAL_Driver/Src/stm32l4xx_hal_pwr_ex.c ****       {
1063:../Drivers/STM32L4xx_HAL_Driver/Src/stm32l4xx_hal_pwr_ex.c ****         __HAL_PWR_PVM3_EXTI_ENABLE_EVENT();
1064:../Drivers/STM32L4xx_HAL_Driver/Src/stm32l4xx_hal_pwr_ex.c ****       }
1065:../Drivers/STM32L4xx_HAL_Driver/Src/stm32l4xx_hal_pwr_ex.c **** 
1066:../Drivers/STM32L4xx_HAL_Driver/Src/stm32l4xx_hal_pwr_ex.c ****       /* Configure the edge */
1067:../Drivers/STM32L4xx_HAL_Driver/Src/stm32l4xx_hal_pwr_ex.c ****       if((sConfigPVM->Mode & PVM_RISING_EDGE) == PVM_RISING_EDGE)
1068:../Drivers/STM32L4xx_HAL_Driver/Src/stm32l4xx_hal_pwr_ex.c ****       {
1069:../Drivers/STM32L4xx_HAL_Driver/Src/stm32l4xx_hal_pwr_ex.c ****         __HAL_PWR_PVM3_EXTI_ENABLE_RISING_EDGE();
1070:../Drivers/STM32L4xx_HAL_Driver/Src/stm32l4xx_hal_pwr_ex.c ****       }
1071:../Drivers/STM32L4xx_HAL_Driver/Src/stm32l4xx_hal_pwr_ex.c **** 
1072:../Drivers/STM32L4xx_HAL_Driver/Src/stm32l4xx_hal_pwr_ex.c ****       if((sConfigPVM->Mode & PVM_FALLING_EDGE) == PVM_FALLING_EDGE)
1073:../Drivers/STM32L4xx_HAL_Driver/Src/stm32l4xx_hal_pwr_ex.c ****       {
1074:../Drivers/STM32L4xx_HAL_Driver/Src/stm32l4xx_hal_pwr_ex.c ****         __HAL_PWR_PVM3_EXTI_ENABLE_FALLING_EDGE();
1075:../Drivers/STM32L4xx_HAL_Driver/Src/stm32l4xx_hal_pwr_ex.c ****       }
1076:../Drivers/STM32L4xx_HAL_Driver/Src/stm32l4xx_hal_pwr_ex.c ****       break;
1077:../Drivers/STM32L4xx_HAL_Driver/Src/stm32l4xx_hal_pwr_ex.c **** 
1078:../Drivers/STM32L4xx_HAL_Driver/Src/stm32l4xx_hal_pwr_ex.c ****     case PWR_PVM_4:
1079:../Drivers/STM32L4xx_HAL_Driver/Src/stm32l4xx_hal_pwr_ex.c ****       /* Clear any previous config. Keep it clear if no event or IT mode is selected */
1080:../Drivers/STM32L4xx_HAL_Driver/Src/stm32l4xx_hal_pwr_ex.c ****       __HAL_PWR_PVM4_EXTI_DISABLE_EVENT();
 1610              		.loc 1 1080 7 is_stmt 1 view .LVU340
 1611 008a 574B     		ldr	r3, .L161
 1612 008c 5A6A     		ldr	r2, [r3, #36]
 1613 008e 22F04002 		bic	r2, r2, #64
 1614 0092 5A62     		str	r2, [r3, #36]
1081:../Drivers/STM32L4xx_HAL_Driver/Src/stm32l4xx_hal_pwr_ex.c ****       __HAL_PWR_PVM4_EXTI_DISABLE_IT();
 1615              		.loc 1 1081 7 view .LVU341
 1616 0094 1A6A     		ldr	r2, [r3, #32]
 1617 0096 22F04002 		bic	r2, r2, #64
 1618 009a 1A62     		str	r2, [r3, #32]
1082:../Drivers/STM32L4xx_HAL_Driver/Src/stm32l4xx_hal_pwr_ex.c ****       __HAL_PWR_PVM4_EXTI_DISABLE_FALLING_EDGE();
 1619              		.loc 1 1082 7 view .LVU342
 1620 009c DA6A     		ldr	r2, [r3, #44]
 1621 009e 22F04002 		bic	r2, r2, #64
 1622 00a2 DA62     		str	r2, [r3, #44]
1083:../Drivers/STM32L4xx_HAL_Driver/Src/stm32l4xx_hal_pwr_ex.c ****       __HAL_PWR_PVM4_EXTI_DISABLE_RISING_EDGE();
 1623              		.loc 1 1083 7 view .LVU343
 1624 00a4 9A6A     		ldr	r2, [r3, #40]
 1625 00a6 22F04002 		bic	r2, r2, #64
 1626 00aa 9A62     		str	r2, [r3, #40]
1084:../Drivers/STM32L4xx_HAL_Driver/Src/stm32l4xx_hal_pwr_ex.c **** 
1085:../Drivers/STM32L4xx_HAL_Driver/Src/stm32l4xx_hal_pwr_ex.c ****       /* Configure interrupt mode */
1086:../Drivers/STM32L4xx_HAL_Driver/Src/stm32l4xx_hal_pwr_ex.c ****       if((sConfigPVM->Mode & PVM_MODE_IT) == PVM_MODE_IT)
 1627              		.loc 1 1086 7 view .LVU344
 1628              		.loc 1 1086 21 is_stmt 0 view .LVU345
 1629 00ac 4368     		ldr	r3, [r0, #4]
 1630              		.loc 1 1086 9 view .LVU346
 1631 00ae 13F4803F 		tst	r3, #65536
 1632 00b2 04D0     		beq	.L152
1087:../Drivers/STM32L4xx_HAL_Driver/Src/stm32l4xx_hal_pwr_ex.c ****       {
ARM GAS  Build/stm32l4xx_hal_pwr_ex.s 			page 49


1088:../Drivers/STM32L4xx_HAL_Driver/Src/stm32l4xx_hal_pwr_ex.c ****         __HAL_PWR_PVM4_EXTI_ENABLE_IT();
 1633              		.loc 1 1088 9 is_stmt 1 view .LVU347
 1634 00b4 4C4A     		ldr	r2, .L161
 1635 00b6 136A     		ldr	r3, [r2, #32]
 1636 00b8 43F04003 		orr	r3, r3, #64
 1637 00bc 1362     		str	r3, [r2, #32]
 1638              	.L152:
1089:../Drivers/STM32L4xx_HAL_Driver/Src/stm32l4xx_hal_pwr_ex.c ****       }
1090:../Drivers/STM32L4xx_HAL_Driver/Src/stm32l4xx_hal_pwr_ex.c **** 
1091:../Drivers/STM32L4xx_HAL_Driver/Src/stm32l4xx_hal_pwr_ex.c ****       /* Configure event mode */
1092:../Drivers/STM32L4xx_HAL_Driver/Src/stm32l4xx_hal_pwr_ex.c ****       if((sConfigPVM->Mode & PVM_MODE_EVT) == PVM_MODE_EVT)
 1639              		.loc 1 1092 7 view .LVU348
 1640              		.loc 1 1092 21 is_stmt 0 view .LVU349
 1641 00be 4368     		ldr	r3, [r0, #4]
 1642              		.loc 1 1092 9 view .LVU350
 1643 00c0 13F4003F 		tst	r3, #131072
 1644 00c4 04D0     		beq	.L153
1093:../Drivers/STM32L4xx_HAL_Driver/Src/stm32l4xx_hal_pwr_ex.c ****       {
1094:../Drivers/STM32L4xx_HAL_Driver/Src/stm32l4xx_hal_pwr_ex.c ****         __HAL_PWR_PVM4_EXTI_ENABLE_EVENT();
 1645              		.loc 1 1094 9 is_stmt 1 view .LVU351
 1646 00c6 484A     		ldr	r2, .L161
 1647 00c8 536A     		ldr	r3, [r2, #36]
 1648 00ca 43F04003 		orr	r3, r3, #64
 1649 00ce 5362     		str	r3, [r2, #36]
 1650              	.L153:
1095:../Drivers/STM32L4xx_HAL_Driver/Src/stm32l4xx_hal_pwr_ex.c ****       }
1096:../Drivers/STM32L4xx_HAL_Driver/Src/stm32l4xx_hal_pwr_ex.c **** 
1097:../Drivers/STM32L4xx_HAL_Driver/Src/stm32l4xx_hal_pwr_ex.c ****       /* Configure the edge */
1098:../Drivers/STM32L4xx_HAL_Driver/Src/stm32l4xx_hal_pwr_ex.c ****       if((sConfigPVM->Mode & PVM_RISING_EDGE) == PVM_RISING_EDGE)
 1651              		.loc 1 1098 7 view .LVU352
 1652              		.loc 1 1098 21 is_stmt 0 view .LVU353
 1653 00d0 4368     		ldr	r3, [r0, #4]
 1654              		.loc 1 1098 9 view .LVU354
 1655 00d2 13F0010F 		tst	r3, #1
 1656 00d6 04D0     		beq	.L154
1099:../Drivers/STM32L4xx_HAL_Driver/Src/stm32l4xx_hal_pwr_ex.c ****       {
1100:../Drivers/STM32L4xx_HAL_Driver/Src/stm32l4xx_hal_pwr_ex.c ****         __HAL_PWR_PVM4_EXTI_ENABLE_RISING_EDGE();
 1657              		.loc 1 1100 9 is_stmt 1 view .LVU355
 1658 00d8 434A     		ldr	r2, .L161
 1659 00da 936A     		ldr	r3, [r2, #40]
 1660 00dc 43F04003 		orr	r3, r3, #64
 1661 00e0 9362     		str	r3, [r2, #40]
 1662              	.L154:
1101:../Drivers/STM32L4xx_HAL_Driver/Src/stm32l4xx_hal_pwr_ex.c ****       }
1102:../Drivers/STM32L4xx_HAL_Driver/Src/stm32l4xx_hal_pwr_ex.c **** 
1103:../Drivers/STM32L4xx_HAL_Driver/Src/stm32l4xx_hal_pwr_ex.c ****       if((sConfigPVM->Mode & PVM_FALLING_EDGE) == PVM_FALLING_EDGE)
 1663              		.loc 1 1103 7 view .LVU356
 1664              		.loc 1 1103 21 is_stmt 0 view .LVU357
 1665 00e2 4368     		ldr	r3, [r0, #4]
 1666              		.loc 1 1103 9 view .LVU358
 1667 00e4 13F0020F 		tst	r3, #2
 1668 00e8 7CD0     		beq	.L158
1104:../Drivers/STM32L4xx_HAL_Driver/Src/stm32l4xx_hal_pwr_ex.c ****       {
1105:../Drivers/STM32L4xx_HAL_Driver/Src/stm32l4xx_hal_pwr_ex.c ****         __HAL_PWR_PVM4_EXTI_ENABLE_FALLING_EDGE();
 1669              		.loc 1 1105 9 is_stmt 1 view .LVU359
 1670 00ea 3F4A     		ldr	r2, .L161
 1671 00ec D36A     		ldr	r3, [r2, #44]
ARM GAS  Build/stm32l4xx_hal_pwr_ex.s 			page 50


 1672 00ee 43F04003 		orr	r3, r3, #64
 1673 00f2 D362     		str	r3, [r2, #44]
 969:../Drivers/STM32L4xx_HAL_Driver/Src/stm32l4xx_hal_pwr_ex.c **** 
 1674              		.loc 1 969 21 is_stmt 0 view .LVU360
 1675 00f4 0020     		movs	r0, #0
 1676              	.LVL107:
 969:../Drivers/STM32L4xx_HAL_Driver/Src/stm32l4xx_hal_pwr_ex.c **** 
 1677              		.loc 1 969 21 view .LVU361
 1678 00f6 7047     		bx	lr
 1679              	.LVL108:
 1680              	.L160:
 979:../Drivers/STM32L4xx_HAL_Driver/Src/stm32l4xx_hal_pwr_ex.c ****   {
 1681              		.loc 1 979 3 view .LVU362
 1682 00f8 0120     		movs	r0, #1
 1683              	.LVL109:
 979:../Drivers/STM32L4xx_HAL_Driver/Src/stm32l4xx_hal_pwr_ex.c ****   {
 1684              		.loc 1 979 3 view .LVU363
 1685 00fa 7047     		bx	lr
 1686              	.LVL110:
 1687              	.L139:
 984:../Drivers/STM32L4xx_HAL_Driver/Src/stm32l4xx_hal_pwr_ex.c ****       __HAL_PWR_PVM1_EXTI_DISABLE_IT();
 1688              		.loc 1 984 7 is_stmt 1 view .LVU364
 1689 00fc 3A4B     		ldr	r3, .L161
 1690 00fe 5A6A     		ldr	r2, [r3, #36]
 1691 0100 22F00802 		bic	r2, r2, #8
 1692 0104 5A62     		str	r2, [r3, #36]
 985:../Drivers/STM32L4xx_HAL_Driver/Src/stm32l4xx_hal_pwr_ex.c ****       __HAL_PWR_PVM1_EXTI_DISABLE_FALLING_EDGE();
 1693              		.loc 1 985 7 view .LVU365
 1694 0106 1A6A     		ldr	r2, [r3, #32]
 1695 0108 22F00802 		bic	r2, r2, #8
 1696 010c 1A62     		str	r2, [r3, #32]
 986:../Drivers/STM32L4xx_HAL_Driver/Src/stm32l4xx_hal_pwr_ex.c ****       __HAL_PWR_PVM1_EXTI_DISABLE_RISING_EDGE();
 1697              		.loc 1 986 7 view .LVU366
 1698 010e DA6A     		ldr	r2, [r3, #44]
 1699 0110 22F00802 		bic	r2, r2, #8
 1700 0114 DA62     		str	r2, [r3, #44]
 987:../Drivers/STM32L4xx_HAL_Driver/Src/stm32l4xx_hal_pwr_ex.c **** 
 1701              		.loc 1 987 7 view .LVU367
 1702 0116 9A6A     		ldr	r2, [r3, #40]
 1703 0118 22F00802 		bic	r2, r2, #8
 1704 011c 9A62     		str	r2, [r3, #40]
 990:../Drivers/STM32L4xx_HAL_Driver/Src/stm32l4xx_hal_pwr_ex.c ****       {
 1705              		.loc 1 990 7 view .LVU368
 990:../Drivers/STM32L4xx_HAL_Driver/Src/stm32l4xx_hal_pwr_ex.c ****       {
 1706              		.loc 1 990 21 is_stmt 0 view .LVU369
 1707 011e 4368     		ldr	r3, [r0, #4]
 990:../Drivers/STM32L4xx_HAL_Driver/Src/stm32l4xx_hal_pwr_ex.c ****       {
 1708              		.loc 1 990 9 view .LVU370
 1709 0120 13F4803F 		tst	r3, #65536
 1710 0124 04D0     		beq	.L143
 992:../Drivers/STM32L4xx_HAL_Driver/Src/stm32l4xx_hal_pwr_ex.c ****       }
 1711              		.loc 1 992 9 is_stmt 1 view .LVU371
 1712 0126 304A     		ldr	r2, .L161
 1713 0128 136A     		ldr	r3, [r2, #32]
 1714 012a 43F00803 		orr	r3, r3, #8
 1715 012e 1362     		str	r3, [r2, #32]
 1716              	.L143:
ARM GAS  Build/stm32l4xx_hal_pwr_ex.s 			page 51


 996:../Drivers/STM32L4xx_HAL_Driver/Src/stm32l4xx_hal_pwr_ex.c ****       {
 1717              		.loc 1 996 7 view .LVU372
 996:../Drivers/STM32L4xx_HAL_Driver/Src/stm32l4xx_hal_pwr_ex.c ****       {
 1718              		.loc 1 996 21 is_stmt 0 view .LVU373
 1719 0130 4368     		ldr	r3, [r0, #4]
 996:../Drivers/STM32L4xx_HAL_Driver/Src/stm32l4xx_hal_pwr_ex.c ****       {
 1720              		.loc 1 996 9 view .LVU374
 1721 0132 13F4003F 		tst	r3, #131072
 1722 0136 04D0     		beq	.L144
 998:../Drivers/STM32L4xx_HAL_Driver/Src/stm32l4xx_hal_pwr_ex.c ****       }
 1723              		.loc 1 998 9 is_stmt 1 view .LVU375
 1724 0138 2B4A     		ldr	r2, .L161
 1725 013a 536A     		ldr	r3, [r2, #36]
 1726 013c 43F00803 		orr	r3, r3, #8
 1727 0140 5362     		str	r3, [r2, #36]
 1728              	.L144:
1002:../Drivers/STM32L4xx_HAL_Driver/Src/stm32l4xx_hal_pwr_ex.c ****       {
 1729              		.loc 1 1002 7 view .LVU376
1002:../Drivers/STM32L4xx_HAL_Driver/Src/stm32l4xx_hal_pwr_ex.c ****       {
 1730              		.loc 1 1002 21 is_stmt 0 view .LVU377
 1731 0142 4368     		ldr	r3, [r0, #4]
1002:../Drivers/STM32L4xx_HAL_Driver/Src/stm32l4xx_hal_pwr_ex.c ****       {
 1732              		.loc 1 1002 9 view .LVU378
 1733 0144 13F0010F 		tst	r3, #1
 1734 0148 04D0     		beq	.L145
1004:../Drivers/STM32L4xx_HAL_Driver/Src/stm32l4xx_hal_pwr_ex.c ****       }
 1735              		.loc 1 1004 9 is_stmt 1 view .LVU379
 1736 014a 274A     		ldr	r2, .L161
 1737 014c 936A     		ldr	r3, [r2, #40]
 1738 014e 43F00803 		orr	r3, r3, #8
 1739 0152 9362     		str	r3, [r2, #40]
 1740              	.L145:
1007:../Drivers/STM32L4xx_HAL_Driver/Src/stm32l4xx_hal_pwr_ex.c ****       {
 1741              		.loc 1 1007 7 view .LVU380
1007:../Drivers/STM32L4xx_HAL_Driver/Src/stm32l4xx_hal_pwr_ex.c ****       {
 1742              		.loc 1 1007 21 is_stmt 0 view .LVU381
 1743 0154 4368     		ldr	r3, [r0, #4]
1007:../Drivers/STM32L4xx_HAL_Driver/Src/stm32l4xx_hal_pwr_ex.c ****       {
 1744              		.loc 1 1007 9 view .LVU382
 1745 0156 13F0020F 		tst	r3, #2
 1746 015a 3DD0     		beq	.L155
1009:../Drivers/STM32L4xx_HAL_Driver/Src/stm32l4xx_hal_pwr_ex.c ****       }
 1747              		.loc 1 1009 9 is_stmt 1 view .LVU383
 1748 015c 224A     		ldr	r2, .L161
 1749 015e D36A     		ldr	r3, [r2, #44]
 1750 0160 43F00803 		orr	r3, r3, #8
 1751 0164 D362     		str	r3, [r2, #44]
 969:../Drivers/STM32L4xx_HAL_Driver/Src/stm32l4xx_hal_pwr_ex.c **** 
 1752              		.loc 1 969 21 is_stmt 0 view .LVU384
 1753 0166 0020     		movs	r0, #0
 1754              	.LVL111:
 969:../Drivers/STM32L4xx_HAL_Driver/Src/stm32l4xx_hal_pwr_ex.c **** 
 1755              		.loc 1 969 21 view .LVU385
 1756 0168 7047     		bx	lr
 1757              	.LVL112:
 1758              	.L137:
1049:../Drivers/STM32L4xx_HAL_Driver/Src/stm32l4xx_hal_pwr_ex.c ****       __HAL_PWR_PVM3_EXTI_DISABLE_IT();
ARM GAS  Build/stm32l4xx_hal_pwr_ex.s 			page 52


 1759              		.loc 1 1049 7 is_stmt 1 view .LVU386
 1760 016a 1F4B     		ldr	r3, .L161
 1761 016c 5A6A     		ldr	r2, [r3, #36]
 1762 016e 22F02002 		bic	r2, r2, #32
 1763 0172 5A62     		str	r2, [r3, #36]
1050:../Drivers/STM32L4xx_HAL_Driver/Src/stm32l4xx_hal_pwr_ex.c ****       __HAL_PWR_PVM3_EXTI_DISABLE_FALLING_EDGE();
 1764              		.loc 1 1050 7 view .LVU387
 1765 0174 1A6A     		ldr	r2, [r3, #32]
 1766 0176 22F02002 		bic	r2, r2, #32
 1767 017a 1A62     		str	r2, [r3, #32]
1051:../Drivers/STM32L4xx_HAL_Driver/Src/stm32l4xx_hal_pwr_ex.c ****       __HAL_PWR_PVM3_EXTI_DISABLE_RISING_EDGE();
 1768              		.loc 1 1051 7 view .LVU388
 1769 017c DA6A     		ldr	r2, [r3, #44]
 1770 017e 22F02002 		bic	r2, r2, #32
 1771 0182 DA62     		str	r2, [r3, #44]
1052:../Drivers/STM32L4xx_HAL_Driver/Src/stm32l4xx_hal_pwr_ex.c **** 
 1772              		.loc 1 1052 7 view .LVU389
 1773 0184 9A6A     		ldr	r2, [r3, #40]
 1774 0186 22F02002 		bic	r2, r2, #32
 1775 018a 9A62     		str	r2, [r3, #40]
1055:../Drivers/STM32L4xx_HAL_Driver/Src/stm32l4xx_hal_pwr_ex.c ****       {
 1776              		.loc 1 1055 7 view .LVU390
1055:../Drivers/STM32L4xx_HAL_Driver/Src/stm32l4xx_hal_pwr_ex.c ****       {
 1777              		.loc 1 1055 21 is_stmt 0 view .LVU391
 1778 018c 4368     		ldr	r3, [r0, #4]
1055:../Drivers/STM32L4xx_HAL_Driver/Src/stm32l4xx_hal_pwr_ex.c ****       {
 1779              		.loc 1 1055 9 view .LVU392
 1780 018e 13F4803F 		tst	r3, #65536
 1781 0192 04D0     		beq	.L149
1057:../Drivers/STM32L4xx_HAL_Driver/Src/stm32l4xx_hal_pwr_ex.c ****       }
 1782              		.loc 1 1057 9 is_stmt 1 view .LVU393
 1783 0194 144A     		ldr	r2, .L161
 1784 0196 136A     		ldr	r3, [r2, #32]
 1785 0198 43F02003 		orr	r3, r3, #32
 1786 019c 1362     		str	r3, [r2, #32]
 1787              	.L149:
1061:../Drivers/STM32L4xx_HAL_Driver/Src/stm32l4xx_hal_pwr_ex.c ****       {
 1788              		.loc 1 1061 7 view .LVU394
1061:../Drivers/STM32L4xx_HAL_Driver/Src/stm32l4xx_hal_pwr_ex.c ****       {
 1789              		.loc 1 1061 21 is_stmt 0 view .LVU395
 1790 019e 4368     		ldr	r3, [r0, #4]
1061:../Drivers/STM32L4xx_HAL_Driver/Src/stm32l4xx_hal_pwr_ex.c ****       {
 1791              		.loc 1 1061 9 view .LVU396
 1792 01a0 13F4003F 		tst	r3, #131072
 1793 01a4 04D0     		beq	.L150
1063:../Drivers/STM32L4xx_HAL_Driver/Src/stm32l4xx_hal_pwr_ex.c ****       }
 1794              		.loc 1 1063 9 is_stmt 1 view .LVU397
 1795 01a6 104A     		ldr	r2, .L161
 1796 01a8 536A     		ldr	r3, [r2, #36]
 1797 01aa 43F02003 		orr	r3, r3, #32
 1798 01ae 5362     		str	r3, [r2, #36]
 1799              	.L150:
1067:../Drivers/STM32L4xx_HAL_Driver/Src/stm32l4xx_hal_pwr_ex.c ****       {
 1800              		.loc 1 1067 7 view .LVU398
1067:../Drivers/STM32L4xx_HAL_Driver/Src/stm32l4xx_hal_pwr_ex.c ****       {
 1801              		.loc 1 1067 21 is_stmt 0 view .LVU399
 1802 01b0 4368     		ldr	r3, [r0, #4]
ARM GAS  Build/stm32l4xx_hal_pwr_ex.s 			page 53


1067:../Drivers/STM32L4xx_HAL_Driver/Src/stm32l4xx_hal_pwr_ex.c ****       {
 1803              		.loc 1 1067 9 view .LVU400
 1804 01b2 13F0010F 		tst	r3, #1
 1805 01b6 04D0     		beq	.L151
1069:../Drivers/STM32L4xx_HAL_Driver/Src/stm32l4xx_hal_pwr_ex.c ****       }
 1806              		.loc 1 1069 9 is_stmt 1 view .LVU401
 1807 01b8 0B4A     		ldr	r2, .L161
 1808 01ba 936A     		ldr	r3, [r2, #40]
 1809 01bc 43F02003 		orr	r3, r3, #32
 1810 01c0 9362     		str	r3, [r2, #40]
 1811              	.L151:
1072:../Drivers/STM32L4xx_HAL_Driver/Src/stm32l4xx_hal_pwr_ex.c ****       {
 1812              		.loc 1 1072 7 view .LVU402
1072:../Drivers/STM32L4xx_HAL_Driver/Src/stm32l4xx_hal_pwr_ex.c ****       {
 1813              		.loc 1 1072 21 is_stmt 0 view .LVU403
 1814 01c2 4368     		ldr	r3, [r0, #4]
1072:../Drivers/STM32L4xx_HAL_Driver/Src/stm32l4xx_hal_pwr_ex.c ****       {
 1815              		.loc 1 1072 9 view .LVU404
 1816 01c4 13F0020F 		tst	r3, #2
 1817 01c8 0AD0     		beq	.L157
1074:../Drivers/STM32L4xx_HAL_Driver/Src/stm32l4xx_hal_pwr_ex.c ****       }
 1818              		.loc 1 1074 9 is_stmt 1 view .LVU405
 1819 01ca 074A     		ldr	r2, .L161
 1820 01cc D36A     		ldr	r3, [r2, #44]
 1821 01ce 43F02003 		orr	r3, r3, #32
 1822 01d2 D362     		str	r3, [r2, #44]
 969:../Drivers/STM32L4xx_HAL_Driver/Src/stm32l4xx_hal_pwr_ex.c **** 
 1823              		.loc 1 969 21 is_stmt 0 view .LVU406
 1824 01d4 0020     		movs	r0, #0
 1825              	.LVL113:
 969:../Drivers/STM32L4xx_HAL_Driver/Src/stm32l4xx_hal_pwr_ex.c **** 
 1826              		.loc 1 969 21 view .LVU407
 1827 01d6 7047     		bx	lr
 1828              	.LVL114:
 1829              	.L155:
 969:../Drivers/STM32L4xx_HAL_Driver/Src/stm32l4xx_hal_pwr_ex.c **** 
 1830              		.loc 1 969 21 view .LVU408
 1831 01d8 0020     		movs	r0, #0
 1832              	.LVL115:
 969:../Drivers/STM32L4xx_HAL_Driver/Src/stm32l4xx_hal_pwr_ex.c **** 
 1833              		.loc 1 969 21 view .LVU409
 1834 01da 7047     		bx	lr
 1835              	.LVL116:
 1836              	.L156:
 969:../Drivers/STM32L4xx_HAL_Driver/Src/stm32l4xx_hal_pwr_ex.c **** 
 1837              		.loc 1 969 21 view .LVU410
 1838 01dc 0020     		movs	r0, #0
 1839              	.LVL117:
 969:../Drivers/STM32L4xx_HAL_Driver/Src/stm32l4xx_hal_pwr_ex.c **** 
 1840              		.loc 1 969 21 view .LVU411
 1841 01de 7047     		bx	lr
 1842              	.LVL118:
 1843              	.L157:
 969:../Drivers/STM32L4xx_HAL_Driver/Src/stm32l4xx_hal_pwr_ex.c **** 
 1844              		.loc 1 969 21 view .LVU412
 1845 01e0 0020     		movs	r0, #0
 1846              	.LVL119:
ARM GAS  Build/stm32l4xx_hal_pwr_ex.s 			page 54


 969:../Drivers/STM32L4xx_HAL_Driver/Src/stm32l4xx_hal_pwr_ex.c **** 
 1847              		.loc 1 969 21 view .LVU413
 1848 01e2 7047     		bx	lr
 1849              	.LVL120:
 1850              	.L158:
 969:../Drivers/STM32L4xx_HAL_Driver/Src/stm32l4xx_hal_pwr_ex.c **** 
 1851              		.loc 1 969 21 view .LVU414
 1852 01e4 0020     		movs	r0, #0
 1853              	.LVL121:
1106:../Drivers/STM32L4xx_HAL_Driver/Src/stm32l4xx_hal_pwr_ex.c ****       }
1107:../Drivers/STM32L4xx_HAL_Driver/Src/stm32l4xx_hal_pwr_ex.c ****       break;
1108:../Drivers/STM32L4xx_HAL_Driver/Src/stm32l4xx_hal_pwr_ex.c **** 
1109:../Drivers/STM32L4xx_HAL_Driver/Src/stm32l4xx_hal_pwr_ex.c ****     default:
1110:../Drivers/STM32L4xx_HAL_Driver/Src/stm32l4xx_hal_pwr_ex.c ****       status = HAL_ERROR;
1111:../Drivers/STM32L4xx_HAL_Driver/Src/stm32l4xx_hal_pwr_ex.c ****       break;
1112:../Drivers/STM32L4xx_HAL_Driver/Src/stm32l4xx_hal_pwr_ex.c ****   }
1113:../Drivers/STM32L4xx_HAL_Driver/Src/stm32l4xx_hal_pwr_ex.c **** 
1114:../Drivers/STM32L4xx_HAL_Driver/Src/stm32l4xx_hal_pwr_ex.c ****   return status;
 1854              		.loc 1 1114 3 is_stmt 1 view .LVU415
1115:../Drivers/STM32L4xx_HAL_Driver/Src/stm32l4xx_hal_pwr_ex.c **** }
 1855              		.loc 1 1115 1 is_stmt 0 view .LVU416
 1856 01e6 7047     		bx	lr
 1857              	.L162:
 1858              		.align	2
 1859              	.L161:
 1860 01e8 00040140 		.word	1073808384
 1861              		.cfi_endproc
 1862              	.LFE101:
 1864              		.section	.text.HAL_PWREx_EnableLowPowerRunMode,"ax",%progbits
 1865              		.align	1
 1866              		.global	HAL_PWREx_EnableLowPowerRunMode
 1867              		.syntax unified
 1868              		.thumb
 1869              		.thumb_func
 1871              	HAL_PWREx_EnableLowPowerRunMode:
 1872              	.LFB102:
1116:../Drivers/STM32L4xx_HAL_Driver/Src/stm32l4xx_hal_pwr_ex.c **** 
1117:../Drivers/STM32L4xx_HAL_Driver/Src/stm32l4xx_hal_pwr_ex.c **** 
1118:../Drivers/STM32L4xx_HAL_Driver/Src/stm32l4xx_hal_pwr_ex.c **** 
1119:../Drivers/STM32L4xx_HAL_Driver/Src/stm32l4xx_hal_pwr_ex.c **** /**
1120:../Drivers/STM32L4xx_HAL_Driver/Src/stm32l4xx_hal_pwr_ex.c ****   * @brief Enter Low-power Run mode
1121:../Drivers/STM32L4xx_HAL_Driver/Src/stm32l4xx_hal_pwr_ex.c ****   * @note  In Low-power Run mode, all I/O pins keep the same state as in Run mode.
1122:../Drivers/STM32L4xx_HAL_Driver/Src/stm32l4xx_hal_pwr_ex.c ****   * @note  When Regulator is set to PWR_LOWPOWERREGULATOR_ON, the user can optionally configure the
1123:../Drivers/STM32L4xx_HAL_Driver/Src/stm32l4xx_hal_pwr_ex.c ****   *        Flash in power-down monde in setting the RUN_PD bit in FLASH_ACR register.
1124:../Drivers/STM32L4xx_HAL_Driver/Src/stm32l4xx_hal_pwr_ex.c ****   *        Additionally, the clock frequency must be reduced below 2 MHz.
1125:../Drivers/STM32L4xx_HAL_Driver/Src/stm32l4xx_hal_pwr_ex.c ****   *        Setting RUN_PD in FLASH_ACR then appropriately reducing the clock frequency must
1126:../Drivers/STM32L4xx_HAL_Driver/Src/stm32l4xx_hal_pwr_ex.c ****   *        be done before calling HAL_PWREx_EnableLowPowerRunMode() API.
1127:../Drivers/STM32L4xx_HAL_Driver/Src/stm32l4xx_hal_pwr_ex.c ****   * @retval None
1128:../Drivers/STM32L4xx_HAL_Driver/Src/stm32l4xx_hal_pwr_ex.c ****   */
1129:../Drivers/STM32L4xx_HAL_Driver/Src/stm32l4xx_hal_pwr_ex.c **** void HAL_PWREx_EnableLowPowerRunMode(void)
1130:../Drivers/STM32L4xx_HAL_Driver/Src/stm32l4xx_hal_pwr_ex.c **** {
 1873              		.loc 1 1130 1 is_stmt 1 view -0
 1874              		.cfi_startproc
 1875              		@ args = 0, pretend = 0, frame = 0
 1876              		@ frame_needed = 0, uses_anonymous_args = 0
 1877              		@ link register save eliminated.
1131:../Drivers/STM32L4xx_HAL_Driver/Src/stm32l4xx_hal_pwr_ex.c ****   /* Set Regulator parameter */
ARM GAS  Build/stm32l4xx_hal_pwr_ex.s 			page 55


1132:../Drivers/STM32L4xx_HAL_Driver/Src/stm32l4xx_hal_pwr_ex.c ****   SET_BIT(PWR->CR1, PWR_CR1_LPR);
 1878              		.loc 1 1132 3 view .LVU418
 1879 0000 024A     		ldr	r2, .L164
 1880 0002 1368     		ldr	r3, [r2]
 1881 0004 43F48043 		orr	r3, r3, #16384
 1882 0008 1360     		str	r3, [r2]
1133:../Drivers/STM32L4xx_HAL_Driver/Src/stm32l4xx_hal_pwr_ex.c **** }
 1883              		.loc 1 1133 1 is_stmt 0 view .LVU419
 1884 000a 7047     		bx	lr
 1885              	.L165:
 1886              		.align	2
 1887              	.L164:
 1888 000c 00700040 		.word	1073770496
 1889              		.cfi_endproc
 1890              	.LFE102:
 1892              		.section	.text.HAL_PWREx_DisableLowPowerRunMode,"ax",%progbits
 1893              		.align	1
 1894              		.global	HAL_PWREx_DisableLowPowerRunMode
 1895              		.syntax unified
 1896              		.thumb
 1897              		.thumb_func
 1899              	HAL_PWREx_DisableLowPowerRunMode:
 1900              	.LFB103:
1134:../Drivers/STM32L4xx_HAL_Driver/Src/stm32l4xx_hal_pwr_ex.c **** 
1135:../Drivers/STM32L4xx_HAL_Driver/Src/stm32l4xx_hal_pwr_ex.c **** 
1136:../Drivers/STM32L4xx_HAL_Driver/Src/stm32l4xx_hal_pwr_ex.c **** /**
1137:../Drivers/STM32L4xx_HAL_Driver/Src/stm32l4xx_hal_pwr_ex.c ****   * @brief Exit Low-power Run mode.
1138:../Drivers/STM32L4xx_HAL_Driver/Src/stm32l4xx_hal_pwr_ex.c ****   * @note  Before HAL_PWREx_DisableLowPowerRunMode() completion, the function checks that
1139:../Drivers/STM32L4xx_HAL_Driver/Src/stm32l4xx_hal_pwr_ex.c ****   *        REGLPF has been properly reset (otherwise, HAL_PWREx_DisableLowPowerRunMode
1140:../Drivers/STM32L4xx_HAL_Driver/Src/stm32l4xx_hal_pwr_ex.c ****   *        returns HAL_TIMEOUT status). The system clock frequency can then be
1141:../Drivers/STM32L4xx_HAL_Driver/Src/stm32l4xx_hal_pwr_ex.c ****   *        increased above 2 MHz.
1142:../Drivers/STM32L4xx_HAL_Driver/Src/stm32l4xx_hal_pwr_ex.c ****   * @retval HAL Status
1143:../Drivers/STM32L4xx_HAL_Driver/Src/stm32l4xx_hal_pwr_ex.c ****   */
1144:../Drivers/STM32L4xx_HAL_Driver/Src/stm32l4xx_hal_pwr_ex.c **** HAL_StatusTypeDef HAL_PWREx_DisableLowPowerRunMode(void)
1145:../Drivers/STM32L4xx_HAL_Driver/Src/stm32l4xx_hal_pwr_ex.c **** {
 1901              		.loc 1 1145 1 is_stmt 1 view -0
 1902              		.cfi_startproc
 1903              		@ args = 0, pretend = 0, frame = 0
 1904              		@ frame_needed = 0, uses_anonymous_args = 0
 1905              		@ link register save eliminated.
1146:../Drivers/STM32L4xx_HAL_Driver/Src/stm32l4xx_hal_pwr_ex.c ****   uint32_t wait_loop_index;
 1906              		.loc 1 1146 3 view .LVU421
1147:../Drivers/STM32L4xx_HAL_Driver/Src/stm32l4xx_hal_pwr_ex.c **** 
1148:../Drivers/STM32L4xx_HAL_Driver/Src/stm32l4xx_hal_pwr_ex.c ****   /* Clear LPR bit */
1149:../Drivers/STM32L4xx_HAL_Driver/Src/stm32l4xx_hal_pwr_ex.c ****   CLEAR_BIT(PWR->CR1, PWR_CR1_LPR);
 1907              		.loc 1 1149 3 view .LVU422
 1908 0000 104A     		ldr	r2, .L172
 1909 0002 1368     		ldr	r3, [r2]
 1910 0004 23F48043 		bic	r3, r3, #16384
 1911 0008 1360     		str	r3, [r2]
1150:../Drivers/STM32L4xx_HAL_Driver/Src/stm32l4xx_hal_pwr_ex.c **** 
1151:../Drivers/STM32L4xx_HAL_Driver/Src/stm32l4xx_hal_pwr_ex.c ****   /* Wait until REGLPF is reset */
1152:../Drivers/STM32L4xx_HAL_Driver/Src/stm32l4xx_hal_pwr_ex.c ****   wait_loop_index = ((PWR_FLAG_SETTING_DELAY_US * SystemCoreClock) / 1000000U) + 1U;
 1912              		.loc 1 1152 3 view .LVU423
 1913              		.loc 1 1152 49 is_stmt 0 view .LVU424
 1914 000a 0F4B     		ldr	r3, .L172+4
 1915 000c 1B68     		ldr	r3, [r3]
ARM GAS  Build/stm32l4xx_hal_pwr_ex.s 			page 56


 1916 000e 3222     		movs	r2, #50
 1917 0010 02FB03F3 		mul	r3, r2, r3
 1918              		.loc 1 1152 68 view .LVU425
 1919 0014 0D4A     		ldr	r2, .L172+8
 1920 0016 A2FB0323 		umull	r2, r3, r2, r3
 1921 001a 9B0C     		lsrs	r3, r3, #18
 1922              		.loc 1 1152 19 view .LVU426
 1923 001c 0133     		adds	r3, r3, #1
 1924              	.LVL122:
1153:../Drivers/STM32L4xx_HAL_Driver/Src/stm32l4xx_hal_pwr_ex.c ****   while ((HAL_IS_BIT_SET(PWR->SR2, PWR_SR2_REGLPF)) && (wait_loop_index != 0U))
 1925              		.loc 1 1153 3 is_stmt 1 view .LVU427
 1926              		.loc 1 1153 9 is_stmt 0 view .LVU428
 1927 001e 00E0     		b	.L167
 1928              	.L169:
1154:../Drivers/STM32L4xx_HAL_Driver/Src/stm32l4xx_hal_pwr_ex.c ****   {
1155:../Drivers/STM32L4xx_HAL_Driver/Src/stm32l4xx_hal_pwr_ex.c ****     wait_loop_index--;
 1929              		.loc 1 1155 5 is_stmt 1 view .LVU429
 1930              		.loc 1 1155 20 is_stmt 0 view .LVU430
 1931 0020 013B     		subs	r3, r3, #1
 1932              	.LVL123:
 1933              	.L167:
1153:../Drivers/STM32L4xx_HAL_Driver/Src/stm32l4xx_hal_pwr_ex.c ****   while ((HAL_IS_BIT_SET(PWR->SR2, PWR_SR2_REGLPF)) && (wait_loop_index != 0U))
 1934              		.loc 1 1153 53 is_stmt 1 view .LVU431
1153:../Drivers/STM32L4xx_HAL_Driver/Src/stm32l4xx_hal_pwr_ex.c ****   while ((HAL_IS_BIT_SET(PWR->SR2, PWR_SR2_REGLPF)) && (wait_loop_index != 0U))
 1935              		.loc 1 1153 11 is_stmt 0 view .LVU432
 1936 0022 084A     		ldr	r2, .L172
 1937 0024 5269     		ldr	r2, [r2, #20]
1153:../Drivers/STM32L4xx_HAL_Driver/Src/stm32l4xx_hal_pwr_ex.c ****   while ((HAL_IS_BIT_SET(PWR->SR2, PWR_SR2_REGLPF)) && (wait_loop_index != 0U))
 1938              		.loc 1 1153 53 view .LVU433
 1939 0026 12F4007F 		tst	r2, #512
 1940 002a 01D0     		beq	.L168
1153:../Drivers/STM32L4xx_HAL_Driver/Src/stm32l4xx_hal_pwr_ex.c ****   while ((HAL_IS_BIT_SET(PWR->SR2, PWR_SR2_REGLPF)) && (wait_loop_index != 0U))
 1941              		.loc 1 1153 53 discriminator 1 view .LVU434
 1942 002c 002B     		cmp	r3, #0
 1943 002e F7D1     		bne	.L169
 1944              	.L168:
1156:../Drivers/STM32L4xx_HAL_Driver/Src/stm32l4xx_hal_pwr_ex.c ****   }
1157:../Drivers/STM32L4xx_HAL_Driver/Src/stm32l4xx_hal_pwr_ex.c ****   if (HAL_IS_BIT_SET(PWR->SR2, PWR_SR2_REGLPF))
 1945              		.loc 1 1157 3 is_stmt 1 view .LVU435
 1946              		.loc 1 1157 7 is_stmt 0 view .LVU436
 1947 0030 044B     		ldr	r3, .L172
 1948              	.LVL124:
 1949              		.loc 1 1157 7 view .LVU437
 1950 0032 5B69     		ldr	r3, [r3, #20]
 1951              		.loc 1 1157 6 view .LVU438
 1952 0034 13F4007F 		tst	r3, #512
 1953 0038 01D1     		bne	.L171
1158:../Drivers/STM32L4xx_HAL_Driver/Src/stm32l4xx_hal_pwr_ex.c ****   {
1159:../Drivers/STM32L4xx_HAL_Driver/Src/stm32l4xx_hal_pwr_ex.c ****     return HAL_TIMEOUT;
1160:../Drivers/STM32L4xx_HAL_Driver/Src/stm32l4xx_hal_pwr_ex.c ****   }
1161:../Drivers/STM32L4xx_HAL_Driver/Src/stm32l4xx_hal_pwr_ex.c **** 
1162:../Drivers/STM32L4xx_HAL_Driver/Src/stm32l4xx_hal_pwr_ex.c ****   return HAL_OK;
 1954              		.loc 1 1162 10 view .LVU439
 1955 003a 0020     		movs	r0, #0
 1956 003c 7047     		bx	lr
 1957              	.L171:
1159:../Drivers/STM32L4xx_HAL_Driver/Src/stm32l4xx_hal_pwr_ex.c ****   }
ARM GAS  Build/stm32l4xx_hal_pwr_ex.s 			page 57


 1958              		.loc 1 1159 12 view .LVU440
 1959 003e 0320     		movs	r0, #3
1163:../Drivers/STM32L4xx_HAL_Driver/Src/stm32l4xx_hal_pwr_ex.c **** }
 1960              		.loc 1 1163 1 view .LVU441
 1961 0040 7047     		bx	lr
 1962              	.L173:
 1963 0042 00BF     		.align	2
 1964              	.L172:
 1965 0044 00700040 		.word	1073770496
 1966 0048 00000000 		.word	SystemCoreClock
 1967 004c 83DE1B43 		.word	1125899907
 1968              		.cfi_endproc
 1969              	.LFE103:
 1971              		.section	.text.HAL_PWREx_EnterSTOP0Mode,"ax",%progbits
 1972              		.align	1
 1973              		.global	HAL_PWREx_EnterSTOP0Mode
 1974              		.syntax unified
 1975              		.thumb
 1976              		.thumb_func
 1978              	HAL_PWREx_EnterSTOP0Mode:
 1979              	.LVL125:
 1980              	.LFB104:
1164:../Drivers/STM32L4xx_HAL_Driver/Src/stm32l4xx_hal_pwr_ex.c **** 
1165:../Drivers/STM32L4xx_HAL_Driver/Src/stm32l4xx_hal_pwr_ex.c **** 
1166:../Drivers/STM32L4xx_HAL_Driver/Src/stm32l4xx_hal_pwr_ex.c **** /**
1167:../Drivers/STM32L4xx_HAL_Driver/Src/stm32l4xx_hal_pwr_ex.c ****   * @brief Enter Stop 0 mode.
1168:../Drivers/STM32L4xx_HAL_Driver/Src/stm32l4xx_hal_pwr_ex.c ****   * @note  In Stop 0 mode, main and low voltage regulators are ON.
1169:../Drivers/STM32L4xx_HAL_Driver/Src/stm32l4xx_hal_pwr_ex.c ****   * @note  In Stop 0 mode, all I/O pins keep the same state as in Run mode.
1170:../Drivers/STM32L4xx_HAL_Driver/Src/stm32l4xx_hal_pwr_ex.c ****   * @note  All clocks in the VCORE domain are stopped; the PLL, the MSI,
1171:../Drivers/STM32L4xx_HAL_Driver/Src/stm32l4xx_hal_pwr_ex.c ****   *        the HSI and the HSE oscillators are disabled. Some peripherals with the wakeup capabilit
1172:../Drivers/STM32L4xx_HAL_Driver/Src/stm32l4xx_hal_pwr_ex.c ****   *        (I2Cx, USARTx and LPUART) can switch on the HSI to receive a frame, and switch off the H
1173:../Drivers/STM32L4xx_HAL_Driver/Src/stm32l4xx_hal_pwr_ex.c ****   *        after receiving the frame if it is not a wakeup frame. In this case, the HSI clock is pr
1174:../Drivers/STM32L4xx_HAL_Driver/Src/stm32l4xx_hal_pwr_ex.c ****   *        only to the peripheral requesting it.
1175:../Drivers/STM32L4xx_HAL_Driver/Src/stm32l4xx_hal_pwr_ex.c ****   *        SRAM1, SRAM2 and register contents are preserved.
1176:../Drivers/STM32L4xx_HAL_Driver/Src/stm32l4xx_hal_pwr_ex.c ****   *        The BOR is available.
1177:../Drivers/STM32L4xx_HAL_Driver/Src/stm32l4xx_hal_pwr_ex.c ****   * @note  When exiting Stop 0 mode by issuing an interrupt or a wakeup event,
1178:../Drivers/STM32L4xx_HAL_Driver/Src/stm32l4xx_hal_pwr_ex.c ****   *         the HSI RC oscillator is selected as system clock if STOPWUCK bit in RCC_CFGR register
1179:../Drivers/STM32L4xx_HAL_Driver/Src/stm32l4xx_hal_pwr_ex.c ****   *         is set; the MSI oscillator is selected if STOPWUCK is cleared.
1180:../Drivers/STM32L4xx_HAL_Driver/Src/stm32l4xx_hal_pwr_ex.c ****   * @note  By keeping the internal regulator ON during Stop 0 mode, the consumption
1181:../Drivers/STM32L4xx_HAL_Driver/Src/stm32l4xx_hal_pwr_ex.c ****   *         is higher although the startup time is reduced.
1182:../Drivers/STM32L4xx_HAL_Driver/Src/stm32l4xx_hal_pwr_ex.c ****   * @param STOPEntry  specifies if Stop mode in entered with WFI or WFE instruction.
1183:../Drivers/STM32L4xx_HAL_Driver/Src/stm32l4xx_hal_pwr_ex.c ****   *          This parameter can be one of the following values:
1184:../Drivers/STM32L4xx_HAL_Driver/Src/stm32l4xx_hal_pwr_ex.c ****   *            @arg @ref PWR_STOPENTRY_WFI  Enter Stop mode with WFI instruction
1185:../Drivers/STM32L4xx_HAL_Driver/Src/stm32l4xx_hal_pwr_ex.c ****   *            @arg @ref PWR_STOPENTRY_WFE  Enter Stop mode with WFE instruction
1186:../Drivers/STM32L4xx_HAL_Driver/Src/stm32l4xx_hal_pwr_ex.c ****   * @retval None
1187:../Drivers/STM32L4xx_HAL_Driver/Src/stm32l4xx_hal_pwr_ex.c ****   */
1188:../Drivers/STM32L4xx_HAL_Driver/Src/stm32l4xx_hal_pwr_ex.c **** void HAL_PWREx_EnterSTOP0Mode(uint8_t STOPEntry)
1189:../Drivers/STM32L4xx_HAL_Driver/Src/stm32l4xx_hal_pwr_ex.c **** {
 1981              		.loc 1 1189 1 is_stmt 1 view -0
 1982              		.cfi_startproc
 1983              		@ args = 0, pretend = 0, frame = 0
 1984              		@ frame_needed = 0, uses_anonymous_args = 0
 1985              		@ link register save eliminated.
1190:../Drivers/STM32L4xx_HAL_Driver/Src/stm32l4xx_hal_pwr_ex.c ****   /* Check the parameters */
1191:../Drivers/STM32L4xx_HAL_Driver/Src/stm32l4xx_hal_pwr_ex.c ****   assert_param(IS_PWR_STOP_ENTRY(STOPEntry));
 1986              		.loc 1 1191 3 view .LVU443
1192:../Drivers/STM32L4xx_HAL_Driver/Src/stm32l4xx_hal_pwr_ex.c **** 
ARM GAS  Build/stm32l4xx_hal_pwr_ex.s 			page 58


1193:../Drivers/STM32L4xx_HAL_Driver/Src/stm32l4xx_hal_pwr_ex.c ****   /* Stop 0 mode with Main Regulator */
1194:../Drivers/STM32L4xx_HAL_Driver/Src/stm32l4xx_hal_pwr_ex.c ****   MODIFY_REG(PWR->CR1, PWR_CR1_LPMS, PWR_CR1_LPMS_STOP0);
 1987              		.loc 1 1194 3 view .LVU444
 1988 0000 0B4A     		ldr	r2, .L178
 1989 0002 1368     		ldr	r3, [r2]
 1990 0004 23F00703 		bic	r3, r3, #7
 1991 0008 1360     		str	r3, [r2]
1195:../Drivers/STM32L4xx_HAL_Driver/Src/stm32l4xx_hal_pwr_ex.c **** 
1196:../Drivers/STM32L4xx_HAL_Driver/Src/stm32l4xx_hal_pwr_ex.c ****   /* Set SLEEPDEEP bit of Cortex System Control Register */
1197:../Drivers/STM32L4xx_HAL_Driver/Src/stm32l4xx_hal_pwr_ex.c ****   SET_BIT(SCB->SCR, ((uint32_t)SCB_SCR_SLEEPDEEP_Msk));
 1992              		.loc 1 1197 3 view .LVU445
 1993 000a 0A4A     		ldr	r2, .L178+4
 1994 000c 1369     		ldr	r3, [r2, #16]
 1995 000e 43F00403 		orr	r3, r3, #4
 1996 0012 1361     		str	r3, [r2, #16]
1198:../Drivers/STM32L4xx_HAL_Driver/Src/stm32l4xx_hal_pwr_ex.c **** 
1199:../Drivers/STM32L4xx_HAL_Driver/Src/stm32l4xx_hal_pwr_ex.c ****   /* Select Stop mode entry --------------------------------------------------*/
1200:../Drivers/STM32L4xx_HAL_Driver/Src/stm32l4xx_hal_pwr_ex.c ****   if(STOPEntry == PWR_STOPENTRY_WFI)
 1997              		.loc 1 1200 3 view .LVU446
 1998              		.loc 1 1200 5 is_stmt 0 view .LVU447
 1999 0014 0128     		cmp	r0, #1
 2000 0016 08D0     		beq	.L177
1201:../Drivers/STM32L4xx_HAL_Driver/Src/stm32l4xx_hal_pwr_ex.c ****   {
1202:../Drivers/STM32L4xx_HAL_Driver/Src/stm32l4xx_hal_pwr_ex.c ****     /* Request Wait For Interrupt */
1203:../Drivers/STM32L4xx_HAL_Driver/Src/stm32l4xx_hal_pwr_ex.c ****     __WFI();
1204:../Drivers/STM32L4xx_HAL_Driver/Src/stm32l4xx_hal_pwr_ex.c ****   }
1205:../Drivers/STM32L4xx_HAL_Driver/Src/stm32l4xx_hal_pwr_ex.c ****   else
1206:../Drivers/STM32L4xx_HAL_Driver/Src/stm32l4xx_hal_pwr_ex.c ****   {
1207:../Drivers/STM32L4xx_HAL_Driver/Src/stm32l4xx_hal_pwr_ex.c ****     /* Request Wait For Event */
1208:../Drivers/STM32L4xx_HAL_Driver/Src/stm32l4xx_hal_pwr_ex.c ****     __SEV();
 2001              		.loc 1 1208 5 is_stmt 1 view .LVU448
 2002              		.syntax unified
 2003              	@ 1208 "../Drivers/STM32L4xx_HAL_Driver/Src/stm32l4xx_hal_pwr_ex.c" 1
 2004 0018 40BF     		sev
 2005              	@ 0 "" 2
1209:../Drivers/STM32L4xx_HAL_Driver/Src/stm32l4xx_hal_pwr_ex.c ****     __WFE();
 2006              		.loc 1 1209 5 view .LVU449
 2007              	@ 1209 "../Drivers/STM32L4xx_HAL_Driver/Src/stm32l4xx_hal_pwr_ex.c" 1
 2008 001a 20BF     		wfe
 2009              	@ 0 "" 2
1210:../Drivers/STM32L4xx_HAL_Driver/Src/stm32l4xx_hal_pwr_ex.c ****     __WFE();
 2010              		.loc 1 1210 5 view .LVU450
 2011              	@ 1210 "../Drivers/STM32L4xx_HAL_Driver/Src/stm32l4xx_hal_pwr_ex.c" 1
 2012 001c 20BF     		wfe
 2013              	@ 0 "" 2
 2014              		.thumb
 2015              		.syntax unified
 2016              	.L176:
1211:../Drivers/STM32L4xx_HAL_Driver/Src/stm32l4xx_hal_pwr_ex.c ****   }
1212:../Drivers/STM32L4xx_HAL_Driver/Src/stm32l4xx_hal_pwr_ex.c **** 
1213:../Drivers/STM32L4xx_HAL_Driver/Src/stm32l4xx_hal_pwr_ex.c ****   /* Reset SLEEPDEEP bit of Cortex System Control Register */
1214:../Drivers/STM32L4xx_HAL_Driver/Src/stm32l4xx_hal_pwr_ex.c ****   CLEAR_BIT(SCB->SCR, ((uint32_t)SCB_SCR_SLEEPDEEP_Msk));
 2017              		.loc 1 1214 3 view .LVU451
 2018 001e 054A     		ldr	r2, .L178+4
 2019 0020 1369     		ldr	r3, [r2, #16]
 2020 0022 23F00403 		bic	r3, r3, #4
 2021 0026 1361     		str	r3, [r2, #16]
ARM GAS  Build/stm32l4xx_hal_pwr_ex.s 			page 59


1215:../Drivers/STM32L4xx_HAL_Driver/Src/stm32l4xx_hal_pwr_ex.c **** }
 2022              		.loc 1 1215 1 is_stmt 0 view .LVU452
 2023 0028 7047     		bx	lr
 2024              	.L177:
1203:../Drivers/STM32L4xx_HAL_Driver/Src/stm32l4xx_hal_pwr_ex.c ****   }
 2025              		.loc 1 1203 5 is_stmt 1 view .LVU453
 2026              		.syntax unified
 2027              	@ 1203 "../Drivers/STM32L4xx_HAL_Driver/Src/stm32l4xx_hal_pwr_ex.c" 1
 2028 002a 30BF     		wfi
 2029              	@ 0 "" 2
 2030              		.thumb
 2031              		.syntax unified
 2032 002c F7E7     		b	.L176
 2033              	.L179:
 2034 002e 00BF     		.align	2
 2035              	.L178:
 2036 0030 00700040 		.word	1073770496
 2037 0034 00ED00E0 		.word	-536810240
 2038              		.cfi_endproc
 2039              	.LFE104:
 2041              		.section	.text.HAL_PWREx_EnterSTOP1Mode,"ax",%progbits
 2042              		.align	1
 2043              		.global	HAL_PWREx_EnterSTOP1Mode
 2044              		.syntax unified
 2045              		.thumb
 2046              		.thumb_func
 2048              	HAL_PWREx_EnterSTOP1Mode:
 2049              	.LVL126:
 2050              	.LFB105:
1216:../Drivers/STM32L4xx_HAL_Driver/Src/stm32l4xx_hal_pwr_ex.c **** 
1217:../Drivers/STM32L4xx_HAL_Driver/Src/stm32l4xx_hal_pwr_ex.c **** 
1218:../Drivers/STM32L4xx_HAL_Driver/Src/stm32l4xx_hal_pwr_ex.c **** /**
1219:../Drivers/STM32L4xx_HAL_Driver/Src/stm32l4xx_hal_pwr_ex.c ****   * @brief Enter Stop 1 mode.
1220:../Drivers/STM32L4xx_HAL_Driver/Src/stm32l4xx_hal_pwr_ex.c ****   * @note  In Stop 1 mode, only low power voltage regulator is ON.
1221:../Drivers/STM32L4xx_HAL_Driver/Src/stm32l4xx_hal_pwr_ex.c ****   * @note  In Stop 1 mode, all I/O pins keep the same state as in Run mode.
1222:../Drivers/STM32L4xx_HAL_Driver/Src/stm32l4xx_hal_pwr_ex.c ****   * @note  All clocks in the VCORE domain are stopped; the PLL, the MSI,
1223:../Drivers/STM32L4xx_HAL_Driver/Src/stm32l4xx_hal_pwr_ex.c ****   *        the HSI and the HSE oscillators are disabled. Some peripherals with the wakeup capabilit
1224:../Drivers/STM32L4xx_HAL_Driver/Src/stm32l4xx_hal_pwr_ex.c ****   *        (I2Cx, USARTx and LPUART) can switch on the HSI to receive a frame, and switch off the H
1225:../Drivers/STM32L4xx_HAL_Driver/Src/stm32l4xx_hal_pwr_ex.c ****   *        after receiving the frame if it is not a wakeup frame. In this case, the HSI clock is pr
1226:../Drivers/STM32L4xx_HAL_Driver/Src/stm32l4xx_hal_pwr_ex.c ****   *        only to the peripheral requesting it.
1227:../Drivers/STM32L4xx_HAL_Driver/Src/stm32l4xx_hal_pwr_ex.c ****   *        SRAM1, SRAM2 and register contents are preserved.
1228:../Drivers/STM32L4xx_HAL_Driver/Src/stm32l4xx_hal_pwr_ex.c ****   *        The BOR is available.
1229:../Drivers/STM32L4xx_HAL_Driver/Src/stm32l4xx_hal_pwr_ex.c ****   * @note  When exiting Stop 1 mode by issuing an interrupt or a wakeup event,
1230:../Drivers/STM32L4xx_HAL_Driver/Src/stm32l4xx_hal_pwr_ex.c ****   *         the HSI RC oscillator is selected as system clock if STOPWUCK bit in RCC_CFGR register
1231:../Drivers/STM32L4xx_HAL_Driver/Src/stm32l4xx_hal_pwr_ex.c ****   *         is set; the MSI oscillator is selected if STOPWUCK is cleared.
1232:../Drivers/STM32L4xx_HAL_Driver/Src/stm32l4xx_hal_pwr_ex.c ****   * @note  Due to low power mode, an additional startup delay is incurred when waking up from Stop 
1233:../Drivers/STM32L4xx_HAL_Driver/Src/stm32l4xx_hal_pwr_ex.c ****   * @param STOPEntry  specifies if Stop mode in entered with WFI or WFE instruction.
1234:../Drivers/STM32L4xx_HAL_Driver/Src/stm32l4xx_hal_pwr_ex.c ****   *          This parameter can be one of the following values:
1235:../Drivers/STM32L4xx_HAL_Driver/Src/stm32l4xx_hal_pwr_ex.c ****   *            @arg @ref PWR_STOPENTRY_WFI  Enter Stop mode with WFI instruction
1236:../Drivers/STM32L4xx_HAL_Driver/Src/stm32l4xx_hal_pwr_ex.c ****   *            @arg @ref PWR_STOPENTRY_WFE  Enter Stop mode with WFE instruction
1237:../Drivers/STM32L4xx_HAL_Driver/Src/stm32l4xx_hal_pwr_ex.c ****   * @retval None
1238:../Drivers/STM32L4xx_HAL_Driver/Src/stm32l4xx_hal_pwr_ex.c ****   */
1239:../Drivers/STM32L4xx_HAL_Driver/Src/stm32l4xx_hal_pwr_ex.c **** void HAL_PWREx_EnterSTOP1Mode(uint8_t STOPEntry)
1240:../Drivers/STM32L4xx_HAL_Driver/Src/stm32l4xx_hal_pwr_ex.c **** {
 2051              		.loc 1 1240 1 view -0
 2052              		.cfi_startproc
 2053              		@ args = 0, pretend = 0, frame = 0
ARM GAS  Build/stm32l4xx_hal_pwr_ex.s 			page 60


 2054              		@ frame_needed = 0, uses_anonymous_args = 0
 2055              		@ link register save eliminated.
1241:../Drivers/STM32L4xx_HAL_Driver/Src/stm32l4xx_hal_pwr_ex.c ****   /* Check the parameters */
1242:../Drivers/STM32L4xx_HAL_Driver/Src/stm32l4xx_hal_pwr_ex.c ****   assert_param(IS_PWR_STOP_ENTRY(STOPEntry));
 2056              		.loc 1 1242 3 view .LVU455
1243:../Drivers/STM32L4xx_HAL_Driver/Src/stm32l4xx_hal_pwr_ex.c **** 
1244:../Drivers/STM32L4xx_HAL_Driver/Src/stm32l4xx_hal_pwr_ex.c ****   /* Stop 1 mode with Low-Power Regulator */
1245:../Drivers/STM32L4xx_HAL_Driver/Src/stm32l4xx_hal_pwr_ex.c ****   MODIFY_REG(PWR->CR1, PWR_CR1_LPMS, PWR_CR1_LPMS_STOP1);
 2057              		.loc 1 1245 3 view .LVU456
 2058 0000 0C4A     		ldr	r2, .L184
 2059 0002 1368     		ldr	r3, [r2]
 2060 0004 23F00703 		bic	r3, r3, #7
 2061 0008 43F00103 		orr	r3, r3, #1
 2062 000c 1360     		str	r3, [r2]
1246:../Drivers/STM32L4xx_HAL_Driver/Src/stm32l4xx_hal_pwr_ex.c **** 
1247:../Drivers/STM32L4xx_HAL_Driver/Src/stm32l4xx_hal_pwr_ex.c ****   /* Set SLEEPDEEP bit of Cortex System Control Register */
1248:../Drivers/STM32L4xx_HAL_Driver/Src/stm32l4xx_hal_pwr_ex.c ****   SET_BIT(SCB->SCR, ((uint32_t)SCB_SCR_SLEEPDEEP_Msk));
 2063              		.loc 1 1248 3 view .LVU457
 2064 000e 0A4A     		ldr	r2, .L184+4
 2065 0010 1369     		ldr	r3, [r2, #16]
 2066 0012 43F00403 		orr	r3, r3, #4
 2067 0016 1361     		str	r3, [r2, #16]
1249:../Drivers/STM32L4xx_HAL_Driver/Src/stm32l4xx_hal_pwr_ex.c **** 
1250:../Drivers/STM32L4xx_HAL_Driver/Src/stm32l4xx_hal_pwr_ex.c ****   /* Select Stop mode entry --------------------------------------------------*/
1251:../Drivers/STM32L4xx_HAL_Driver/Src/stm32l4xx_hal_pwr_ex.c ****   if(STOPEntry == PWR_STOPENTRY_WFI)
 2068              		.loc 1 1251 3 view .LVU458
 2069              		.loc 1 1251 5 is_stmt 0 view .LVU459
 2070 0018 0128     		cmp	r0, #1
 2071 001a 08D0     		beq	.L183
1252:../Drivers/STM32L4xx_HAL_Driver/Src/stm32l4xx_hal_pwr_ex.c ****   {
1253:../Drivers/STM32L4xx_HAL_Driver/Src/stm32l4xx_hal_pwr_ex.c ****     /* Request Wait For Interrupt */
1254:../Drivers/STM32L4xx_HAL_Driver/Src/stm32l4xx_hal_pwr_ex.c ****     __WFI();
1255:../Drivers/STM32L4xx_HAL_Driver/Src/stm32l4xx_hal_pwr_ex.c ****   }
1256:../Drivers/STM32L4xx_HAL_Driver/Src/stm32l4xx_hal_pwr_ex.c ****   else
1257:../Drivers/STM32L4xx_HAL_Driver/Src/stm32l4xx_hal_pwr_ex.c ****   {
1258:../Drivers/STM32L4xx_HAL_Driver/Src/stm32l4xx_hal_pwr_ex.c ****     /* Request Wait For Event */
1259:../Drivers/STM32L4xx_HAL_Driver/Src/stm32l4xx_hal_pwr_ex.c ****     __SEV();
 2072              		.loc 1 1259 5 is_stmt 1 view .LVU460
 2073              		.syntax unified
 2074              	@ 1259 "../Drivers/STM32L4xx_HAL_Driver/Src/stm32l4xx_hal_pwr_ex.c" 1
 2075 001c 40BF     		sev
 2076              	@ 0 "" 2
1260:../Drivers/STM32L4xx_HAL_Driver/Src/stm32l4xx_hal_pwr_ex.c ****     __WFE();
 2077              		.loc 1 1260 5 view .LVU461
 2078              	@ 1260 "../Drivers/STM32L4xx_HAL_Driver/Src/stm32l4xx_hal_pwr_ex.c" 1
 2079 001e 20BF     		wfe
 2080              	@ 0 "" 2
1261:../Drivers/STM32L4xx_HAL_Driver/Src/stm32l4xx_hal_pwr_ex.c ****     __WFE();
 2081              		.loc 1 1261 5 view .LVU462
 2082              	@ 1261 "../Drivers/STM32L4xx_HAL_Driver/Src/stm32l4xx_hal_pwr_ex.c" 1
 2083 0020 20BF     		wfe
 2084              	@ 0 "" 2
 2085              		.thumb
 2086              		.syntax unified
 2087              	.L182:
1262:../Drivers/STM32L4xx_HAL_Driver/Src/stm32l4xx_hal_pwr_ex.c ****   }
1263:../Drivers/STM32L4xx_HAL_Driver/Src/stm32l4xx_hal_pwr_ex.c **** 
ARM GAS  Build/stm32l4xx_hal_pwr_ex.s 			page 61


1264:../Drivers/STM32L4xx_HAL_Driver/Src/stm32l4xx_hal_pwr_ex.c ****   /* Reset SLEEPDEEP bit of Cortex System Control Register */
1265:../Drivers/STM32L4xx_HAL_Driver/Src/stm32l4xx_hal_pwr_ex.c ****   CLEAR_BIT(SCB->SCR, ((uint32_t)SCB_SCR_SLEEPDEEP_Msk));
 2088              		.loc 1 1265 3 view .LVU463
 2089 0022 054A     		ldr	r2, .L184+4
 2090 0024 1369     		ldr	r3, [r2, #16]
 2091 0026 23F00403 		bic	r3, r3, #4
 2092 002a 1361     		str	r3, [r2, #16]
1266:../Drivers/STM32L4xx_HAL_Driver/Src/stm32l4xx_hal_pwr_ex.c **** }
 2093              		.loc 1 1266 1 is_stmt 0 view .LVU464
 2094 002c 7047     		bx	lr
 2095              	.L183:
1254:../Drivers/STM32L4xx_HAL_Driver/Src/stm32l4xx_hal_pwr_ex.c ****   }
 2096              		.loc 1 1254 5 is_stmt 1 view .LVU465
 2097              		.syntax unified
 2098              	@ 1254 "../Drivers/STM32L4xx_HAL_Driver/Src/stm32l4xx_hal_pwr_ex.c" 1
 2099 002e 30BF     		wfi
 2100              	@ 0 "" 2
 2101              		.thumb
 2102              		.syntax unified
 2103 0030 F7E7     		b	.L182
 2104              	.L185:
 2105 0032 00BF     		.align	2
 2106              	.L184:
 2107 0034 00700040 		.word	1073770496
 2108 0038 00ED00E0 		.word	-536810240
 2109              		.cfi_endproc
 2110              	.LFE105:
 2112              		.section	.text.HAL_PWREx_EnterSTOP2Mode,"ax",%progbits
 2113              		.align	1
 2114              		.global	HAL_PWREx_EnterSTOP2Mode
 2115              		.syntax unified
 2116              		.thumb
 2117              		.thumb_func
 2119              	HAL_PWREx_EnterSTOP2Mode:
 2120              	.LVL127:
 2121              	.LFB106:
1267:../Drivers/STM32L4xx_HAL_Driver/Src/stm32l4xx_hal_pwr_ex.c **** 
1268:../Drivers/STM32L4xx_HAL_Driver/Src/stm32l4xx_hal_pwr_ex.c **** 
1269:../Drivers/STM32L4xx_HAL_Driver/Src/stm32l4xx_hal_pwr_ex.c **** /**
1270:../Drivers/STM32L4xx_HAL_Driver/Src/stm32l4xx_hal_pwr_ex.c ****   * @brief Enter Stop 2 mode.
1271:../Drivers/STM32L4xx_HAL_Driver/Src/stm32l4xx_hal_pwr_ex.c ****   * @note  In Stop 2 mode, only low power voltage regulator is ON.
1272:../Drivers/STM32L4xx_HAL_Driver/Src/stm32l4xx_hal_pwr_ex.c ****   * @note  In Stop 2 mode, all I/O pins keep the same state as in Run mode.
1273:../Drivers/STM32L4xx_HAL_Driver/Src/stm32l4xx_hal_pwr_ex.c ****   * @note  All clocks in the VCORE domain are stopped, the PLL, the MSI,
1274:../Drivers/STM32L4xx_HAL_Driver/Src/stm32l4xx_hal_pwr_ex.c ****   *        the HSI and the HSE oscillators are disabled. Some peripherals with wakeup capability
1275:../Drivers/STM32L4xx_HAL_Driver/Src/stm32l4xx_hal_pwr_ex.c ****   *        (LCD, LPTIM1, I2C3 and LPUART) can switch on the HSI to receive a frame, and switch off 
1276:../Drivers/STM32L4xx_HAL_Driver/Src/stm32l4xx_hal_pwr_ex.c ****   *        receiving the frame if it is not a wakeup frame. In this case the HSI clock is propagate
1277:../Drivers/STM32L4xx_HAL_Driver/Src/stm32l4xx_hal_pwr_ex.c ****   *        to the peripheral requesting it.
1278:../Drivers/STM32L4xx_HAL_Driver/Src/stm32l4xx_hal_pwr_ex.c ****   *        SRAM1, SRAM2 and register contents are preserved.
1279:../Drivers/STM32L4xx_HAL_Driver/Src/stm32l4xx_hal_pwr_ex.c ****   *        SRAM3 content is preserved depending on RRSTP bit setting (not available on all devices)
1280:../Drivers/STM32L4xx_HAL_Driver/Src/stm32l4xx_hal_pwr_ex.c ****   *        The BOR is available.
1281:../Drivers/STM32L4xx_HAL_Driver/Src/stm32l4xx_hal_pwr_ex.c ****   *        The voltage regulator is set in low-power mode but LPR bit must be cleared to enter stop
1282:../Drivers/STM32L4xx_HAL_Driver/Src/stm32l4xx_hal_pwr_ex.c ****   *        Otherwise, Stop 1 mode is entered.
1283:../Drivers/STM32L4xx_HAL_Driver/Src/stm32l4xx_hal_pwr_ex.c ****   * @note  When exiting Stop 2 mode by issuing an interrupt or a wakeup event,
1284:../Drivers/STM32L4xx_HAL_Driver/Src/stm32l4xx_hal_pwr_ex.c ****   *         the HSI RC oscillator is selected as system clock if STOPWUCK bit in RCC_CFGR register
1285:../Drivers/STM32L4xx_HAL_Driver/Src/stm32l4xx_hal_pwr_ex.c ****   *         is set; the MSI oscillator is selected if STOPWUCK is cleared.
1286:../Drivers/STM32L4xx_HAL_Driver/Src/stm32l4xx_hal_pwr_ex.c ****   * @param STOPEntry  specifies if Stop mode in entered with WFI or WFE instruction.
1287:../Drivers/STM32L4xx_HAL_Driver/Src/stm32l4xx_hal_pwr_ex.c ****   *          This parameter can be one of the following values:
ARM GAS  Build/stm32l4xx_hal_pwr_ex.s 			page 62


1288:../Drivers/STM32L4xx_HAL_Driver/Src/stm32l4xx_hal_pwr_ex.c ****   *            @arg @ref PWR_STOPENTRY_WFI  Enter Stop mode with WFI instruction
1289:../Drivers/STM32L4xx_HAL_Driver/Src/stm32l4xx_hal_pwr_ex.c ****   *            @arg @ref PWR_STOPENTRY_WFE  Enter Stop mode with WFE instruction
1290:../Drivers/STM32L4xx_HAL_Driver/Src/stm32l4xx_hal_pwr_ex.c ****   * @retval None
1291:../Drivers/STM32L4xx_HAL_Driver/Src/stm32l4xx_hal_pwr_ex.c ****   */
1292:../Drivers/STM32L4xx_HAL_Driver/Src/stm32l4xx_hal_pwr_ex.c **** void HAL_PWREx_EnterSTOP2Mode(uint8_t STOPEntry)
1293:../Drivers/STM32L4xx_HAL_Driver/Src/stm32l4xx_hal_pwr_ex.c **** {
 2122              		.loc 1 1293 1 view -0
 2123              		.cfi_startproc
 2124              		@ args = 0, pretend = 0, frame = 0
 2125              		@ frame_needed = 0, uses_anonymous_args = 0
 2126              		@ link register save eliminated.
1294:../Drivers/STM32L4xx_HAL_Driver/Src/stm32l4xx_hal_pwr_ex.c ****   /* Check the parameter */
1295:../Drivers/STM32L4xx_HAL_Driver/Src/stm32l4xx_hal_pwr_ex.c ****   assert_param(IS_PWR_STOP_ENTRY(STOPEntry));
 2127              		.loc 1 1295 3 view .LVU467
1296:../Drivers/STM32L4xx_HAL_Driver/Src/stm32l4xx_hal_pwr_ex.c **** 
1297:../Drivers/STM32L4xx_HAL_Driver/Src/stm32l4xx_hal_pwr_ex.c ****   /* Set Stop mode 2 */
1298:../Drivers/STM32L4xx_HAL_Driver/Src/stm32l4xx_hal_pwr_ex.c ****   MODIFY_REG(PWR->CR1, PWR_CR1_LPMS, PWR_CR1_LPMS_STOP2);
 2128              		.loc 1 1298 3 view .LVU468
 2129 0000 0C4A     		ldr	r2, .L190
 2130 0002 1368     		ldr	r3, [r2]
 2131 0004 23F00703 		bic	r3, r3, #7
 2132 0008 43F00203 		orr	r3, r3, #2
 2133 000c 1360     		str	r3, [r2]
1299:../Drivers/STM32L4xx_HAL_Driver/Src/stm32l4xx_hal_pwr_ex.c **** 
1300:../Drivers/STM32L4xx_HAL_Driver/Src/stm32l4xx_hal_pwr_ex.c ****   /* Set SLEEPDEEP bit of Cortex System Control Register */
1301:../Drivers/STM32L4xx_HAL_Driver/Src/stm32l4xx_hal_pwr_ex.c ****   SET_BIT(SCB->SCR, ((uint32_t)SCB_SCR_SLEEPDEEP_Msk));
 2134              		.loc 1 1301 3 view .LVU469
 2135 000e 0A4A     		ldr	r2, .L190+4
 2136 0010 1369     		ldr	r3, [r2, #16]
 2137 0012 43F00403 		orr	r3, r3, #4
 2138 0016 1361     		str	r3, [r2, #16]
1302:../Drivers/STM32L4xx_HAL_Driver/Src/stm32l4xx_hal_pwr_ex.c **** 
1303:../Drivers/STM32L4xx_HAL_Driver/Src/stm32l4xx_hal_pwr_ex.c ****   /* Select Stop mode entry --------------------------------------------------*/
1304:../Drivers/STM32L4xx_HAL_Driver/Src/stm32l4xx_hal_pwr_ex.c ****   if(STOPEntry == PWR_STOPENTRY_WFI)
 2139              		.loc 1 1304 3 view .LVU470
 2140              		.loc 1 1304 5 is_stmt 0 view .LVU471
 2141 0018 0128     		cmp	r0, #1
 2142 001a 08D0     		beq	.L189
1305:../Drivers/STM32L4xx_HAL_Driver/Src/stm32l4xx_hal_pwr_ex.c ****   {
1306:../Drivers/STM32L4xx_HAL_Driver/Src/stm32l4xx_hal_pwr_ex.c ****     /* Request Wait For Interrupt */
1307:../Drivers/STM32L4xx_HAL_Driver/Src/stm32l4xx_hal_pwr_ex.c ****     __WFI();
1308:../Drivers/STM32L4xx_HAL_Driver/Src/stm32l4xx_hal_pwr_ex.c ****   }
1309:../Drivers/STM32L4xx_HAL_Driver/Src/stm32l4xx_hal_pwr_ex.c ****   else
1310:../Drivers/STM32L4xx_HAL_Driver/Src/stm32l4xx_hal_pwr_ex.c ****   {
1311:../Drivers/STM32L4xx_HAL_Driver/Src/stm32l4xx_hal_pwr_ex.c ****     /* Request Wait For Event */
1312:../Drivers/STM32L4xx_HAL_Driver/Src/stm32l4xx_hal_pwr_ex.c ****     __SEV();
 2143              		.loc 1 1312 5 is_stmt 1 view .LVU472
 2144              		.syntax unified
 2145              	@ 1312 "../Drivers/STM32L4xx_HAL_Driver/Src/stm32l4xx_hal_pwr_ex.c" 1
 2146 001c 40BF     		sev
 2147              	@ 0 "" 2
1313:../Drivers/STM32L4xx_HAL_Driver/Src/stm32l4xx_hal_pwr_ex.c ****     __WFE();
 2148              		.loc 1 1313 5 view .LVU473
 2149              	@ 1313 "../Drivers/STM32L4xx_HAL_Driver/Src/stm32l4xx_hal_pwr_ex.c" 1
 2150 001e 20BF     		wfe
 2151              	@ 0 "" 2
1314:../Drivers/STM32L4xx_HAL_Driver/Src/stm32l4xx_hal_pwr_ex.c ****     __WFE();
ARM GAS  Build/stm32l4xx_hal_pwr_ex.s 			page 63


 2152              		.loc 1 1314 5 view .LVU474
 2153              	@ 1314 "../Drivers/STM32L4xx_HAL_Driver/Src/stm32l4xx_hal_pwr_ex.c" 1
 2154 0020 20BF     		wfe
 2155              	@ 0 "" 2
 2156              		.thumb
 2157              		.syntax unified
 2158              	.L188:
1315:../Drivers/STM32L4xx_HAL_Driver/Src/stm32l4xx_hal_pwr_ex.c ****   }
1316:../Drivers/STM32L4xx_HAL_Driver/Src/stm32l4xx_hal_pwr_ex.c **** 
1317:../Drivers/STM32L4xx_HAL_Driver/Src/stm32l4xx_hal_pwr_ex.c ****   /* Reset SLEEPDEEP bit of Cortex System Control Register */
1318:../Drivers/STM32L4xx_HAL_Driver/Src/stm32l4xx_hal_pwr_ex.c ****   CLEAR_BIT(SCB->SCR, ((uint32_t)SCB_SCR_SLEEPDEEP_Msk));
 2159              		.loc 1 1318 3 view .LVU475
 2160 0022 054A     		ldr	r2, .L190+4
 2161 0024 1369     		ldr	r3, [r2, #16]
 2162 0026 23F00403 		bic	r3, r3, #4
 2163 002a 1361     		str	r3, [r2, #16]
1319:../Drivers/STM32L4xx_HAL_Driver/Src/stm32l4xx_hal_pwr_ex.c **** }
 2164              		.loc 1 1319 1 is_stmt 0 view .LVU476
 2165 002c 7047     		bx	lr
 2166              	.L189:
1307:../Drivers/STM32L4xx_HAL_Driver/Src/stm32l4xx_hal_pwr_ex.c ****   }
 2167              		.loc 1 1307 5 is_stmt 1 view .LVU477
 2168              		.syntax unified
 2169              	@ 1307 "../Drivers/STM32L4xx_HAL_Driver/Src/stm32l4xx_hal_pwr_ex.c" 1
 2170 002e 30BF     		wfi
 2171              	@ 0 "" 2
 2172              		.thumb
 2173              		.syntax unified
 2174 0030 F7E7     		b	.L188
 2175              	.L191:
 2176 0032 00BF     		.align	2
 2177              	.L190:
 2178 0034 00700040 		.word	1073770496
 2179 0038 00ED00E0 		.word	-536810240
 2180              		.cfi_endproc
 2181              	.LFE106:
 2183              		.section	.text.HAL_PWREx_EnterSHUTDOWNMode,"ax",%progbits
 2184              		.align	1
 2185              		.global	HAL_PWREx_EnterSHUTDOWNMode
 2186              		.syntax unified
 2187              		.thumb
 2188              		.thumb_func
 2190              	HAL_PWREx_EnterSHUTDOWNMode:
 2191              	.LFB107:
1320:../Drivers/STM32L4xx_HAL_Driver/Src/stm32l4xx_hal_pwr_ex.c **** 
1321:../Drivers/STM32L4xx_HAL_Driver/Src/stm32l4xx_hal_pwr_ex.c **** 
1322:../Drivers/STM32L4xx_HAL_Driver/Src/stm32l4xx_hal_pwr_ex.c **** 
1323:../Drivers/STM32L4xx_HAL_Driver/Src/stm32l4xx_hal_pwr_ex.c **** 
1324:../Drivers/STM32L4xx_HAL_Driver/Src/stm32l4xx_hal_pwr_ex.c **** 
1325:../Drivers/STM32L4xx_HAL_Driver/Src/stm32l4xx_hal_pwr_ex.c **** /**
1326:../Drivers/STM32L4xx_HAL_Driver/Src/stm32l4xx_hal_pwr_ex.c ****   * @brief Enter Shutdown mode.
1327:../Drivers/STM32L4xx_HAL_Driver/Src/stm32l4xx_hal_pwr_ex.c ****   * @note  In Shutdown mode, the PLL, the HSI, the MSI, the LSI and the HSE oscillators are switche
1328:../Drivers/STM32L4xx_HAL_Driver/Src/stm32l4xx_hal_pwr_ex.c ****   *        off. The voltage regulator is disabled and Vcore domain is powered off.
1329:../Drivers/STM32L4xx_HAL_Driver/Src/stm32l4xx_hal_pwr_ex.c ****   *        SRAM1, SRAM2 and registers contents are lost except for registers in the Backup domain.
1330:../Drivers/STM32L4xx_HAL_Driver/Src/stm32l4xx_hal_pwr_ex.c ****   *        The BOR is not available.
1331:../Drivers/STM32L4xx_HAL_Driver/Src/stm32l4xx_hal_pwr_ex.c ****   * @note  The I/Os can be configured either with a pull-up or pull-down or can be kept in analog s
1332:../Drivers/STM32L4xx_HAL_Driver/Src/stm32l4xx_hal_pwr_ex.c ****   * @retval None
ARM GAS  Build/stm32l4xx_hal_pwr_ex.s 			page 64


1333:../Drivers/STM32L4xx_HAL_Driver/Src/stm32l4xx_hal_pwr_ex.c ****   */
1334:../Drivers/STM32L4xx_HAL_Driver/Src/stm32l4xx_hal_pwr_ex.c **** void HAL_PWREx_EnterSHUTDOWNMode(void)
1335:../Drivers/STM32L4xx_HAL_Driver/Src/stm32l4xx_hal_pwr_ex.c **** {
 2192              		.loc 1 1335 1 view -0
 2193              		.cfi_startproc
 2194              		@ args = 0, pretend = 0, frame = 0
 2195              		@ frame_needed = 0, uses_anonymous_args = 0
 2196              		@ link register save eliminated.
1336:../Drivers/STM32L4xx_HAL_Driver/Src/stm32l4xx_hal_pwr_ex.c **** 
1337:../Drivers/STM32L4xx_HAL_Driver/Src/stm32l4xx_hal_pwr_ex.c ****   /* Set Shutdown mode */
1338:../Drivers/STM32L4xx_HAL_Driver/Src/stm32l4xx_hal_pwr_ex.c ****   MODIFY_REG(PWR->CR1, PWR_CR1_LPMS, PWR_CR1_LPMS_SHUTDOWN);
 2197              		.loc 1 1338 3 view .LVU479
 2198 0000 064A     		ldr	r2, .L193
 2199 0002 1368     		ldr	r3, [r2]
 2200 0004 23F00703 		bic	r3, r3, #7
 2201 0008 43F00403 		orr	r3, r3, #4
 2202 000c 1360     		str	r3, [r2]
1339:../Drivers/STM32L4xx_HAL_Driver/Src/stm32l4xx_hal_pwr_ex.c **** 
1340:../Drivers/STM32L4xx_HAL_Driver/Src/stm32l4xx_hal_pwr_ex.c ****   /* Set SLEEPDEEP bit of Cortex System Control Register */
1341:../Drivers/STM32L4xx_HAL_Driver/Src/stm32l4xx_hal_pwr_ex.c ****   SET_BIT(SCB->SCR, ((uint32_t)SCB_SCR_SLEEPDEEP_Msk));
 2203              		.loc 1 1341 3 view .LVU480
 2204 000e 044A     		ldr	r2, .L193+4
 2205 0010 1369     		ldr	r3, [r2, #16]
 2206 0012 43F00403 		orr	r3, r3, #4
 2207 0016 1361     		str	r3, [r2, #16]
1342:../Drivers/STM32L4xx_HAL_Driver/Src/stm32l4xx_hal_pwr_ex.c **** 
1343:../Drivers/STM32L4xx_HAL_Driver/Src/stm32l4xx_hal_pwr_ex.c **** /* This option is used to ensure that store operations are completed */
1344:../Drivers/STM32L4xx_HAL_Driver/Src/stm32l4xx_hal_pwr_ex.c **** #if defined ( __CC_ARM)
1345:../Drivers/STM32L4xx_HAL_Driver/Src/stm32l4xx_hal_pwr_ex.c ****   __force_stores();
1346:../Drivers/STM32L4xx_HAL_Driver/Src/stm32l4xx_hal_pwr_ex.c **** #endif
1347:../Drivers/STM32L4xx_HAL_Driver/Src/stm32l4xx_hal_pwr_ex.c ****   /* Request Wait For Interrupt */
1348:../Drivers/STM32L4xx_HAL_Driver/Src/stm32l4xx_hal_pwr_ex.c ****   __WFI();
 2208              		.loc 1 1348 3 view .LVU481
 2209              		.syntax unified
 2210              	@ 1348 "../Drivers/STM32L4xx_HAL_Driver/Src/stm32l4xx_hal_pwr_ex.c" 1
 2211 0018 30BF     		wfi
 2212              	@ 0 "" 2
1349:../Drivers/STM32L4xx_HAL_Driver/Src/stm32l4xx_hal_pwr_ex.c **** }
 2213              		.loc 1 1349 1 is_stmt 0 view .LVU482
 2214              		.thumb
 2215              		.syntax unified
 2216 001a 7047     		bx	lr
 2217              	.L194:
 2218              		.align	2
 2219              	.L193:
 2220 001c 00700040 		.word	1073770496
 2221 0020 00ED00E0 		.word	-536810240
 2222              		.cfi_endproc
 2223              	.LFE107:
 2225              		.section	.text.HAL_PWREx_PVM1Callback,"ax",%progbits
 2226              		.align	1
 2227              		.weak	HAL_PWREx_PVM1Callback
 2228              		.syntax unified
 2229              		.thumb
 2230              		.thumb_func
 2232              	HAL_PWREx_PVM1Callback:
 2233              	.LFB109:
ARM GAS  Build/stm32l4xx_hal_pwr_ex.s 			page 65


1350:../Drivers/STM32L4xx_HAL_Driver/Src/stm32l4xx_hal_pwr_ex.c **** 
1351:../Drivers/STM32L4xx_HAL_Driver/Src/stm32l4xx_hal_pwr_ex.c **** 
1352:../Drivers/STM32L4xx_HAL_Driver/Src/stm32l4xx_hal_pwr_ex.c **** 
1353:../Drivers/STM32L4xx_HAL_Driver/Src/stm32l4xx_hal_pwr_ex.c **** 
1354:../Drivers/STM32L4xx_HAL_Driver/Src/stm32l4xx_hal_pwr_ex.c **** /**
1355:../Drivers/STM32L4xx_HAL_Driver/Src/stm32l4xx_hal_pwr_ex.c ****   * @brief This function handles the PWR PVD/PVMx interrupt request.
1356:../Drivers/STM32L4xx_HAL_Driver/Src/stm32l4xx_hal_pwr_ex.c ****   * @note This API should be called under the PVD_PVM_IRQHandler().
1357:../Drivers/STM32L4xx_HAL_Driver/Src/stm32l4xx_hal_pwr_ex.c ****   * @retval None
1358:../Drivers/STM32L4xx_HAL_Driver/Src/stm32l4xx_hal_pwr_ex.c ****   */
1359:../Drivers/STM32L4xx_HAL_Driver/Src/stm32l4xx_hal_pwr_ex.c **** void HAL_PWREx_PVD_PVM_IRQHandler(void)
1360:../Drivers/STM32L4xx_HAL_Driver/Src/stm32l4xx_hal_pwr_ex.c **** {
1361:../Drivers/STM32L4xx_HAL_Driver/Src/stm32l4xx_hal_pwr_ex.c ****   /* Check PWR exti flag */
1362:../Drivers/STM32L4xx_HAL_Driver/Src/stm32l4xx_hal_pwr_ex.c ****   if(__HAL_PWR_PVD_EXTI_GET_FLAG() != 0x0U)
1363:../Drivers/STM32L4xx_HAL_Driver/Src/stm32l4xx_hal_pwr_ex.c ****   {
1364:../Drivers/STM32L4xx_HAL_Driver/Src/stm32l4xx_hal_pwr_ex.c ****     /* PWR PVD interrupt user callback */
1365:../Drivers/STM32L4xx_HAL_Driver/Src/stm32l4xx_hal_pwr_ex.c ****     HAL_PWR_PVDCallback();
1366:../Drivers/STM32L4xx_HAL_Driver/Src/stm32l4xx_hal_pwr_ex.c **** 
1367:../Drivers/STM32L4xx_HAL_Driver/Src/stm32l4xx_hal_pwr_ex.c ****     /* Clear PVD exti pending bit */
1368:../Drivers/STM32L4xx_HAL_Driver/Src/stm32l4xx_hal_pwr_ex.c ****     __HAL_PWR_PVD_EXTI_CLEAR_FLAG();
1369:../Drivers/STM32L4xx_HAL_Driver/Src/stm32l4xx_hal_pwr_ex.c ****   }
1370:../Drivers/STM32L4xx_HAL_Driver/Src/stm32l4xx_hal_pwr_ex.c ****   /* Next, successively check PVMx exti flags */
1371:../Drivers/STM32L4xx_HAL_Driver/Src/stm32l4xx_hal_pwr_ex.c **** #if defined(PWR_CR2_PVME1)
1372:../Drivers/STM32L4xx_HAL_Driver/Src/stm32l4xx_hal_pwr_ex.c ****   if(__HAL_PWR_PVM1_EXTI_GET_FLAG() != 0x0U)
1373:../Drivers/STM32L4xx_HAL_Driver/Src/stm32l4xx_hal_pwr_ex.c ****   {
1374:../Drivers/STM32L4xx_HAL_Driver/Src/stm32l4xx_hal_pwr_ex.c ****     /* PWR PVM1 interrupt user callback */
1375:../Drivers/STM32L4xx_HAL_Driver/Src/stm32l4xx_hal_pwr_ex.c ****     HAL_PWREx_PVM1Callback();
1376:../Drivers/STM32L4xx_HAL_Driver/Src/stm32l4xx_hal_pwr_ex.c **** 
1377:../Drivers/STM32L4xx_HAL_Driver/Src/stm32l4xx_hal_pwr_ex.c ****     /* Clear PVM1 exti pending bit */
1378:../Drivers/STM32L4xx_HAL_Driver/Src/stm32l4xx_hal_pwr_ex.c ****     __HAL_PWR_PVM1_EXTI_CLEAR_FLAG();
1379:../Drivers/STM32L4xx_HAL_Driver/Src/stm32l4xx_hal_pwr_ex.c ****   }
1380:../Drivers/STM32L4xx_HAL_Driver/Src/stm32l4xx_hal_pwr_ex.c **** #endif /* PWR_CR2_PVME1 */
1381:../Drivers/STM32L4xx_HAL_Driver/Src/stm32l4xx_hal_pwr_ex.c **** #if defined(PWR_CR2_PVME2)
1382:../Drivers/STM32L4xx_HAL_Driver/Src/stm32l4xx_hal_pwr_ex.c ****   if(__HAL_PWR_PVM2_EXTI_GET_FLAG() != 0x0U)
1383:../Drivers/STM32L4xx_HAL_Driver/Src/stm32l4xx_hal_pwr_ex.c ****   {
1384:../Drivers/STM32L4xx_HAL_Driver/Src/stm32l4xx_hal_pwr_ex.c ****     /* PWR PVM2 interrupt user callback */
1385:../Drivers/STM32L4xx_HAL_Driver/Src/stm32l4xx_hal_pwr_ex.c ****     HAL_PWREx_PVM2Callback();
1386:../Drivers/STM32L4xx_HAL_Driver/Src/stm32l4xx_hal_pwr_ex.c **** 
1387:../Drivers/STM32L4xx_HAL_Driver/Src/stm32l4xx_hal_pwr_ex.c ****     /* Clear PVM2 exti pending bit */
1388:../Drivers/STM32L4xx_HAL_Driver/Src/stm32l4xx_hal_pwr_ex.c ****     __HAL_PWR_PVM2_EXTI_CLEAR_FLAG();
1389:../Drivers/STM32L4xx_HAL_Driver/Src/stm32l4xx_hal_pwr_ex.c ****   }
1390:../Drivers/STM32L4xx_HAL_Driver/Src/stm32l4xx_hal_pwr_ex.c **** #endif /* PWR_CR2_PVME2 */
1391:../Drivers/STM32L4xx_HAL_Driver/Src/stm32l4xx_hal_pwr_ex.c ****   if(__HAL_PWR_PVM3_EXTI_GET_FLAG() != 0x0U)
1392:../Drivers/STM32L4xx_HAL_Driver/Src/stm32l4xx_hal_pwr_ex.c ****   {
1393:../Drivers/STM32L4xx_HAL_Driver/Src/stm32l4xx_hal_pwr_ex.c ****     /* PWR PVM3 interrupt user callback */
1394:../Drivers/STM32L4xx_HAL_Driver/Src/stm32l4xx_hal_pwr_ex.c ****     HAL_PWREx_PVM3Callback();
1395:../Drivers/STM32L4xx_HAL_Driver/Src/stm32l4xx_hal_pwr_ex.c **** 
1396:../Drivers/STM32L4xx_HAL_Driver/Src/stm32l4xx_hal_pwr_ex.c ****     /* Clear PVM3 exti pending bit */
1397:../Drivers/STM32L4xx_HAL_Driver/Src/stm32l4xx_hal_pwr_ex.c ****     __HAL_PWR_PVM3_EXTI_CLEAR_FLAG();
1398:../Drivers/STM32L4xx_HAL_Driver/Src/stm32l4xx_hal_pwr_ex.c ****   }
1399:../Drivers/STM32L4xx_HAL_Driver/Src/stm32l4xx_hal_pwr_ex.c ****   if(__HAL_PWR_PVM4_EXTI_GET_FLAG() != 0x0U)
1400:../Drivers/STM32L4xx_HAL_Driver/Src/stm32l4xx_hal_pwr_ex.c ****   {
1401:../Drivers/STM32L4xx_HAL_Driver/Src/stm32l4xx_hal_pwr_ex.c ****     /* PWR PVM4 interrupt user callback */
1402:../Drivers/STM32L4xx_HAL_Driver/Src/stm32l4xx_hal_pwr_ex.c ****     HAL_PWREx_PVM4Callback();
1403:../Drivers/STM32L4xx_HAL_Driver/Src/stm32l4xx_hal_pwr_ex.c **** 
1404:../Drivers/STM32L4xx_HAL_Driver/Src/stm32l4xx_hal_pwr_ex.c ****     /* Clear PVM4 exti pending bit */
1405:../Drivers/STM32L4xx_HAL_Driver/Src/stm32l4xx_hal_pwr_ex.c ****     __HAL_PWR_PVM4_EXTI_CLEAR_FLAG();
1406:../Drivers/STM32L4xx_HAL_Driver/Src/stm32l4xx_hal_pwr_ex.c ****   }
ARM GAS  Build/stm32l4xx_hal_pwr_ex.s 			page 66


1407:../Drivers/STM32L4xx_HAL_Driver/Src/stm32l4xx_hal_pwr_ex.c **** }
1408:../Drivers/STM32L4xx_HAL_Driver/Src/stm32l4xx_hal_pwr_ex.c **** 
1409:../Drivers/STM32L4xx_HAL_Driver/Src/stm32l4xx_hal_pwr_ex.c **** 
1410:../Drivers/STM32L4xx_HAL_Driver/Src/stm32l4xx_hal_pwr_ex.c **** #if defined(PWR_CR2_PVME1)
1411:../Drivers/STM32L4xx_HAL_Driver/Src/stm32l4xx_hal_pwr_ex.c **** /**
1412:../Drivers/STM32L4xx_HAL_Driver/Src/stm32l4xx_hal_pwr_ex.c ****   * @brief PWR PVM1 interrupt callback
1413:../Drivers/STM32L4xx_HAL_Driver/Src/stm32l4xx_hal_pwr_ex.c ****   * @retval None
1414:../Drivers/STM32L4xx_HAL_Driver/Src/stm32l4xx_hal_pwr_ex.c ****   */
1415:../Drivers/STM32L4xx_HAL_Driver/Src/stm32l4xx_hal_pwr_ex.c **** __weak void HAL_PWREx_PVM1Callback(void)
1416:../Drivers/STM32L4xx_HAL_Driver/Src/stm32l4xx_hal_pwr_ex.c **** {
 2234              		.loc 1 1416 1 is_stmt 1 view -0
 2235              		.cfi_startproc
 2236              		@ args = 0, pretend = 0, frame = 0
 2237              		@ frame_needed = 0, uses_anonymous_args = 0
 2238              		@ link register save eliminated.
1417:../Drivers/STM32L4xx_HAL_Driver/Src/stm32l4xx_hal_pwr_ex.c ****   /* NOTE : This function should not be modified; when the callback is needed,
1418:../Drivers/STM32L4xx_HAL_Driver/Src/stm32l4xx_hal_pwr_ex.c ****             HAL_PWREx_PVM1Callback() API can be implemented in the user file
1419:../Drivers/STM32L4xx_HAL_Driver/Src/stm32l4xx_hal_pwr_ex.c ****    */
1420:../Drivers/STM32L4xx_HAL_Driver/Src/stm32l4xx_hal_pwr_ex.c **** }
 2239              		.loc 1 1420 1 view .LVU484
 2240 0000 7047     		bx	lr
 2241              		.cfi_endproc
 2242              	.LFE109:
 2244              		.section	.text.HAL_PWREx_PVM2Callback,"ax",%progbits
 2245              		.align	1
 2246              		.weak	HAL_PWREx_PVM2Callback
 2247              		.syntax unified
 2248              		.thumb
 2249              		.thumb_func
 2251              	HAL_PWREx_PVM2Callback:
 2252              	.LFB110:
1421:../Drivers/STM32L4xx_HAL_Driver/Src/stm32l4xx_hal_pwr_ex.c **** #endif /* PWR_CR2_PVME1 */
1422:../Drivers/STM32L4xx_HAL_Driver/Src/stm32l4xx_hal_pwr_ex.c **** 
1423:../Drivers/STM32L4xx_HAL_Driver/Src/stm32l4xx_hal_pwr_ex.c **** #if defined(PWR_CR2_PVME2)
1424:../Drivers/STM32L4xx_HAL_Driver/Src/stm32l4xx_hal_pwr_ex.c **** /**
1425:../Drivers/STM32L4xx_HAL_Driver/Src/stm32l4xx_hal_pwr_ex.c ****   * @brief PWR PVM2 interrupt callback
1426:../Drivers/STM32L4xx_HAL_Driver/Src/stm32l4xx_hal_pwr_ex.c ****   * @retval None
1427:../Drivers/STM32L4xx_HAL_Driver/Src/stm32l4xx_hal_pwr_ex.c ****   */
1428:../Drivers/STM32L4xx_HAL_Driver/Src/stm32l4xx_hal_pwr_ex.c **** __weak void HAL_PWREx_PVM2Callback(void)
1429:../Drivers/STM32L4xx_HAL_Driver/Src/stm32l4xx_hal_pwr_ex.c **** {
 2253              		.loc 1 1429 1 view -0
 2254              		.cfi_startproc
 2255              		@ args = 0, pretend = 0, frame = 0
 2256              		@ frame_needed = 0, uses_anonymous_args = 0
 2257              		@ link register save eliminated.
1430:../Drivers/STM32L4xx_HAL_Driver/Src/stm32l4xx_hal_pwr_ex.c ****   /* NOTE : This function should not be modified; when the callback is needed,
1431:../Drivers/STM32L4xx_HAL_Driver/Src/stm32l4xx_hal_pwr_ex.c ****             HAL_PWREx_PVM2Callback() API can be implemented in the user file
1432:../Drivers/STM32L4xx_HAL_Driver/Src/stm32l4xx_hal_pwr_ex.c ****    */
1433:../Drivers/STM32L4xx_HAL_Driver/Src/stm32l4xx_hal_pwr_ex.c **** }
 2258              		.loc 1 1433 1 view .LVU486
 2259 0000 7047     		bx	lr
 2260              		.cfi_endproc
 2261              	.LFE110:
 2263              		.section	.text.HAL_PWREx_PVM3Callback,"ax",%progbits
 2264              		.align	1
 2265              		.weak	HAL_PWREx_PVM3Callback
 2266              		.syntax unified
ARM GAS  Build/stm32l4xx_hal_pwr_ex.s 			page 67


 2267              		.thumb
 2268              		.thumb_func
 2270              	HAL_PWREx_PVM3Callback:
 2271              	.LFB111:
1434:../Drivers/STM32L4xx_HAL_Driver/Src/stm32l4xx_hal_pwr_ex.c **** #endif /* PWR_CR2_PVME2 */
1435:../Drivers/STM32L4xx_HAL_Driver/Src/stm32l4xx_hal_pwr_ex.c **** 
1436:../Drivers/STM32L4xx_HAL_Driver/Src/stm32l4xx_hal_pwr_ex.c **** /**
1437:../Drivers/STM32L4xx_HAL_Driver/Src/stm32l4xx_hal_pwr_ex.c ****   * @brief PWR PVM3 interrupt callback
1438:../Drivers/STM32L4xx_HAL_Driver/Src/stm32l4xx_hal_pwr_ex.c ****   * @retval None
1439:../Drivers/STM32L4xx_HAL_Driver/Src/stm32l4xx_hal_pwr_ex.c ****   */
1440:../Drivers/STM32L4xx_HAL_Driver/Src/stm32l4xx_hal_pwr_ex.c **** __weak void HAL_PWREx_PVM3Callback(void)
1441:../Drivers/STM32L4xx_HAL_Driver/Src/stm32l4xx_hal_pwr_ex.c **** {
 2272              		.loc 1 1441 1 view -0
 2273              		.cfi_startproc
 2274              		@ args = 0, pretend = 0, frame = 0
 2275              		@ frame_needed = 0, uses_anonymous_args = 0
 2276              		@ link register save eliminated.
1442:../Drivers/STM32L4xx_HAL_Driver/Src/stm32l4xx_hal_pwr_ex.c ****   /* NOTE : This function should not be modified; when the callback is needed,
1443:../Drivers/STM32L4xx_HAL_Driver/Src/stm32l4xx_hal_pwr_ex.c ****             HAL_PWREx_PVM3Callback() API can be implemented in the user file
1444:../Drivers/STM32L4xx_HAL_Driver/Src/stm32l4xx_hal_pwr_ex.c ****    */
1445:../Drivers/STM32L4xx_HAL_Driver/Src/stm32l4xx_hal_pwr_ex.c **** }
 2277              		.loc 1 1445 1 view .LVU488
 2278 0000 7047     		bx	lr
 2279              		.cfi_endproc
 2280              	.LFE111:
 2282              		.section	.text.HAL_PWREx_PVM4Callback,"ax",%progbits
 2283              		.align	1
 2284              		.weak	HAL_PWREx_PVM4Callback
 2285              		.syntax unified
 2286              		.thumb
 2287              		.thumb_func
 2289              	HAL_PWREx_PVM4Callback:
 2290              	.LFB112:
1446:../Drivers/STM32L4xx_HAL_Driver/Src/stm32l4xx_hal_pwr_ex.c **** 
1447:../Drivers/STM32L4xx_HAL_Driver/Src/stm32l4xx_hal_pwr_ex.c **** /**
1448:../Drivers/STM32L4xx_HAL_Driver/Src/stm32l4xx_hal_pwr_ex.c ****   * @brief PWR PVM4 interrupt callback
1449:../Drivers/STM32L4xx_HAL_Driver/Src/stm32l4xx_hal_pwr_ex.c ****   * @retval None
1450:../Drivers/STM32L4xx_HAL_Driver/Src/stm32l4xx_hal_pwr_ex.c ****   */
1451:../Drivers/STM32L4xx_HAL_Driver/Src/stm32l4xx_hal_pwr_ex.c **** __weak void HAL_PWREx_PVM4Callback(void)
1452:../Drivers/STM32L4xx_HAL_Driver/Src/stm32l4xx_hal_pwr_ex.c **** {
 2291              		.loc 1 1452 1 view -0
 2292              		.cfi_startproc
 2293              		@ args = 0, pretend = 0, frame = 0
 2294              		@ frame_needed = 0, uses_anonymous_args = 0
 2295              		@ link register save eliminated.
1453:../Drivers/STM32L4xx_HAL_Driver/Src/stm32l4xx_hal_pwr_ex.c ****   /* NOTE : This function should not be modified; when the callback is needed,
1454:../Drivers/STM32L4xx_HAL_Driver/Src/stm32l4xx_hal_pwr_ex.c ****             HAL_PWREx_PVM4Callback() API can be implemented in the user file
1455:../Drivers/STM32L4xx_HAL_Driver/Src/stm32l4xx_hal_pwr_ex.c ****    */
1456:../Drivers/STM32L4xx_HAL_Driver/Src/stm32l4xx_hal_pwr_ex.c **** }
 2296              		.loc 1 1456 1 view .LVU490
 2297 0000 7047     		bx	lr
 2298              		.cfi_endproc
 2299              	.LFE112:
 2301              		.section	.text.HAL_PWREx_PVD_PVM_IRQHandler,"ax",%progbits
 2302              		.align	1
 2303              		.global	HAL_PWREx_PVD_PVM_IRQHandler
 2304              		.syntax unified
ARM GAS  Build/stm32l4xx_hal_pwr_ex.s 			page 68


 2305              		.thumb
 2306              		.thumb_func
 2308              	HAL_PWREx_PVD_PVM_IRQHandler:
 2309              	.LFB108:
1360:../Drivers/STM32L4xx_HAL_Driver/Src/stm32l4xx_hal_pwr_ex.c ****   /* Check PWR exti flag */
 2310              		.loc 1 1360 1 view -0
 2311              		.cfi_startproc
 2312              		@ args = 0, pretend = 0, frame = 0
 2313              		@ frame_needed = 0, uses_anonymous_args = 0
 2314 0000 08B5     		push	{r3, lr}
 2315              	.LCFI2:
 2316              		.cfi_def_cfa_offset 8
 2317              		.cfi_offset 3, -8
 2318              		.cfi_offset 14, -4
1362:../Drivers/STM32L4xx_HAL_Driver/Src/stm32l4xx_hal_pwr_ex.c ****   {
 2319              		.loc 1 1362 3 view .LVU492
1362:../Drivers/STM32L4xx_HAL_Driver/Src/stm32l4xx_hal_pwr_ex.c ****   {
 2320              		.loc 1 1362 6 is_stmt 0 view .LVU493
 2321 0002 1C4B     		ldr	r3, .L211
 2322 0004 5B69     		ldr	r3, [r3, #20]
1362:../Drivers/STM32L4xx_HAL_Driver/Src/stm32l4xx_hal_pwr_ex.c ****   {
 2323              		.loc 1 1362 5 view .LVU494
 2324 0006 13F4803F 		tst	r3, #65536
 2325 000a 14D1     		bne	.L206
 2326              	.L200:
1372:../Drivers/STM32L4xx_HAL_Driver/Src/stm32l4xx_hal_pwr_ex.c ****   {
 2327              		.loc 1 1372 3 is_stmt 1 view .LVU495
1372:../Drivers/STM32L4xx_HAL_Driver/Src/stm32l4xx_hal_pwr_ex.c ****   {
 2328              		.loc 1 1372 6 is_stmt 0 view .LVU496
 2329 000c 194B     		ldr	r3, .L211
 2330 000e 5B6B     		ldr	r3, [r3, #52]
1372:../Drivers/STM32L4xx_HAL_Driver/Src/stm32l4xx_hal_pwr_ex.c ****   {
 2331              		.loc 1 1372 5 view .LVU497
 2332 0010 13F0080F 		tst	r3, #8
 2333 0014 16D1     		bne	.L207
 2334              	.L201:
1382:../Drivers/STM32L4xx_HAL_Driver/Src/stm32l4xx_hal_pwr_ex.c ****   {
 2335              		.loc 1 1382 3 is_stmt 1 view .LVU498
1382:../Drivers/STM32L4xx_HAL_Driver/Src/stm32l4xx_hal_pwr_ex.c ****   {
 2336              		.loc 1 1382 6 is_stmt 0 view .LVU499
 2337 0016 174B     		ldr	r3, .L211
 2338 0018 5B6B     		ldr	r3, [r3, #52]
1382:../Drivers/STM32L4xx_HAL_Driver/Src/stm32l4xx_hal_pwr_ex.c ****   {
 2339              		.loc 1 1382 5 view .LVU500
 2340 001a 13F0100F 		tst	r3, #16
 2341 001e 17D1     		bne	.L208
 2342              	.L202:
1391:../Drivers/STM32L4xx_HAL_Driver/Src/stm32l4xx_hal_pwr_ex.c ****   {
 2343              		.loc 1 1391 3 is_stmt 1 view .LVU501
1391:../Drivers/STM32L4xx_HAL_Driver/Src/stm32l4xx_hal_pwr_ex.c ****   {
 2344              		.loc 1 1391 6 is_stmt 0 view .LVU502
 2345 0020 144B     		ldr	r3, .L211
 2346 0022 5B6B     		ldr	r3, [r3, #52]
1391:../Drivers/STM32L4xx_HAL_Driver/Src/stm32l4xx_hal_pwr_ex.c ****   {
 2347              		.loc 1 1391 5 view .LVU503
 2348 0024 13F0200F 		tst	r3, #32
 2349 0028 18D1     		bne	.L209
ARM GAS  Build/stm32l4xx_hal_pwr_ex.s 			page 69


 2350              	.L203:
1399:../Drivers/STM32L4xx_HAL_Driver/Src/stm32l4xx_hal_pwr_ex.c ****   {
 2351              		.loc 1 1399 3 is_stmt 1 view .LVU504
1399:../Drivers/STM32L4xx_HAL_Driver/Src/stm32l4xx_hal_pwr_ex.c ****   {
 2352              		.loc 1 1399 6 is_stmt 0 view .LVU505
 2353 002a 124B     		ldr	r3, .L211
 2354 002c 5B6B     		ldr	r3, [r3, #52]
1399:../Drivers/STM32L4xx_HAL_Driver/Src/stm32l4xx_hal_pwr_ex.c ****   {
 2355              		.loc 1 1399 5 view .LVU506
 2356 002e 13F0400F 		tst	r3, #64
 2357 0032 19D1     		bne	.L210
 2358              	.L199:
1407:../Drivers/STM32L4xx_HAL_Driver/Src/stm32l4xx_hal_pwr_ex.c **** 
 2359              		.loc 1 1407 1 view .LVU507
 2360 0034 08BD     		pop	{r3, pc}
 2361              	.L206:
1365:../Drivers/STM32L4xx_HAL_Driver/Src/stm32l4xx_hal_pwr_ex.c **** 
 2362              		.loc 1 1365 5 is_stmt 1 view .LVU508
 2363 0036 FFF7FEFF 		bl	HAL_PWR_PVDCallback
 2364              	.LVL128:
1368:../Drivers/STM32L4xx_HAL_Driver/Src/stm32l4xx_hal_pwr_ex.c ****   }
 2365              		.loc 1 1368 5 view .LVU509
 2366 003a 0E4B     		ldr	r3, .L211
 2367 003c 4FF48032 		mov	r2, #65536
 2368 0040 5A61     		str	r2, [r3, #20]
 2369 0042 E3E7     		b	.L200
 2370              	.L207:
1375:../Drivers/STM32L4xx_HAL_Driver/Src/stm32l4xx_hal_pwr_ex.c **** 
 2371              		.loc 1 1375 5 view .LVU510
 2372 0044 FFF7FEFF 		bl	HAL_PWREx_PVM1Callback
 2373              	.LVL129:
1378:../Drivers/STM32L4xx_HAL_Driver/Src/stm32l4xx_hal_pwr_ex.c ****   }
 2374              		.loc 1 1378 5 view .LVU511
 2375 0048 0A4B     		ldr	r3, .L211
 2376 004a 0822     		movs	r2, #8
 2377 004c 5A63     		str	r2, [r3, #52]
 2378 004e E2E7     		b	.L201
 2379              	.L208:
1385:../Drivers/STM32L4xx_HAL_Driver/Src/stm32l4xx_hal_pwr_ex.c **** 
 2380              		.loc 1 1385 5 view .LVU512
 2381 0050 FFF7FEFF 		bl	HAL_PWREx_PVM2Callback
 2382              	.LVL130:
1388:../Drivers/STM32L4xx_HAL_Driver/Src/stm32l4xx_hal_pwr_ex.c ****   }
 2383              		.loc 1 1388 5 view .LVU513
 2384 0054 074B     		ldr	r3, .L211
 2385 0056 1022     		movs	r2, #16
 2386 0058 5A63     		str	r2, [r3, #52]
 2387 005a E1E7     		b	.L202
 2388              	.L209:
1394:../Drivers/STM32L4xx_HAL_Driver/Src/stm32l4xx_hal_pwr_ex.c **** 
 2389              		.loc 1 1394 5 view .LVU514
 2390 005c FFF7FEFF 		bl	HAL_PWREx_PVM3Callback
 2391              	.LVL131:
1397:../Drivers/STM32L4xx_HAL_Driver/Src/stm32l4xx_hal_pwr_ex.c ****   }
 2392              		.loc 1 1397 5 view .LVU515
 2393 0060 044B     		ldr	r3, .L211
 2394 0062 2022     		movs	r2, #32
ARM GAS  Build/stm32l4xx_hal_pwr_ex.s 			page 70


 2395 0064 5A63     		str	r2, [r3, #52]
 2396 0066 E0E7     		b	.L203
 2397              	.L210:
1402:../Drivers/STM32L4xx_HAL_Driver/Src/stm32l4xx_hal_pwr_ex.c **** 
 2398              		.loc 1 1402 5 view .LVU516
 2399 0068 FFF7FEFF 		bl	HAL_PWREx_PVM4Callback
 2400              	.LVL132:
1405:../Drivers/STM32L4xx_HAL_Driver/Src/stm32l4xx_hal_pwr_ex.c ****   }
 2401              		.loc 1 1405 5 view .LVU517
 2402 006c 014B     		ldr	r3, .L211
 2403 006e 4022     		movs	r2, #64
 2404 0070 5A63     		str	r2, [r3, #52]
1407:../Drivers/STM32L4xx_HAL_Driver/Src/stm32l4xx_hal_pwr_ex.c **** 
 2405              		.loc 1 1407 1 is_stmt 0 view .LVU518
 2406 0072 DFE7     		b	.L199
 2407              	.L212:
 2408              		.align	2
 2409              	.L211:
 2410 0074 00040140 		.word	1073808384
 2411              		.cfi_endproc
 2412              	.LFE108:
 2414              		.text
 2415              	.Letext0:
 2416              		.file 2 "/home/emanuele/st/stm32cubeide_1.15.0/plugins/com.st.stm32cube.ide.mcu.externaltools.gnu-
 2417              		.file 3 "/home/emanuele/st/stm32cubeide_1.15.0/plugins/com.st.stm32cube.ide.mcu.externaltools.gnu-
 2418              		.file 4 "../Drivers/CMSIS/Include/core_cm4.h"
 2419              		.file 5 "../Drivers/CMSIS/Device/ST/STM32L4xx/Include/stm32l475xx.h"
 2420              		.file 6 "../Drivers/STM32L4xx_HAL_Driver/Inc/stm32l4xx_hal_def.h"
 2421              		.file 7 "../Drivers/STM32L4xx_HAL_Driver/Inc/stm32l4xx_hal_pwr_ex.h"
 2422              		.file 8 "../Drivers/CMSIS/Device/ST/STM32L4xx/Include/system_stm32l4xx.h"
 2423              		.file 9 "../Drivers/STM32L4xx_HAL_Driver/Inc/stm32l4xx_hal_pwr.h"
ARM GAS  Build/stm32l4xx_hal_pwr_ex.s 			page 71


DEFINED SYMBOLS
                            *ABS*:00000000 stm32l4xx_hal_pwr_ex.c
Build/stm32l4xx_hal_pwr_ex.s:19     .text.HAL_PWREx_GetVoltageRange:00000000 $t
Build/stm32l4xx_hal_pwr_ex.s:25     .text.HAL_PWREx_GetVoltageRange:00000000 HAL_PWREx_GetVoltageRange
Build/stm32l4xx_hal_pwr_ex.s:42     .text.HAL_PWREx_GetVoltageRange:0000000c $d
Build/stm32l4xx_hal_pwr_ex.s:47     .text.HAL_PWREx_ControlVoltageScaling:00000000 $t
Build/stm32l4xx_hal_pwr_ex.s:53     .text.HAL_PWREx_ControlVoltageScaling:00000000 HAL_PWREx_ControlVoltageScaling
Build/stm32l4xx_hal_pwr_ex.s:173    .text.HAL_PWREx_ControlVoltageScaling:00000084 $d
Build/stm32l4xx_hal_pwr_ex.s:180    .text.HAL_PWREx_EnableBatteryCharging:00000000 $t
Build/stm32l4xx_hal_pwr_ex.s:186    .text.HAL_PWREx_EnableBatteryCharging:00000000 HAL_PWREx_EnableBatteryCharging
Build/stm32l4xx_hal_pwr_ex.s:210    .text.HAL_PWREx_EnableBatteryCharging:00000018 $d
Build/stm32l4xx_hal_pwr_ex.s:215    .text.HAL_PWREx_DisableBatteryCharging:00000000 $t
Build/stm32l4xx_hal_pwr_ex.s:221    .text.HAL_PWREx_DisableBatteryCharging:00000000 HAL_PWREx_DisableBatteryCharging
Build/stm32l4xx_hal_pwr_ex.s:238    .text.HAL_PWREx_DisableBatteryCharging:0000000c $d
Build/stm32l4xx_hal_pwr_ex.s:243    .text.HAL_PWREx_EnableVddUSB:00000000 $t
Build/stm32l4xx_hal_pwr_ex.s:249    .text.HAL_PWREx_EnableVddUSB:00000000 HAL_PWREx_EnableVddUSB
Build/stm32l4xx_hal_pwr_ex.s:266    .text.HAL_PWREx_EnableVddUSB:0000000c $d
Build/stm32l4xx_hal_pwr_ex.s:271    .text.HAL_PWREx_DisableVddUSB:00000000 $t
Build/stm32l4xx_hal_pwr_ex.s:277    .text.HAL_PWREx_DisableVddUSB:00000000 HAL_PWREx_DisableVddUSB
Build/stm32l4xx_hal_pwr_ex.s:294    .text.HAL_PWREx_DisableVddUSB:0000000c $d
Build/stm32l4xx_hal_pwr_ex.s:299    .text.HAL_PWREx_EnableVddIO2:00000000 $t
Build/stm32l4xx_hal_pwr_ex.s:305    .text.HAL_PWREx_EnableVddIO2:00000000 HAL_PWREx_EnableVddIO2
Build/stm32l4xx_hal_pwr_ex.s:322    .text.HAL_PWREx_EnableVddIO2:0000000c $d
Build/stm32l4xx_hal_pwr_ex.s:327    .text.HAL_PWREx_DisableVddIO2:00000000 $t
Build/stm32l4xx_hal_pwr_ex.s:333    .text.HAL_PWREx_DisableVddIO2:00000000 HAL_PWREx_DisableVddIO2
Build/stm32l4xx_hal_pwr_ex.s:350    .text.HAL_PWREx_DisableVddIO2:0000000c $d
Build/stm32l4xx_hal_pwr_ex.s:355    .text.HAL_PWREx_EnableInternalWakeUpLine:00000000 $t
Build/stm32l4xx_hal_pwr_ex.s:361    .text.HAL_PWREx_EnableInternalWakeUpLine:00000000 HAL_PWREx_EnableInternalWakeUpLine
Build/stm32l4xx_hal_pwr_ex.s:378    .text.HAL_PWREx_EnableInternalWakeUpLine:0000000c $d
Build/stm32l4xx_hal_pwr_ex.s:383    .text.HAL_PWREx_DisableInternalWakeUpLine:00000000 $t
Build/stm32l4xx_hal_pwr_ex.s:389    .text.HAL_PWREx_DisableInternalWakeUpLine:00000000 HAL_PWREx_DisableInternalWakeUpLine
Build/stm32l4xx_hal_pwr_ex.s:406    .text.HAL_PWREx_DisableInternalWakeUpLine:0000000c $d
Build/stm32l4xx_hal_pwr_ex.s:411    .text.HAL_PWREx_EnableGPIOPullUp:00000000 $t
Build/stm32l4xx_hal_pwr_ex.s:417    .text.HAL_PWREx_EnableGPIOPullUp:00000000 HAL_PWREx_EnableGPIOPullUp
Build/stm32l4xx_hal_pwr_ex.s:433    .text.HAL_PWREx_EnableGPIOPullUp:00000008 $d
Build/stm32l4xx_hal_pwr_ex.s:441    .text.HAL_PWREx_EnableGPIOPullUp:00000010 $t
Build/stm32l4xx_hal_pwr_ex.s:599    .text.HAL_PWREx_EnableGPIOPullUp:000000c4 $d
Build/stm32l4xx_hal_pwr_ex.s:604    .text.HAL_PWREx_DisableGPIOPullUp:00000000 $t
Build/stm32l4xx_hal_pwr_ex.s:610    .text.HAL_PWREx_DisableGPIOPullUp:00000000 HAL_PWREx_DisableGPIOPullUp
Build/stm32l4xx_hal_pwr_ex.s:626    .text.HAL_PWREx_DisableGPIOPullUp:00000008 $d
Build/stm32l4xx_hal_pwr_ex.s:634    .text.HAL_PWREx_DisableGPIOPullUp:00000010 $t
Build/stm32l4xx_hal_pwr_ex.s:755    .text.HAL_PWREx_DisableGPIOPullUp:0000008c $d
Build/stm32l4xx_hal_pwr_ex.s:760    .text.HAL_PWREx_EnableGPIOPullDown:00000000 $t
Build/stm32l4xx_hal_pwr_ex.s:766    .text.HAL_PWREx_EnableGPIOPullDown:00000000 HAL_PWREx_EnableGPIOPullDown
Build/stm32l4xx_hal_pwr_ex.s:782    .text.HAL_PWREx_EnableGPIOPullDown:00000008 $d
Build/stm32l4xx_hal_pwr_ex.s:790    .text.HAL_PWREx_EnableGPIOPullDown:00000010 $t
Build/stm32l4xx_hal_pwr_ex.s:947    .text.HAL_PWREx_EnableGPIOPullDown:000000c4 $d
Build/stm32l4xx_hal_pwr_ex.s:952    .text.HAL_PWREx_DisableGPIOPullDown:00000000 $t
Build/stm32l4xx_hal_pwr_ex.s:958    .text.HAL_PWREx_DisableGPIOPullDown:00000000 HAL_PWREx_DisableGPIOPullDown
Build/stm32l4xx_hal_pwr_ex.s:974    .text.HAL_PWREx_DisableGPIOPullDown:00000008 $d
Build/stm32l4xx_hal_pwr_ex.s:982    .text.HAL_PWREx_DisableGPIOPullDown:00000010 $t
Build/stm32l4xx_hal_pwr_ex.s:1106   .text.HAL_PWREx_DisableGPIOPullDown:00000090 $d
Build/stm32l4xx_hal_pwr_ex.s:1111   .text.HAL_PWREx_EnablePullUpPullDownConfig:00000000 $t
Build/stm32l4xx_hal_pwr_ex.s:1117   .text.HAL_PWREx_EnablePullUpPullDownConfig:00000000 HAL_PWREx_EnablePullUpPullDownConfig
Build/stm32l4xx_hal_pwr_ex.s:1134   .text.HAL_PWREx_EnablePullUpPullDownConfig:0000000c $d
Build/stm32l4xx_hal_pwr_ex.s:1139   .text.HAL_PWREx_DisablePullUpPullDownConfig:00000000 $t
Build/stm32l4xx_hal_pwr_ex.s:1145   .text.HAL_PWREx_DisablePullUpPullDownConfig:00000000 HAL_PWREx_DisablePullUpPullDownConfig
ARM GAS  Build/stm32l4xx_hal_pwr_ex.s 			page 72


Build/stm32l4xx_hal_pwr_ex.s:1162   .text.HAL_PWREx_DisablePullUpPullDownConfig:0000000c $d
Build/stm32l4xx_hal_pwr_ex.s:1167   .text.HAL_PWREx_SetSRAM2ContentRetention:00000000 $t
Build/stm32l4xx_hal_pwr_ex.s:1173   .text.HAL_PWREx_SetSRAM2ContentRetention:00000000 HAL_PWREx_SetSRAM2ContentRetention
Build/stm32l4xx_hal_pwr_ex.s:1216   .text.HAL_PWREx_SetSRAM2ContentRetention:00000028 $d
Build/stm32l4xx_hal_pwr_ex.s:1221   .text.HAL_PWREx_EnableSRAM2ContentRetention:00000000 $t
Build/stm32l4xx_hal_pwr_ex.s:1227   .text.HAL_PWREx_EnableSRAM2ContentRetention:00000000 HAL_PWREx_EnableSRAM2ContentRetention
Build/stm32l4xx_hal_pwr_ex.s:1249   .text.HAL_PWREx_DisableSRAM2ContentRetention:00000000 $t
Build/stm32l4xx_hal_pwr_ex.s:1255   .text.HAL_PWREx_DisableSRAM2ContentRetention:00000000 HAL_PWREx_DisableSRAM2ContentRetention
Build/stm32l4xx_hal_pwr_ex.s:1277   .text.HAL_PWREx_EnablePVM1:00000000 $t
Build/stm32l4xx_hal_pwr_ex.s:1283   .text.HAL_PWREx_EnablePVM1:00000000 HAL_PWREx_EnablePVM1
Build/stm32l4xx_hal_pwr_ex.s:1300   .text.HAL_PWREx_EnablePVM1:0000000c $d
Build/stm32l4xx_hal_pwr_ex.s:1305   .text.HAL_PWREx_DisablePVM1:00000000 $t
Build/stm32l4xx_hal_pwr_ex.s:1311   .text.HAL_PWREx_DisablePVM1:00000000 HAL_PWREx_DisablePVM1
Build/stm32l4xx_hal_pwr_ex.s:1328   .text.HAL_PWREx_DisablePVM1:0000000c $d
Build/stm32l4xx_hal_pwr_ex.s:1333   .text.HAL_PWREx_EnablePVM2:00000000 $t
Build/stm32l4xx_hal_pwr_ex.s:1339   .text.HAL_PWREx_EnablePVM2:00000000 HAL_PWREx_EnablePVM2
Build/stm32l4xx_hal_pwr_ex.s:1356   .text.HAL_PWREx_EnablePVM2:0000000c $d
Build/stm32l4xx_hal_pwr_ex.s:1361   .text.HAL_PWREx_DisablePVM2:00000000 $t
Build/stm32l4xx_hal_pwr_ex.s:1367   .text.HAL_PWREx_DisablePVM2:00000000 HAL_PWREx_DisablePVM2
Build/stm32l4xx_hal_pwr_ex.s:1384   .text.HAL_PWREx_DisablePVM2:0000000c $d
Build/stm32l4xx_hal_pwr_ex.s:1389   .text.HAL_PWREx_EnablePVM3:00000000 $t
Build/stm32l4xx_hal_pwr_ex.s:1395   .text.HAL_PWREx_EnablePVM3:00000000 HAL_PWREx_EnablePVM3
Build/stm32l4xx_hal_pwr_ex.s:1412   .text.HAL_PWREx_EnablePVM3:0000000c $d
Build/stm32l4xx_hal_pwr_ex.s:1417   .text.HAL_PWREx_DisablePVM3:00000000 $t
Build/stm32l4xx_hal_pwr_ex.s:1423   .text.HAL_PWREx_DisablePVM3:00000000 HAL_PWREx_DisablePVM3
Build/stm32l4xx_hal_pwr_ex.s:1440   .text.HAL_PWREx_DisablePVM3:0000000c $d
Build/stm32l4xx_hal_pwr_ex.s:1445   .text.HAL_PWREx_EnablePVM4:00000000 $t
Build/stm32l4xx_hal_pwr_ex.s:1451   .text.HAL_PWREx_EnablePVM4:00000000 HAL_PWREx_EnablePVM4
Build/stm32l4xx_hal_pwr_ex.s:1468   .text.HAL_PWREx_EnablePVM4:0000000c $d
Build/stm32l4xx_hal_pwr_ex.s:1473   .text.HAL_PWREx_DisablePVM4:00000000 $t
Build/stm32l4xx_hal_pwr_ex.s:1479   .text.HAL_PWREx_DisablePVM4:00000000 HAL_PWREx_DisablePVM4
Build/stm32l4xx_hal_pwr_ex.s:1496   .text.HAL_PWREx_DisablePVM4:0000000c $d
Build/stm32l4xx_hal_pwr_ex.s:1501   .text.HAL_PWREx_ConfigPVM:00000000 $t
Build/stm32l4xx_hal_pwr_ex.s:1507   .text.HAL_PWREx_ConfigPVM:00000000 HAL_PWREx_ConfigPVM
Build/stm32l4xx_hal_pwr_ex.s:1860   .text.HAL_PWREx_ConfigPVM:000001e8 $d
Build/stm32l4xx_hal_pwr_ex.s:1865   .text.HAL_PWREx_EnableLowPowerRunMode:00000000 $t
Build/stm32l4xx_hal_pwr_ex.s:1871   .text.HAL_PWREx_EnableLowPowerRunMode:00000000 HAL_PWREx_EnableLowPowerRunMode
Build/stm32l4xx_hal_pwr_ex.s:1888   .text.HAL_PWREx_EnableLowPowerRunMode:0000000c $d
Build/stm32l4xx_hal_pwr_ex.s:1893   .text.HAL_PWREx_DisableLowPowerRunMode:00000000 $t
Build/stm32l4xx_hal_pwr_ex.s:1899   .text.HAL_PWREx_DisableLowPowerRunMode:00000000 HAL_PWREx_DisableLowPowerRunMode
Build/stm32l4xx_hal_pwr_ex.s:1965   .text.HAL_PWREx_DisableLowPowerRunMode:00000044 $d
Build/stm32l4xx_hal_pwr_ex.s:1972   .text.HAL_PWREx_EnterSTOP0Mode:00000000 $t
Build/stm32l4xx_hal_pwr_ex.s:1978   .text.HAL_PWREx_EnterSTOP0Mode:00000000 HAL_PWREx_EnterSTOP0Mode
Build/stm32l4xx_hal_pwr_ex.s:2036   .text.HAL_PWREx_EnterSTOP0Mode:00000030 $d
Build/stm32l4xx_hal_pwr_ex.s:2042   .text.HAL_PWREx_EnterSTOP1Mode:00000000 $t
Build/stm32l4xx_hal_pwr_ex.s:2048   .text.HAL_PWREx_EnterSTOP1Mode:00000000 HAL_PWREx_EnterSTOP1Mode
Build/stm32l4xx_hal_pwr_ex.s:2107   .text.HAL_PWREx_EnterSTOP1Mode:00000034 $d
Build/stm32l4xx_hal_pwr_ex.s:2113   .text.HAL_PWREx_EnterSTOP2Mode:00000000 $t
Build/stm32l4xx_hal_pwr_ex.s:2119   .text.HAL_PWREx_EnterSTOP2Mode:00000000 HAL_PWREx_EnterSTOP2Mode
Build/stm32l4xx_hal_pwr_ex.s:2178   .text.HAL_PWREx_EnterSTOP2Mode:00000034 $d
Build/stm32l4xx_hal_pwr_ex.s:2184   .text.HAL_PWREx_EnterSHUTDOWNMode:00000000 $t
Build/stm32l4xx_hal_pwr_ex.s:2190   .text.HAL_PWREx_EnterSHUTDOWNMode:00000000 HAL_PWREx_EnterSHUTDOWNMode
Build/stm32l4xx_hal_pwr_ex.s:2220   .text.HAL_PWREx_EnterSHUTDOWNMode:0000001c $d
Build/stm32l4xx_hal_pwr_ex.s:2226   .text.HAL_PWREx_PVM1Callback:00000000 $t
Build/stm32l4xx_hal_pwr_ex.s:2232   .text.HAL_PWREx_PVM1Callback:00000000 HAL_PWREx_PVM1Callback
Build/stm32l4xx_hal_pwr_ex.s:2245   .text.HAL_PWREx_PVM2Callback:00000000 $t
Build/stm32l4xx_hal_pwr_ex.s:2251   .text.HAL_PWREx_PVM2Callback:00000000 HAL_PWREx_PVM2Callback
ARM GAS  Build/stm32l4xx_hal_pwr_ex.s 			page 73


Build/stm32l4xx_hal_pwr_ex.s:2264   .text.HAL_PWREx_PVM3Callback:00000000 $t
Build/stm32l4xx_hal_pwr_ex.s:2270   .text.HAL_PWREx_PVM3Callback:00000000 HAL_PWREx_PVM3Callback
Build/stm32l4xx_hal_pwr_ex.s:2283   .text.HAL_PWREx_PVM4Callback:00000000 $t
Build/stm32l4xx_hal_pwr_ex.s:2289   .text.HAL_PWREx_PVM4Callback:00000000 HAL_PWREx_PVM4Callback
Build/stm32l4xx_hal_pwr_ex.s:2302   .text.HAL_PWREx_PVD_PVM_IRQHandler:00000000 $t
Build/stm32l4xx_hal_pwr_ex.s:2308   .text.HAL_PWREx_PVD_PVM_IRQHandler:00000000 HAL_PWREx_PVD_PVM_IRQHandler
Build/stm32l4xx_hal_pwr_ex.s:2410   .text.HAL_PWREx_PVD_PVM_IRQHandler:00000074 $d

UNDEFINED SYMBOLS
SystemCoreClock
HAL_PWR_PVDCallback
