	.cpu cortex-m3
	.arch armv7-m
	.fpu softvfp
	.eabi_attribute 20, 1
	.eabi_attribute 21, 1
	.eabi_attribute 23, 3
	.eabi_attribute 24, 1
	.eabi_attribute 25, 1
	.eabi_attribute 26, 1
	.eabi_attribute 30, 1
	.eabi_attribute 34, 1
	.eabi_attribute 18, 4
	.file	"stm32l4xx_hal_i2c_ex.c"
	.text
.Ltext0:
	.cfi_sections	.debug_frame
	.file 1 "../Drivers/STM32L4xx_HAL_Driver/Src/stm32l4xx_hal_i2c_ex.c"
	.section	.text.HAL_I2CEx_ConfigAnalogFilter,"ax",%progbits
	.align	1
	.global	HAL_I2CEx_ConfigAnalogFilter
	.syntax unified
	.thumb
	.thumb_func
	.type	HAL_I2CEx_ConfigAnalogFilter, %function
HAL_I2CEx_ConfigAnalogFilter:
.LVL0:
.LFB74:
	.loc 1 97 1 view -0
	.cfi_startproc
	@ args = 0, pretend = 0, frame = 0
	@ frame_needed = 0, uses_anonymous_args = 0
	@ link register save eliminated.
	.loc 1 97 1 is_stmt 0 view .LVU1
	mov	r3, r0
	.loc 1 99 3 is_stmt 1 view .LVU2
	.loc 1 100 3 view .LVU3
	.loc 1 102 3 view .LVU4
	.loc 1 102 11 is_stmt 0 view .LVU5
	ldrb	r2, [r0, #65]	@ zero_extendqisi2
	uxtb	r2, r2
	.loc 1 102 6 view .LVU6
	cmp	r2, #32
	bne	.L3
	.loc 1 105 5 is_stmt 1 view .LVU7
	.loc 1 105 5 view .LVU8
	ldrb	r2, [r0, #64]	@ zero_extendqisi2
	cmp	r2, #1
	beq	.L4
	.loc 1 105 5 discriminator 2 view .LVU9
	movs	r2, #1
	strb	r2, [r0, #64]
	.loc 1 105 5 discriminator 2 view .LVU10
	.loc 1 107 5 discriminator 2 view .LVU11
	.loc 1 107 17 is_stmt 0 discriminator 2 view .LVU12
	movs	r2, #36
	strb	r2, [r0, #65]
	.loc 1 110 5 is_stmt 1 discriminator 2 view .LVU13
	ldr	r0, [r0]
.LVL1:
	.loc 1 110 5 is_stmt 0 discriminator 2 view .LVU14
	ldr	r2, [r0]
	bic	r2, r2, #1
	str	r2, [r0]
	.loc 1 113 5 is_stmt 1 discriminator 2 view .LVU15
	.loc 1 113 9 is_stmt 0 discriminator 2 view .LVU16
	ldr	r0, [r3]
	.loc 1 113 19 discriminator 2 view .LVU17
	ldr	r2, [r0]
	.loc 1 113 25 discriminator 2 view .LVU18
	bic	r2, r2, #4096
	str	r2, [r0]
	.loc 1 116 5 is_stmt 1 discriminator 2 view .LVU19
	.loc 1 116 9 is_stmt 0 discriminator 2 view .LVU20
	ldr	r0, [r3]
	.loc 1 116 19 discriminator 2 view .LVU21
	ldr	r2, [r0]
	.loc 1 116 25 discriminator 2 view .LVU22
	orrs	r1, r1, r2
.LVL2:
	.loc 1 116 25 discriminator 2 view .LVU23
	str	r1, [r0]
	.loc 1 118 5 is_stmt 1 discriminator 2 view .LVU24
	ldr	r1, [r3]
	ldr	r2, [r1]
	orr	r2, r2, #1
	str	r2, [r1]
	.loc 1 120 5 discriminator 2 view .LVU25
	.loc 1 120 17 is_stmt 0 discriminator 2 view .LVU26
	movs	r2, #32
	strb	r2, [r3, #65]
	.loc 1 123 5 is_stmt 1 discriminator 2 view .LVU27
	.loc 1 123 5 discriminator 2 view .LVU28
	movs	r0, #0
	strb	r0, [r3, #64]
	.loc 1 123 5 discriminator 2 view .LVU29
	.loc 1 125 5 discriminator 2 view .LVU30
	.loc 1 125 12 is_stmt 0 discriminator 2 view .LVU31
	bx	lr
.LVL3:
.L3:
	.loc 1 129 12 view .LVU32
	movs	r0, #2
.LVL4:
	.loc 1 129 12 view .LVU33
	bx	lr
.LVL5:
.L4:
	.loc 1 105 5 view .LVU34
	movs	r0, #2
.LVL6:
	.loc 1 131 1 view .LVU35
	bx	lr
	.cfi_endproc
.LFE74:
	.size	HAL_I2CEx_ConfigAnalogFilter, .-HAL_I2CEx_ConfigAnalogFilter
	.section	.text.HAL_I2CEx_ConfigDigitalFilter,"ax",%progbits
	.align	1
	.global	HAL_I2CEx_ConfigDigitalFilter
	.syntax unified
	.thumb
	.thumb_func
	.type	HAL_I2CEx_ConfigDigitalFilter, %function
HAL_I2CEx_ConfigDigitalFilter:
.LVL7:
.LFB75:
	.loc 1 141 1 is_stmt 1 view -0
	.cfi_startproc
	@ args = 0, pretend = 0, frame = 0
	@ frame_needed = 0, uses_anonymous_args = 0
	@ link register save eliminated.
	.loc 1 141 1 is_stmt 0 view .LVU37
	mov	r3, r0
	.loc 1 142 3 is_stmt 1 view .LVU38
	.loc 1 145 3 view .LVU39
	.loc 1 146 3 view .LVU40
	.loc 1 148 3 view .LVU41
	.loc 1 148 11 is_stmt 0 view .LVU42
	ldrb	r2, [r0, #65]	@ zero_extendqisi2
	uxtb	r2, r2
	.loc 1 148 6 view .LVU43
	cmp	r2, #32
	bne	.L7
	.loc 1 151 5 is_stmt 1 view .LVU44
	.loc 1 151 5 view .LVU45
	ldrb	r2, [r0, #64]	@ zero_extendqisi2
	cmp	r2, #1
	beq	.L8
	.loc 1 151 5 discriminator 2 view .LVU46
	movs	r2, #1
	strb	r2, [r0, #64]
	.loc 1 151 5 discriminator 2 view .LVU47
	.loc 1 153 5 discriminator 2 view .LVU48
	.loc 1 153 17 is_stmt 0 discriminator 2 view .LVU49
	movs	r2, #36
	strb	r2, [r0, #65]
	.loc 1 156 5 is_stmt 1 discriminator 2 view .LVU50
	ldr	r0, [r0]
.LVL8:
	.loc 1 156 5 is_stmt 0 discriminator 2 view .LVU51
	ldr	r2, [r0]
	bic	r2, r2, #1
	str	r2, [r0]
	.loc 1 159 5 is_stmt 1 discriminator 2 view .LVU52
	.loc 1 159 18 is_stmt 0 discriminator 2 view .LVU53
	ldr	r0, [r3]
	.loc 1 159 12 discriminator 2 view .LVU54
	ldr	r2, [r0]
.LVL9:
	.loc 1 162 5 is_stmt 1 discriminator 2 view .LVU55
	.loc 1 162 12 is_stmt 0 discriminator 2 view .LVU56
	bic	r2, r2, #3840
.LVL10:
	.loc 1 165 5 is_stmt 1 discriminator 2 view .LVU57
	.loc 1 165 12 is_stmt 0 discriminator 2 view .LVU58
	orr	r2, r2, r1, lsl #8
.LVL11:
	.loc 1 168 5 is_stmt 1 discriminator 2 view .LVU59
	.loc 1 168 25 is_stmt 0 discriminator 2 view .LVU60
	str	r2, [r0]
	.loc 1 170 5 is_stmt 1 discriminator 2 view .LVU61
	ldr	r1, [r3]
.LVL12:
	.loc 1 170 5 is_stmt 0 discriminator 2 view .LVU62
	ldr	r2, [r1]
.LVL13:
	.loc 1 170 5 discriminator 2 view .LVU63
	orr	r2, r2, #1
	str	r2, [r1]
.LVL14:
	.loc 1 172 5 is_stmt 1 discriminator 2 view .LVU64
	.loc 1 172 17 is_stmt 0 discriminator 2 view .LVU65
	movs	r2, #32
	strb	r2, [r3, #65]
	.loc 1 175 5 is_stmt 1 discriminator 2 view .LVU66
	.loc 1 175 5 discriminator 2 view .LVU67
	movs	r0, #0
	strb	r0, [r3, #64]
	.loc 1 175 5 discriminator 2 view .LVU68
	.loc 1 177 5 discriminator 2 view .LVU69
	.loc 1 177 12 is_stmt 0 discriminator 2 view .LVU70
	bx	lr
.LVL15:
.L7:
	.loc 1 181 12 view .LVU71
	movs	r0, #2
.LVL16:
	.loc 1 181 12 view .LVU72
	bx	lr
.LVL17:
.L8:
	.loc 1 151 5 view .LVU73
	movs	r0, #2
.LVL18:
	.loc 1 183 1 view .LVU74
	bx	lr
	.cfi_endproc
.LFE75:
	.size	HAL_I2CEx_ConfigDigitalFilter, .-HAL_I2CEx_ConfigDigitalFilter
	.section	.text.HAL_I2CEx_EnableWakeUp,"ax",%progbits
	.align	1
	.global	HAL_I2CEx_EnableWakeUp
	.syntax unified
	.thumb
	.thumb_func
	.type	HAL_I2CEx_EnableWakeUp, %function
HAL_I2CEx_EnableWakeUp:
.LVL19:
.LFB76:
	.loc 1 209 1 is_stmt 1 view -0
	.cfi_startproc
	@ args = 0, pretend = 0, frame = 0
	@ frame_needed = 0, uses_anonymous_args = 0
	@ link register save eliminated.
	.loc 1 209 1 is_stmt 0 view .LVU76
	mov	r3, r0
	.loc 1 211 3 is_stmt 1 view .LVU77
	.loc 1 213 3 view .LVU78
	.loc 1 213 11 is_stmt 0 view .LVU79
	ldrb	r2, [r0, #65]	@ zero_extendqisi2
	uxtb	r2, r2
	.loc 1 213 6 view .LVU80
	cmp	r2, #32
	bne	.L11
	.loc 1 216 5 is_stmt 1 view .LVU81
	.loc 1 216 5 view .LVU82
	ldrb	r2, [r0, #64]	@ zero_extendqisi2
	cmp	r2, #1
	beq	.L12
	.loc 1 216 5 discriminator 2 view .LVU83
	movs	r2, #1
	strb	r2, [r0, #64]
	.loc 1 216 5 discriminator 2 view .LVU84
	.loc 1 218 5 discriminator 2 view .LVU85
	.loc 1 218 17 is_stmt 0 discriminator 2 view .LVU86
	movs	r2, #36
	strb	r2, [r0, #65]
	.loc 1 221 5 is_stmt 1 discriminator 2 view .LVU87
	ldr	r1, [r0]
	ldr	r2, [r1]
	bic	r2, r2, #1
	str	r2, [r1]
	.loc 1 224 5 discriminator 2 view .LVU88
	.loc 1 224 9 is_stmt 0 discriminator 2 view .LVU89
	ldr	r1, [r0]
	.loc 1 224 19 discriminator 2 view .LVU90
	ldr	r2, [r1]
	.loc 1 224 25 discriminator 2 view .LVU91
	orr	r2, r2, #262144
	str	r2, [r1]
	.loc 1 226 5 is_stmt 1 discriminator 2 view .LVU92
	ldr	r1, [r0]
	ldr	r2, [r1]
	orr	r2, r2, #1
	str	r2, [r1]
	.loc 1 228 5 discriminator 2 view .LVU93
	.loc 1 228 17 is_stmt 0 discriminator 2 view .LVU94
	movs	r2, #32
	strb	r2, [r0, #65]
	.loc 1 231 5 is_stmt 1 discriminator 2 view .LVU95
	.loc 1 231 5 discriminator 2 view .LVU96
	movs	r0, #0
.LVL20:
	.loc 1 231 5 is_stmt 0 discriminator 2 view .LVU97
	strb	r0, [r3, #64]
	.loc 1 231 5 is_stmt 1 discriminator 2 view .LVU98
	.loc 1 233 5 discriminator 2 view .LVU99
	.loc 1 233 12 is_stmt 0 discriminator 2 view .LVU100
	bx	lr
.LVL21:
.L11:
	.loc 1 237 12 view .LVU101
	movs	r0, #2
.LVL22:
	.loc 1 237 12 view .LVU102
	bx	lr
.LVL23:
.L12:
	.loc 1 216 5 view .LVU103
	movs	r0, #2
.LVL24:
	.loc 1 239 1 view .LVU104
	bx	lr
	.cfi_endproc
.LFE76:
	.size	HAL_I2CEx_EnableWakeUp, .-HAL_I2CEx_EnableWakeUp
	.section	.text.HAL_I2CEx_DisableWakeUp,"ax",%progbits
	.align	1
	.global	HAL_I2CEx_DisableWakeUp
	.syntax unified
	.thumb
	.thumb_func
	.type	HAL_I2CEx_DisableWakeUp, %function
HAL_I2CEx_DisableWakeUp:
.LVL25:
.LFB77:
	.loc 1 248 1 is_stmt 1 view -0
	.cfi_startproc
	@ args = 0, pretend = 0, frame = 0
	@ frame_needed = 0, uses_anonymous_args = 0
	@ link register save eliminated.
	.loc 1 248 1 is_stmt 0 view .LVU106
	mov	r3, r0
	.loc 1 250 3 is_stmt 1 view .LVU107
	.loc 1 252 3 view .LVU108
	.loc 1 252 11 is_stmt 0 view .LVU109
	ldrb	r2, [r0, #65]	@ zero_extendqisi2
	uxtb	r2, r2
	.loc 1 252 6 view .LVU110
	cmp	r2, #32
	bne	.L15
	.loc 1 255 5 is_stmt 1 view .LVU111
	.loc 1 255 5 view .LVU112
	ldrb	r2, [r0, #64]	@ zero_extendqisi2
	cmp	r2, #1
	beq	.L16
	.loc 1 255 5 discriminator 2 view .LVU113
	movs	r2, #1
	strb	r2, [r0, #64]
	.loc 1 255 5 discriminator 2 view .LVU114
	.loc 1 257 5 discriminator 2 view .LVU115
	.loc 1 257 17 is_stmt 0 discriminator 2 view .LVU116
	movs	r2, #36
	strb	r2, [r0, #65]
	.loc 1 260 5 is_stmt 1 discriminator 2 view .LVU117
	ldr	r1, [r0]
	ldr	r2, [r1]
	bic	r2, r2, #1
	str	r2, [r1]
	.loc 1 263 5 discriminator 2 view .LVU118
	.loc 1 263 9 is_stmt 0 discriminator 2 view .LVU119
	ldr	r1, [r0]
	.loc 1 263 19 discriminator 2 view .LVU120
	ldr	r2, [r1]
	.loc 1 263 25 discriminator 2 view .LVU121
	bic	r2, r2, #262144
	str	r2, [r1]
	.loc 1 265 5 is_stmt 1 discriminator 2 view .LVU122
	ldr	r1, [r0]
	ldr	r2, [r1]
	orr	r2, r2, #1
	str	r2, [r1]
	.loc 1 267 5 discriminator 2 view .LVU123
	.loc 1 267 17 is_stmt 0 discriminator 2 view .LVU124
	movs	r2, #32
	strb	r2, [r0, #65]
	.loc 1 270 5 is_stmt 1 discriminator 2 view .LVU125
	.loc 1 270 5 discriminator 2 view .LVU126
	movs	r0, #0
.LVL26:
	.loc 1 270 5 is_stmt 0 discriminator 2 view .LVU127
	strb	r0, [r3, #64]
	.loc 1 270 5 is_stmt 1 discriminator 2 view .LVU128
	.loc 1 272 5 discriminator 2 view .LVU129
	.loc 1 272 12 is_stmt 0 discriminator 2 view .LVU130
	bx	lr
.LVL27:
.L15:
	.loc 1 276 12 view .LVU131
	movs	r0, #2
.LVL28:
	.loc 1 276 12 view .LVU132
	bx	lr
.LVL29:
.L16:
	.loc 1 255 5 view .LVU133
	movs	r0, #2
.LVL30:
	.loc 1 278 1 view .LVU134
	bx	lr
	.cfi_endproc
.LFE77:
	.size	HAL_I2CEx_DisableWakeUp, .-HAL_I2CEx_DisableWakeUp
	.section	.text.HAL_I2CEx_EnableFastModePlus,"ax",%progbits
	.align	1
	.global	HAL_I2CEx_EnableFastModePlus
	.syntax unified
	.thumb
	.thumb_func
	.type	HAL_I2CEx_EnableFastModePlus, %function
HAL_I2CEx_EnableFastModePlus:
.LVL31:
.LFB78:
	.loc 1 315 1 is_stmt 1 view -0
	.cfi_startproc
	@ args = 0, pretend = 0, frame = 8
	@ frame_needed = 0, uses_anonymous_args = 0
	@ link register save eliminated.
	.loc 1 315 1 is_stmt 0 view .LVU136
	sub	sp, sp, #8
.LCFI0:
	.cfi_def_cfa_offset 8
	.loc 1 317 3 is_stmt 1 view .LVU137
	.loc 1 320 3 view .LVU138
.LBB2:
	.loc 1 320 3 view .LVU139
	.loc 1 320 3 view .LVU140
	ldr	r3, .L19
	ldr	r2, [r3, #96]
	orr	r2, r2, #1
	str	r2, [r3, #96]
	.loc 1 320 3 view .LVU141
	ldr	r3, [r3, #96]
	and	r3, r3, #1
	str	r3, [sp, #4]
	.loc 1 320 3 view .LVU142
	ldr	r3, [sp, #4]
.LBE2:
	.loc 1 320 3 view .LVU143
	.loc 1 323 3 view .LVU144
	ldr	r2, .L19+4
	ldr	r3, [r2, #4]
	orrs	r3, r3, r0
	str	r3, [r2, #4]
	.loc 1 324 1 is_stmt 0 view .LVU145
	add	sp, sp, #8
.LCFI1:
	.cfi_def_cfa_offset 0
	@ sp needed
	bx	lr
.L20:
	.align	2
.L19:
	.word	1073876992
	.word	1073807360
	.cfi_endproc
.LFE78:
	.size	HAL_I2CEx_EnableFastModePlus, .-HAL_I2CEx_EnableFastModePlus
	.section	.text.HAL_I2CEx_DisableFastModePlus,"ax",%progbits
	.align	1
	.global	HAL_I2CEx_DisableFastModePlus
	.syntax unified
	.thumb
	.thumb_func
	.type	HAL_I2CEx_DisableFastModePlus, %function
HAL_I2CEx_DisableFastModePlus:
.LVL32:
.LFB79:
	.loc 1 344 1 is_stmt 1 view -0
	.cfi_startproc
	@ args = 0, pretend = 0, frame = 8
	@ frame_needed = 0, uses_anonymous_args = 0
	@ link register save eliminated.
	.loc 1 344 1 is_stmt 0 view .LVU147
	sub	sp, sp, #8
.LCFI2:
	.cfi_def_cfa_offset 8
	.loc 1 346 3 is_stmt 1 view .LVU148
	.loc 1 349 3 view .LVU149
.LBB3:
	.loc 1 349 3 view .LVU150
	.loc 1 349 3 view .LVU151
	ldr	r3, .L23
	ldr	r2, [r3, #96]
	orr	r2, r2, #1
	str	r2, [r3, #96]
	.loc 1 349 3 view .LVU152
	ldr	r3, [r3, #96]
	and	r3, r3, #1
	str	r3, [sp, #4]
	.loc 1 349 3 view .LVU153
	ldr	r3, [sp, #4]
.LBE3:
	.loc 1 349 3 view .LVU154
	.loc 1 352 3 view .LVU155
	ldr	r2, .L23+4
	ldr	r3, [r2, #4]
	bic	r3, r3, r0
	str	r3, [r2, #4]
	.loc 1 353 1 is_stmt 0 view .LVU156
	add	sp, sp, #8
.LCFI3:
	.cfi_def_cfa_offset 0
	@ sp needed
	bx	lr
.L24:
	.align	2
.L23:
	.word	1073876992
	.word	1073807360
	.cfi_endproc
.LFE79:
	.size	HAL_I2CEx_DisableFastModePlus, .-HAL_I2CEx_DisableFastModePlus
	.text
.Letext0:
	.file 2 "/home/emanuele/st/stm32cubeide_1.15.0/plugins/com.st.stm32cube.ide.mcu.externaltools.gnu-tools-for-stm32.12.3.rel1.linux64_1.0.200.202406132123/tools/arm-none-eabi/include/machine/_default_types.h"
	.file 3 "/home/emanuele/st/stm32cubeide_1.15.0/plugins/com.st.stm32cube.ide.mcu.externaltools.gnu-tools-for-stm32.12.3.rel1.linux64_1.0.200.202406132123/tools/arm-none-eabi/include/sys/_stdint.h"
	.file 4 "../Drivers/CMSIS/Device/ST/STM32L4xx/Include/stm32l475xx.h"
	.file 5 "../Drivers/STM32L4xx_HAL_Driver/Inc/stm32l4xx_hal_def.h"
	.file 6 "../Drivers/STM32L4xx_HAL_Driver/Inc/stm32l4xx_hal_dma.h"
	.file 7 "../Drivers/STM32L4xx_HAL_Driver/Inc/stm32l4xx_hal_i2c.h"