	.cpu cortex-m3
	.arch armv7-m
	.fpu softvfp
	.eabi_attribute 20, 1
	.eabi_attribute 21, 1
	.eabi_attribute 23, 3
	.eabi_attribute 24, 1
	.eabi_attribute 25, 1
	.eabi_attribute 26, 1
	.eabi_attribute 30, 1
	.eabi_attribute 34, 1
	.eabi_attribute 18, 4
	.file	"stm32l4xx_hal_flash.c"
	.text
.Ltext0:
	.cfi_sections	.debug_frame
	.file 1 "../Drivers/STM32L4xx_HAL_Driver/Src/stm32l4xx_hal_flash.c"
	.section	.text.FLASH_Program_DoubleWord,"ax",%progbits
	.align	1
	.syntax unified
	.thumb
	.thumb_func
	.type	FLASH_Program_DoubleWord, %function
FLASH_Program_DoubleWord:
.LVL0:
.LFB86:
	.loc 1 697 1 view -0
	.cfi_startproc
	@ args = 0, pretend = 0, frame = 0
	@ frame_needed = 0, uses_anonymous_args = 0
	@ link register save eliminated.
	.loc 1 697 1 is_stmt 0 view .LVU1
	push	{r4}
.LCFI0:
	.cfi_def_cfa_offset 4
	.cfi_offset 4, -4
	.loc 1 699 3 is_stmt 1 view .LVU2
	.loc 1 702 3 view .LVU3
	ldr	r4, .L3
	ldr	r1, [r4, #20]
	orr	r1, r1, #1
	str	r1, [r4, #20]
	.loc 1 705 3 view .LVU4
	.loc 1 705 28 is_stmt 0 view .LVU5
	str	r2, [r0]
	.loc 1 709 3 is_stmt 1 view .LVU6
.LBB10:
.LBI10:
	.file 2 "../Drivers/CMSIS/Include/cmsis_gcc.h"
	.loc 2 933 27 view .LVU7
.LBB11:
	.loc 2 935 3 view .LVU8
	.syntax unified
@ 935 "../Drivers/CMSIS/Include/cmsis_gcc.h" 1
	isb 0xF
@ 0 "" 2
	.thumb
	.syntax unified
.LBE11:
.LBE10:
	.loc 1 712 3 view .LVU9
	.loc 1 712 33 is_stmt 0 view .LVU10
	str	r3, [r0, #4]
	.loc 1 713 1 view .LVU11
	pop	{r4}
.LCFI1:
	.cfi_restore 4
	.cfi_def_cfa_offset 0
	bx	lr
.L4:
	.align	2
.L3:
	.word	1073881088
	.cfi_endproc
.LFE86:
	.size	FLASH_Program_DoubleWord, .-FLASH_Program_DoubleWord
	.section	.text.FLASH_Program_Fast,"ax",%progbits
	.align	1
	.syntax unified
	.thumb
	.thumb_func
	.type	FLASH_Program_Fast, %function
FLASH_Program_Fast:
.LVL1:
.LFB87:
	.loc 1 722 1 is_stmt 1 view -0
	.cfi_startproc
	@ args = 0, pretend = 0, frame = 0
	@ frame_needed = 0, uses_anonymous_args = 0
	@ link register save eliminated.
	.loc 1 723 3 view .LVU13
	.loc 1 724 3 view .LVU14
	.loc 1 725 3 view .LVU15
	.loc 1 726 3 view .LVU16
	.loc 1 729 3 view .LVU17
	.loc 1 732 3 view .LVU18
	ldr	r2, .L7
	ldr	r3, [r2, #20]
	orr	r3, r3, #262144
	str	r3, [r2, #20]
	.loc 1 735 3 view .LVU19
.LBB12:
.LBI12:
	.loc 2 449 31 view .LVU20
.LBB13:
	.loc 2 451 3 view .LVU21
	.loc 2 453 3 view .LVU22
	.syntax unified
@ 453 "../Drivers/CMSIS/Include/cmsis_gcc.h" 1
	svc 0
	MRS ip, primask
 
@ 0 "" 2
.LVL2:
	.loc 2 454 3 view .LVU23
	.loc 2 454 3 is_stmt 0 view .LVU24
	.thumb
	.syntax unified
.LBE13:
.LBE12:
	.loc 1 736 3 is_stmt 1 view .LVU25
.LBB14:
.LBI14:
	.loc 2 207 27 view .LVU26
.LBB15:
	.loc 2 209 3 view .LVU27
	.syntax unified
@ 209 "../Drivers/CMSIS/Include/cmsis_gcc.h" 1
	svc 0
	cpsid i 
@ 0 "" 2
	.thumb
	.syntax unified
.LBE15:
.LBE14:
	.loc 1 724 11 is_stmt 0 view .LVU28
	movs	r3, #64
.LVL3:
.L6:
	.loc 1 739 3 is_stmt 1 discriminator 1 view .LVU29
	.loc 1 741 5 discriminator 1 view .LVU30
	.loc 1 741 18 is_stmt 0 discriminator 1 view .LVU31
	ldr	r2, [r1], #4
.LVL4:
	.loc 1 741 16 discriminator 1 view .LVU32
	str	r2, [r0], #4
.LVL5:
	.loc 1 742 5 is_stmt 1 discriminator 1 view .LVU33
	.loc 1 743 5 discriminator 1 view .LVU34
	.loc 1 744 5 discriminator 1 view .LVU35
	.loc 1 744 14 is_stmt 0 discriminator 1 view .LVU36
	subs	r3, r3, #1
.LVL6:
	.loc 1 745 22 is_stmt 1 discriminator 1 view .LVU37
	ands	r3, r3, #255
.LVL7:
	.loc 1 745 22 is_stmt 0 discriminator 1 view .LVU38
	bne	.L6
	.loc 1 748 3 is_stmt 1 view .LVU39
.LBB16:
.LBI16:
	.loc 2 479 27 view .LVU40
.LBB17:
	.loc 2 481 3 view .LVU41
	.syntax unified
@ 481 "../Drivers/CMSIS/Include/cmsis_gcc.h" 1
	svc 0
	MSR primask, ip 
@ 0 "" 2
	.thumb
	.syntax unified
.LBE17:
.LBE16:
	.loc 1 749 1 is_stmt 0 view .LVU42
	bx	lr
.L8:
	.align	2
.L7:
	.word	1073881088
	.cfi_endproc
.LFE87:
	.size	FLASH_Program_Fast, .-FLASH_Program_Fast
	.section	.text.HAL_FLASH_Program_IT,"ax",%progbits
	.align	1
	.global	HAL_FLASH_Program_IT
	.syntax unified
	.thumb
	.thumb_func
	.type	HAL_FLASH_Program_IT, %function
HAL_FLASH_Program_IT:
.LVL8:
.LFB75:
	.loc 1 252 1 is_stmt 1 view -0
	.cfi_startproc
	@ args = 0, pretend = 0, frame = 0
	@ frame_needed = 0, uses_anonymous_args = 0
	.loc 1 252 1 is_stmt 0 view .LVU44
	push	{r4, r5, r6, lr}
.LCFI2:
	.cfi_def_cfa_offset 16
	.cfi_offset 4, -16
	.cfi_offset 5, -12
	.cfi_offset 6, -8
	.cfi_offset 14, -4
	.loc 1 253 3 is_stmt 1 view .LVU45
.LVL9:
	.loc 1 256 3 view .LVU46
	.loc 1 259 3 view .LVU47
	.loc 1 259 3 view .LVU48
	ldr	r5, .L22
	ldrb	r5, [r5]	@ zero_extendqisi2
	cmp	r5, #1
	beq	.L16
	mov	r4, r0
	mov	r0, r1
.LVL10:
	.loc 1 259 3 discriminator 2 view .LVU49
	ldr	r5, .L22
	movs	r1, #1
.LVL11:
	.loc 1 259 3 is_stmt 0 discriminator 2 view .LVU50
	strb	r1, [r5]
	.loc 1 259 3 is_stmt 1 discriminator 2 view .LVU51
	.loc 1 261 3 discriminator 2 view .LVU52
	.loc 1 261 20 is_stmt 0 discriminator 2 view .LVU53
	movs	r1, #0
	str	r1, [r5, #4]
	.loc 1 264 3 is_stmt 1 discriminator 2 view .LVU54
	.loc 1 264 6 is_stmt 0 discriminator 2 view .LVU55
	ldr	r1, .L22+4
	ldr	r1, [r1]
	.loc 1 264 5 discriminator 2 view .LVU56
	tst	r1, #1024
	beq	.L11
	.loc 1 267 5 is_stmt 1 view .LVU57
	ldr	r5, .L22+4
	ldr	r1, [r5]
	bic	r1, r1, #1024
	str	r1, [r5]
	.loc 1 268 5 view .LVU58
	.loc 1 268 30 is_stmt 0 view .LVU59
	ldr	r1, .L22
	movs	r5, #2
	strb	r5, [r1, #28]
.L12:
	.loc 1 276 3 is_stmt 1 view .LVU60
	.loc 1 276 5 is_stmt 0 view .LVU61
	cmp	r4, #2
	beq	.L19
	.loc 1 282 5 is_stmt 1 view .LVU62
	.loc 1 282 29 is_stmt 0 view .LVU63
	ldr	r1, .L22
	movs	r5, #3
	strb	r5, [r1, #8]
.L14:
	.loc 1 284 3 is_stmt 1 view .LVU64
	.loc 1 284 18 is_stmt 0 view .LVU65
	ldr	r1, .L22
	str	r0, [r1, #12]
	.loc 1 287 3 is_stmt 1 view .LVU66
	.loc 1 287 3 view .LVU67
	.loc 1 287 3 view .LVU68
	.loc 1 287 3 view .LVU69
	ldr	r6, .L22+4
	ldr	r5, [r6, #20]
	orr	r5, r5, #50331648
	str	r5, [r6, #20]
	.loc 1 287 3 view .LVU70
	.loc 1 289 3 view .LVU71
	.loc 1 289 5 is_stmt 0 view .LVU72
	cbz	r4, .L20
	.loc 1 294 8 is_stmt 1 view .LVU73
	.loc 1 294 51 is_stmt 0 view .LVU74
	subs	r4, r4, #1
.LVL12:
	.loc 1 294 10 view .LVU75
	cmp	r4, #1
	bls	.L21
	.loc 1 304 10 view .LVU76
	movs	r0, #0
.LVL13:
.L10:
	.loc 1 305 1 view .LVU77
	pop	{r4, r5, r6, pc}
.LVL14:
.L11:
	.loc 1 272 5 is_stmt 1 view .LVU78
	.loc 1 272 30 is_stmt 0 view .LVU79
	ldr	r1, .L22
	movs	r5, #0
	strb	r5, [r1, #28]
	b	.L12
.L19:
	.loc 1 278 5 is_stmt 1 view .LVU80
	.loc 1 278 29 is_stmt 0 view .LVU81
	ldr	r1, .L22
	movs	r5, #4
	strb	r5, [r1, #8]
	b	.L14
.L20:
	.loc 1 292 5 is_stmt 1 view .LVU82
	bl	FLASH_Program_DoubleWord
.LVL15:
	.loc 1 304 10 is_stmt 0 view .LVU83
	movs	r0, #0
	b	.L10
.LVL16:
.L21:
	.loc 1 297 5 is_stmt 1 view .LVU84
	mov	r1, r2
	bl	FLASH_Program_Fast
.LVL17:
	.loc 1 304 10 is_stmt 0 view .LVU85
	movs	r0, #0
	b	.L10
.LVL18:
.L16:
	.loc 1 259 3 view .LVU86
	movs	r0, #2
.LVL19:
	.loc 1 259 3 view .LVU87
	b	.L10
.L23:
	.align	2
.L22:
	.word	pFlash
	.word	1073881088
	.cfi_endproc
.LFE75:
	.size	HAL_FLASH_Program_IT, .-HAL_FLASH_Program_IT
	.section	.text.HAL_FLASH_EndOfOperationCallback,"ax",%progbits
	.align	1
	.weak	HAL_FLASH_EndOfOperationCallback
	.syntax unified
	.thumb
	.thumb_func
	.type	HAL_FLASH_EndOfOperationCallback, %function
HAL_FLASH_EndOfOperationCallback:
.LVL20:
.LFB77:
	.loc 1 455 1 is_stmt 1 view -0
	.cfi_startproc
	@ args = 0, pretend = 0, frame = 0
	@ frame_needed = 0, uses_anonymous_args = 0
	@ link register save eliminated.
	.loc 1 457 3 view .LVU89
	.loc 1 462 1 is_stmt 0 view .LVU90
	bx	lr
	.cfi_endproc
.LFE77:
	.size	HAL_FLASH_EndOfOperationCallback, .-HAL_FLASH_EndOfOperationCallback
	.section	.text.HAL_FLASH_OperationErrorCallback,"ax",%progbits
	.align	1
	.weak	HAL_FLASH_OperationErrorCallback
	.syntax unified
	.thumb
	.thumb_func
	.type	HAL_FLASH_OperationErrorCallback, %function
HAL_FLASH_OperationErrorCallback:
.LVL21:
.LFB78:
	.loc 1 473 1 is_stmt 1 view -0
	.cfi_startproc
	@ args = 0, pretend = 0, frame = 0
	@ frame_needed = 0, uses_anonymous_args = 0
	@ link register save eliminated.
	.loc 1 475 3 view .LVU92
	.loc 1 480 1 is_stmt 0 view .LVU93
	bx	lr
	.cfi_endproc
.LFE78:
	.size	HAL_FLASH_OperationErrorCallback, .-HAL_FLASH_OperationErrorCallback
	.section	.text.HAL_FLASH_IRQHandler,"ax",%progbits
	.align	1
	.global	HAL_FLASH_IRQHandler
	.syntax unified
	.thumb
	.thumb_func
	.type	HAL_FLASH_IRQHandler, %function
HAL_FLASH_IRQHandler:
.LFB76:
	.loc 1 312 1 is_stmt 1 view -0
	.cfi_startproc
	@ args = 0, pretend = 0, frame = 0
	@ frame_needed = 0, uses_anonymous_args = 0
	push	{r4, lr}
.LCFI3:
	.cfi_def_cfa_offset 8
	.cfi_offset 4, -8
	.cfi_offset 14, -4
	.loc 1 313 3 view .LVU95
	.loc 1 314 3 view .LVU96
	.loc 1 315 3 view .LVU97
	.loc 1 318 3 view .LVU98
	ldr	r2, .L47
	ldr	r3, [r2, #20]
	bic	r3, r3, #2040
	bic	r3, r3, #7
	str	r3, [r2, #20]
	.loc 1 323 3 view .LVU99
	ldr	r3, [r2, #20]
	bic	r3, r3, #32768
	str	r3, [r2, #20]
	.loc 1 327 3 view .LVU100
	.loc 1 327 12 is_stmt 0 view .LVU101
	ldr	r3, .L47+4
	ldrb	r3, [r3, #8]	@ zero_extendqisi2
	uxtb	r3, r3
	.loc 1 327 5 view .LVU102
	cmp	r3, #4
	beq	.L41
.L27:
	.loc 1 333 3 is_stmt 1 view .LVU103
	.loc 1 333 17 is_stmt 0 view .LVU104
	ldr	r3, .L47
	ldr	r3, [r3, #16]
	.loc 1 333 9 view .LVU105
	movw	r2, #50170
.LVL22:
	.loc 1 335 3 is_stmt 1 view .LVU106
	.loc 1 335 6 is_stmt 0 view .LVU107
	ands	r3, r3, r2
.LVL23:
	.loc 1 335 6 view .LVU108
	beq	.L28
	.loc 1 338 5 is_stmt 1 view .LVU109
	.loc 1 338 11 is_stmt 0 view .LVU110
	ldr	r1, .L47+4
	ldr	r2, [r1, #4]
	.loc 1 338 22 view .LVU111
	orrs	r2, r2, r3
	str	r2, [r1, #4]
	.loc 1 341 5 is_stmt 1 view .LVU112
	.loc 1 341 5 view .LVU113
	.loc 1 341 5 view .LVU114
	.loc 1 341 5 view .LVU115
	ldr	r2, .L47
	str	r3, [r2, #16]
	.loc 1 341 5 view .LVU116
	.loc 1 344 5 view .LVU117
	bl	FLASH_FlushCaches
.LVL24:
	.loc 1 347 5 view .LVU118
	.loc 1 347 15 is_stmt 0 view .LVU119
	ldr	r3, .L47+4
	ldrb	r3, [r3, #8]	@ zero_extendqisi2
	uxtb	r3, r3
.LVL25:
	.loc 1 348 5 is_stmt 1 view .LVU120
	.loc 1 348 7 is_stmt 0 view .LVU121
	cmp	r3, #1
	beq	.L42
	.loc 1 352 10 is_stmt 1 view .LVU122
	.loc 1 352 12 is_stmt 0 view .LVU123
	cmp	r3, #2
	beq	.L43
	.loc 1 356 10 is_stmt 1 view .LVU124
	.loc 1 356 47 is_stmt 0 view .LVU125
	subs	r3, r3, #3
.LVL26:
	.loc 1 356 47 view .LVU126
	uxtb	r3, r3
.LVL27:
	.loc 1 356 12 view .LVU127
	cmp	r3, #1
	bls	.L44
	.loc 1 363 8 is_stmt 1 view .LVU128
	movs	r0, #0
	bl	HAL_FLASH_OperationErrorCallback
.LVL28:
.L31:
	.loc 1 367 5 view .LVU129
	.loc 1 367 29 is_stmt 0 view .LVU130
	ldr	r3, .L47+4
	movs	r2, #0
	strb	r2, [r3, #8]
.LVL29:
.L28:
	.loc 1 371 3 is_stmt 1 view .LVU131
	.loc 1 371 6 is_stmt 0 view .LVU132
	ldr	r3, .L47
	ldr	r3, [r3, #16]
	.loc 1 371 5 view .LVU133
	tst	r3, #1
	beq	.L34
	.loc 1 374 5 is_stmt 1 discriminator 4 view .LVU134
	.loc 1 374 5 discriminator 4 view .LVU135
	.loc 1 374 5 discriminator 4 view .LVU136
	.loc 1 374 5 discriminator 4 view .LVU137
	ldr	r3, .L47
	movs	r2, #1
	str	r2, [r3, #16]
	.loc 1 374 5 discriminator 4 view .LVU138
	.loc 1 376 5 discriminator 4 view .LVU139
	.loc 1 376 14 is_stmt 0 discriminator 4 view .LVU140
	ldr	r3, .L47+4
	ldrb	r3, [r3, #8]	@ zero_extendqisi2
	uxtb	r3, r3
	.loc 1 376 7 discriminator 4 view .LVU141
	cmp	r3, r2
	bne	.L35
	.loc 1 379 7 is_stmt 1 view .LVU142
	.loc 1 379 13 is_stmt 0 view .LVU143
	ldr	r3, .L47+4
	ldr	r2, [r3, #24]
	.loc 1 379 28 view .LVU144
	subs	r2, r2, #1
	str	r2, [r3, #24]
	.loc 1 382 7 is_stmt 1 view .LVU145
	.loc 1 382 16 is_stmt 0 view .LVU146
	ldr	r3, [r3, #24]
	.loc 1 382 9 view .LVU147
	cbz	r3, .L36
	.loc 1 385 9 is_stmt 1 view .LVU148
	.loc 1 385 48 is_stmt 0 view .LVU149
	ldr	r4, .L47+4
	ldr	r0, [r4, #20]
	.loc 1 385 9 view .LVU150
	bl	HAL_FLASH_EndOfOperationCallback
.LVL30:
	.loc 1 388 9 is_stmt 1 view .LVU151
	.loc 1 388 15 is_stmt 0 view .LVU152
	ldr	r3, [r4, #20]
	.loc 1 388 20 view .LVU153
	adds	r3, r3, #1
	str	r3, [r4, #20]
	.loc 1 389 9 is_stmt 1 view .LVU154
	.loc 1 389 18 is_stmt 0 view .LVU155
	ldr	r0, [r4, #20]
.LVL31:
	.loc 1 390 9 is_stmt 1 view .LVU156
	.loc 1 390 41 is_stmt 0 view .LVU157
	ldr	r1, [r4, #16]
	.loc 1 390 9 view .LVU158
	bl	FLASH_PageErase
.LVL32:
	.loc 1 390 9 view .LVU159
	b	.L34
.LVL33:
.L41:
	.loc 1 329 5 is_stmt 1 view .LVU160
	ldr	r3, [r2, #20]
	bic	r3, r3, #262144
	str	r3, [r2, #20]
	b	.L27
.LVL34:
.L42:
	.loc 1 350 8 view .LVU161
	.loc 1 350 47 is_stmt 0 view .LVU162
	ldr	r3, .L47+4
.LVL35:
	.loc 1 350 47 view .LVU163
	ldr	r0, [r3, #20]
	.loc 1 350 8 view .LVU164
	bl	HAL_FLASH_OperationErrorCallback
.LVL36:
	.loc 1 350 8 view .LVU165
	b	.L31
.LVL37:
.L43:
	.loc 1 354 9 is_stmt 1 view .LVU166
	.loc 1 354 48 is_stmt 0 view .LVU167
	ldr	r3, .L47+4
.LVL38:
	.loc 1 354 48 view .LVU168
	ldr	r0, [r3, #16]
	.loc 1 354 9 view .LVU169
	bl	HAL_FLASH_OperationErrorCallback
.LVL39:
	.loc 1 354 9 view .LVU170
	b	.L31
.LVL40:
.L44:
	.loc 1 359 8 is_stmt 1 view .LVU171
	.loc 1 359 47 is_stmt 0 view .LVU172
	ldr	r3, .L47+4
	ldr	r0, [r3, #12]
	.loc 1 359 8 view .LVU173
	bl	HAL_FLASH_OperationErrorCallback
.LVL41:
	.loc 1 359 8 view .LVU174
	b	.L31
.LVL42:
.L36:
	.loc 1 396 9 is_stmt 1 view .LVU175
	.loc 1 396 21 is_stmt 0 view .LVU176
	ldr	r4, .L47+4
	mov	r3, #-1
	str	r3, [r4, #20]
	.loc 1 397 9 is_stmt 1 view .LVU177
	.loc 1 397 33 is_stmt 0 view .LVU178
	movs	r3, #0
	strb	r3, [r4, #8]
	.loc 1 400 9 is_stmt 1 view .LVU179
	bl	FLASH_FlushCaches
.LVL43:
	.loc 1 403 9 view .LVU180
	.loc 1 403 48 is_stmt 0 view .LVU181
	ldr	r0, [r4, #20]
	.loc 1 403 9 view .LVU182
	bl	HAL_FLASH_EndOfOperationCallback
.LVL44:
	b	.L34
.L35:
	.loc 1 409 7 is_stmt 1 view .LVU183
	bl	FLASH_FlushCaches
.LVL45:
	.loc 1 411 7 view .LVU184
	.loc 1 411 17 is_stmt 0 view .LVU185
	ldr	r3, .L47+4
	ldrb	r3, [r3, #8]	@ zero_extendqisi2
	uxtb	r3, r3
.LVL46:
	.loc 1 412 7 is_stmt 1 view .LVU186
	.loc 1 412 9 is_stmt 0 view .LVU187
	cmp	r3, #2
	beq	.L45
	.loc 1 418 12 is_stmt 1 view .LVU188
	.loc 1 418 49 is_stmt 0 view .LVU189
	subs	r3, r3, #3
.LVL47:
	.loc 1 418 49 view .LVU190
	uxtb	r3, r3
.LVL48:
	.loc 1 418 14 view .LVU191
	cmp	r3, #1
	bls	.L46
.LVL49:
.L38:
	.loc 1 428 7 is_stmt 1 view .LVU192
	.loc 1 431 7 view .LVU193
	.loc 1 431 31 is_stmt 0 view .LVU194
	ldr	r3, .L47+4
	movs	r2, #0
	strb	r2, [r3, #8]
.LVL50:
.L34:
	.loc 1 435 3 is_stmt 1 view .LVU195
	.loc 1 435 12 is_stmt 0 view .LVU196
	ldr	r3, .L47+4
	ldrb	r3, [r3, #8]	@ zero_extendqisi2
	.loc 1 435 5 view .LVU197
	cbnz	r3, .L26
	.loc 1 438 5 is_stmt 1 discriminator 4 view .LVU198
	.loc 1 438 5 discriminator 4 view .LVU199
	.loc 1 438 5 discriminator 4 view .LVU200
	.loc 1 438 5 discriminator 4 view .LVU201
	ldr	r2, .L47
	ldr	r3, [r2, #20]
	bic	r3, r3, #50331648
	str	r3, [r2, #20]
	.loc 1 438 5 discriminator 4 view .LVU202
	.loc 1 441 5 discriminator 4 view .LVU203
	.loc 1 441 5 discriminator 4 view .LVU204
	ldr	r3, .L47+4
	movs	r2, #0
	strb	r2, [r3]
	.loc 1 441 5 discriminator 4 view .LVU205
.L26:
	.loc 1 443 1 is_stmt 0 view .LVU206
	pop	{r4, pc}
.LVL51:
.L45:
	.loc 1 416 9 is_stmt 1 view .LVU207
	.loc 1 416 48 is_stmt 0 view .LVU208
	ldr	r3, .L47+4
.LVL52:
	.loc 1 416 48 view .LVU209
	ldr	r0, [r3, #16]
	.loc 1 416 9 view .LVU210
	bl	HAL_FLASH_EndOfOperationCallback
.LVL53:
	.loc 1 416 9 view .LVU211
	b	.L38
.LVL54:
.L46:
	.loc 1 423 9 is_stmt 1 view .LVU212
	.loc 1 423 48 is_stmt 0 view .LVU213
	ldr	r3, .L47+4
	ldr	r0, [r3, #12]
	.loc 1 423 9 view .LVU214
	bl	HAL_FLASH_EndOfOperationCallback
.LVL55:
	.loc 1 423 9 view .LVU215
	b	.L38
.L48:
	.align	2
.L47:
	.word	1073881088
	.word	pFlash
	.cfi_endproc
.LFE76:
	.size	HAL_FLASH_IRQHandler, .-HAL_FLASH_IRQHandler
	.section	.text.HAL_FLASH_Unlock,"ax",%progbits
	.align	1
	.global	HAL_FLASH_Unlock
	.syntax unified
	.thumb
	.thumb_func
	.type	HAL_FLASH_Unlock, %function
HAL_FLASH_Unlock:
.LFB79:
	.loc 1 506 1 is_stmt 1 view -0
	.cfi_startproc
	@ args = 0, pretend = 0, frame = 0
	@ frame_needed = 0, uses_anonymous_args = 0
	@ link register save eliminated.
	.loc 1 507 3 view .LVU217
.LVL56:
	.loc 1 509 3 view .LVU218
	.loc 1 509 6 is_stmt 0 view .LVU219
	ldr	r3, .L54
	ldr	r3, [r3, #20]
	.loc 1 509 5 view .LVU220
	cmp	r3, #0
	blt	.L53
	.loc 1 507 21 view .LVU221
	movs	r0, #0
	bx	lr
.L53:
	.loc 1 512 5 is_stmt 1 view .LVU222
	ldr	r3, .L54
	ldr	r2, .L54+4
	str	r2, [r3, #8]
	.loc 1 513 5 view .LVU223
	add	r2, r2, #-2004318072
	str	r2, [r3, #8]
	.loc 1 516 5 view .LVU224
	.loc 1 516 8 is_stmt 0 view .LVU225
	ldr	r3, [r3, #20]
	.loc 1 516 7 view .LVU226
	cmp	r3, #0
	blt	.L52
	.loc 1 507 21 view .LVU227
	movs	r0, #0
	bx	lr
.L52:
	.loc 1 518 14 view .LVU228
	movs	r0, #1
.LVL57:
	.loc 1 522 3 is_stmt 1 view .LVU229
	.loc 1 523 1 is_stmt 0 view .LVU230
	bx	lr
.L55:
	.align	2
.L54:
	.word	1073881088
	.word	1164378403
	.cfi_endproc
.LFE79:
	.size	HAL_FLASH_Unlock, .-HAL_FLASH_Unlock
	.section	.text.HAL_FLASH_Lock,"ax",%progbits
	.align	1
	.global	HAL_FLASH_Lock
	.syntax unified
	.thumb
	.thumb_func
	.type	HAL_FLASH_Lock, %function
HAL_FLASH_Lock:
.LFB80:
	.loc 1 530 1 is_stmt 1 view -0
	.cfi_startproc
	@ args = 0, pretend = 0, frame = 0
	@ frame_needed = 0, uses_anonymous_args = 0
	@ link register save eliminated.
	.loc 1 532 3 view .LVU232
	ldr	r2, .L57
	ldr	r3, [r2, #20]
	orr	r3, r3, #-2147483648
	str	r3, [r2, #20]
	.loc 1 534 3 view .LVU233
	.loc 1 535 1 is_stmt 0 view .LVU234
	movs	r0, #0
	bx	lr
.L58:
	.align	2
.L57:
	.word	1073881088
	.cfi_endproc
.LFE80:
	.size	HAL_FLASH_Lock, .-HAL_FLASH_Lock
	.section	.text.HAL_FLASH_OB_Unlock,"ax",%progbits
	.align	1
	.global	HAL_FLASH_OB_Unlock
	.syntax unified
	.thumb
	.thumb_func
	.type	HAL_FLASH_OB_Unlock, %function
HAL_FLASH_OB_Unlock:
.LFB81:
	.loc 1 542 1 is_stmt 1 view -0
	.cfi_startproc
	@ args = 0, pretend = 0, frame = 0
	@ frame_needed = 0, uses_anonymous_args = 0
	@ link register save eliminated.
	.loc 1 543 3 view .LVU236
	.loc 1 543 6 is_stmt 0 view .LVU237
	ldr	r3, .L62
	ldr	r3, [r3, #20]
	.loc 1 543 5 view .LVU238
	tst	r3, #1073741824
	beq	.L61
	.loc 1 546 5 is_stmt 1 view .LVU239
	ldr	r3, .L62
	ldr	r2, .L62+4
	str	r2, [r3, #12]
	.loc 1 547 5 view .LVU240
	add	r2, r2, #1145324612
	str	r2, [r3, #12]
	.loc 1 554 3 view .LVU241
	.loc 1 554 10 is_stmt 0 view .LVU242
	movs	r0, #0
	bx	lr
.L61:
	.loc 1 551 12 view .LVU243
	movs	r0, #1
	.loc 1 555 1 view .LVU244
	bx	lr
.L63:
	.align	2
.L62:
	.word	1073881088
	.word	135866939
	.cfi_endproc
.LFE81:
	.size	HAL_FLASH_OB_Unlock, .-HAL_FLASH_OB_Unlock
	.section	.text.HAL_FLASH_OB_Lock,"ax",%progbits
	.align	1
	.global	HAL_FLASH_OB_Lock
	.syntax unified
	.thumb
	.thumb_func
	.type	HAL_FLASH_OB_Lock, %function
HAL_FLASH_OB_Lock:
.LFB82:
	.loc 1 562 1 is_stmt 1 view -0
	.cfi_startproc
	@ args = 0, pretend = 0, frame = 0
	@ frame_needed = 0, uses_anonymous_args = 0
	@ link register save eliminated.
	.loc 1 564 3 view .LVU246
	ldr	r2, .L65
	ldr	r3, [r2, #20]
	orr	r3, r3, #1073741824
	str	r3, [r2, #20]
	.loc 1 566 3 view .LVU247
	.loc 1 567 1 is_stmt 0 view .LVU248
	movs	r0, #0
	bx	lr
.L66:
	.align	2
.L65:
	.word	1073881088
	.cfi_endproc
.LFE82:
	.size	HAL_FLASH_OB_Lock, .-HAL_FLASH_OB_Lock
	.section	.text.HAL_FLASH_GetError,"ax",%progbits
	.align	1
	.global	HAL_FLASH_GetError
	.syntax unified
	.thumb
	.thumb_func
	.type	HAL_FLASH_GetError, %function
HAL_FLASH_GetError:
.LFB84:
	.loc 1 623 1 is_stmt 1 view -0
	.cfi_startproc
	@ args = 0, pretend = 0, frame = 0
	@ frame_needed = 0, uses_anonymous_args = 0
	@ link register save eliminated.
	.loc 1 624 4 view .LVU250
	.loc 1 624 17 is_stmt 0 view .LVU251
	ldr	r3, .L68
	ldr	r0, [r3, #4]
	.loc 1 625 1 view .LVU252
	bx	lr
.L69:
	.align	2
.L68:
	.word	pFlash
	.cfi_endproc
.LFE84:
	.size	HAL_FLASH_GetError, .-HAL_FLASH_GetError
	.section	.text.FLASH_WaitForLastOperation,"ax",%progbits
	.align	1
	.global	FLASH_WaitForLastOperation
	.syntax unified
	.thumb
	.thumb_func
	.type	FLASH_WaitForLastOperation, %function
FLASH_WaitForLastOperation:
.LVL58:
.LFB85:
	.loc 1 647 1 is_stmt 1 view -0
	.cfi_startproc
	@ args = 0, pretend = 0, frame = 0
	@ frame_needed = 0, uses_anonymous_args = 0
	.loc 1 647 1 is_stmt 0 view .LVU254
	push	{r3, r4, r5, lr}
.LCFI4:
	.cfi_def_cfa_offset 16
	.cfi_offset 3, -16
	.cfi_offset 4, -12
	.cfi_offset 5, -8
	.cfi_offset 14, -4
	mov	r4, r0
	.loc 1 652 3 is_stmt 1 view .LVU255
	.loc 1 652 24 is_stmt 0 view .LVU256
	bl	HAL_GetTick
.LVL59:
	.loc 1 652 24 view .LVU257
	mov	r5, r0
.LVL60:
	.loc 1 653 3 is_stmt 1 view .LVU258
	.loc 1 655 3 view .LVU259
.L72:
	.loc 1 655 9 view .LVU260
	ldr	r3, .L82
	ldr	r3, [r3, #16]
	tst	r3, #65536
	beq	.L80
	.loc 1 657 5 view .LVU261
	.loc 1 657 7 is_stmt 0 view .LVU262
	cmp	r4, #-1
	beq	.L72
	.loc 1 659 7 is_stmt 1 view .LVU263
	.loc 1 659 11 is_stmt 0 view .LVU264
	bl	HAL_GetTick
.LVL61:
	.loc 1 659 25 view .LVU265
	subs	r0, r0, r5
	.loc 1 659 9 view .LVU266
	cmp	r0, r4
	bcc	.L72
	.loc 1 661 16 view .LVU267
	movs	r0, #3
	b	.L73
.L80:
	.loc 1 666 3 is_stmt 1 view .LVU268
	.loc 1 666 17 is_stmt 0 view .LVU269
	ldr	r3, .L82
	ldr	r3, [r3, #16]
	.loc 1 666 9 view .LVU270
	movw	r2, #50170
.LVL62:
	.loc 1 668 3 is_stmt 1 view .LVU271
	.loc 1 668 5 is_stmt 0 view .LVU272
	ands	r3, r3, r2
.LVL63:
	.loc 1 668 5 view .LVU273
	bne	.L81
	.loc 1 680 3 is_stmt 1 view .LVU274
	.loc 1 680 7 is_stmt 0 view .LVU275
	ldr	r3, .L82
.LVL64:
	.loc 1 680 7 view .LVU276
	ldr	r3, [r3, #16]
	.loc 1 680 6 view .LVU277
	tst	r3, #1
	beq	.L78
	.loc 1 683 5 is_stmt 1 discriminator 4 view .LVU278
	.loc 1 683 5 discriminator 4 view .LVU279
	.loc 1 683 5 discriminator 4 view .LVU280
	.loc 1 683 5 discriminator 4 view .LVU281
	ldr	r3, .L82
	movs	r2, #1
	str	r2, [r3, #16]
	.loc 1 687 10 is_stmt 0 discriminator 4 view .LVU282
	movs	r0, #0
	b	.L73
.LVL65:
.L81:
	.loc 1 671 5 is_stmt 1 view .LVU283
	.loc 1 671 11 is_stmt 0 view .LVU284
	ldr	r1, .L82+4
	ldr	r2, [r1, #4]
	.loc 1 671 22 view .LVU285
	orrs	r2, r2, r3
	str	r2, [r1, #4]
	.loc 1 674 5 is_stmt 1 view .LVU286
	.loc 1 674 5 view .LVU287
	.loc 1 674 5 view .LVU288
	.loc 1 674 5 view .LVU289
	ldr	r2, .L82
	str	r3, [r2, #16]
	.loc 1 674 5 view .LVU290
	.loc 1 676 5 view .LVU291
	.loc 1 676 12 is_stmt 0 view .LVU292
	movs	r0, #1
.LVL66:
.L73:
	.loc 1 688 1 view .LVU293
	pop	{r3, r4, r5, pc}
.LVL67:
.L78:
	.loc 1 687 10 view .LVU294
	movs	r0, #0
	b	.L73
.L83:
	.align	2
.L82:
	.word	1073881088
	.word	pFlash
	.cfi_endproc
.LFE85:
	.size	FLASH_WaitForLastOperation, .-FLASH_WaitForLastOperation
	.section	.text.HAL_FLASH_Program,"ax",%progbits
	.align	1
	.global	HAL_FLASH_Program
	.syntax unified
	.thumb
	.thumb_func
	.type	HAL_FLASH_Program, %function
HAL_FLASH_Program:
.LVL68:
.LFB74:
	.loc 1 170 1 is_stmt 1 view -0
	.cfi_startproc
	@ args = 0, pretend = 0, frame = 0
	@ frame_needed = 0, uses_anonymous_args = 0
	.loc 1 170 1 is_stmt 0 view .LVU296
	push	{r4, r5, r6, r7, r8, lr}
.LCFI5:
	.cfi_def_cfa_offset 24
	.cfi_offset 4, -24
	.cfi_offset 5, -20
	.cfi_offset 6, -16
	.cfi_offset 7, -12
	.cfi_offset 8, -8
	.cfi_offset 14, -4
	mov	r6, r2
	.loc 1 171 3 is_stmt 1 view .LVU297
	.loc 1 172 3 view .LVU298
.LVL69:
	.loc 1 175 3 view .LVU299
	.loc 1 175 3 view .LVU300
	ldr	r2, .L98
.LVL70:
	.loc 1 175 3 is_stmt 0 view .LVU301
	ldrb	r2, [r2]	@ zero_extendqisi2
	cmp	r2, #1
	beq	.L92
	mov	r4, r0
	mov	r5, r1
	mov	r8, r3
	.loc 1 175 3 is_stmt 1 discriminator 2 view .LVU302
	ldr	r3, .L98
	movs	r2, #1
	strb	r2, [r3]
	.loc 1 175 3 discriminator 2 view .LVU303
	.loc 1 178 3 discriminator 2 view .LVU304
	.loc 1 181 3 discriminator 2 view .LVU305
	.loc 1 181 12 is_stmt 0 discriminator 2 view .LVU306
	movw	r0, #50000
.LVL71:
	.loc 1 181 12 discriminator 2 view .LVU307
	bl	FLASH_WaitForLastOperation
.LVL72:
	.loc 1 183 3 is_stmt 1 discriminator 2 view .LVU308
	.loc 1 183 5 is_stmt 0 discriminator 2 view .LVU309
	mov	r7, r0
	cbnz	r0, .L86
	.loc 1 185 5 is_stmt 1 view .LVU310
	.loc 1 185 22 is_stmt 0 view .LVU311
	ldr	r3, .L98
	movs	r2, #0
	str	r2, [r3, #4]
	.loc 1 188 5 is_stmt 1 view .LVU312
	.loc 1 188 8 is_stmt 0 view .LVU313
	ldr	r3, .L98+4
	ldr	r3, [r3]
	.loc 1 188 7 view .LVU314
	tst	r3, #1024
	beq	.L87
	.loc 1 191 7 is_stmt 1 view .LVU315
	ldr	r2, .L98+4
	ldr	r3, [r2]
	bic	r3, r3, #1024
	str	r3, [r2]
	.loc 1 192 7 view .LVU316
	.loc 1 192 32 is_stmt 0 view .LVU317
	ldr	r3, .L98
	movs	r2, #2
	strb	r2, [r3, #28]
.L88:
	.loc 1 199 5 is_stmt 1 view .LVU318
	.loc 1 199 7 is_stmt 0 view .LVU319
	cbz	r4, .L96
	.loc 1 205 10 is_stmt 1 view .LVU320
	.loc 1 205 53 is_stmt 0 view .LVU321
	subs	r3, r4, #1
	.loc 1 205 12 view .LVU322
	cmp	r3, #1
	bls	.L97
	.loc 1 172 12 view .LVU323
	movs	r4, #0
.LVL73:
.L90:
	.loc 1 219 5 is_stmt 1 view .LVU324
	.loc 1 222 5 view .LVU325
	.loc 1 222 14 is_stmt 0 view .LVU326
	movw	r0, #50000
	bl	FLASH_WaitForLastOperation
.LVL74:
	mov	r7, r0
.LVL75:
	.loc 1 225 5 is_stmt 1 view .LVU327
	.loc 1 225 8 is_stmt 0 view .LVU328
	cbz	r4, .L91
	.loc 1 227 7 is_stmt 1 view .LVU329
	ldr	r2, .L98+4
	ldr	r3, [r2, #20]
	bic	r3, r3, r4
	str	r3, [r2, #20]
.L91:
	.loc 1 231 5 view .LVU330
	bl	FLASH_FlushCaches
.LVL76:
.L86:
	.loc 1 235 3 view .LVU331
	.loc 1 235 3 view .LVU332
	ldr	r3, .L98
	movs	r2, #0
	strb	r2, [r3]
	.loc 1 235 3 view .LVU333
	.loc 1 237 3 view .LVU334
.LVL77:
.L85:
	.loc 1 238 1 is_stmt 0 view .LVU335
	mov	r0, r7
	pop	{r4, r5, r6, r7, r8, pc}
.LVL78:
.L87:
	.loc 1 196 7 is_stmt 1 view .LVU336
	.loc 1 196 32 is_stmt 0 view .LVU337
	ldr	r3, .L98
	movs	r2, #0
	strb	r2, [r3, #28]
	b	.L88
.L96:
	.loc 1 202 7 is_stmt 1 view .LVU338
	mov	r2, r6
	mov	r3, r8
	mov	r0, r5
.LVL79:
	.loc 1 202 7 is_stmt 0 view .LVU339
	bl	FLASH_Program_DoubleWord
.LVL80:
	.loc 1 203 7 is_stmt 1 view .LVU340
	.loc 1 203 16 is_stmt 0 view .LVU341
	movs	r4, #1
.LVL81:
	.loc 1 203 16 view .LVU342
	b	.L90
.LVL82:
.L97:
	.loc 1 208 7 is_stmt 1 view .LVU343
	mov	r1, r6
	mov	r0, r5
.LVL83:
	.loc 1 208 7 is_stmt 0 view .LVU344
	bl	FLASH_Program_Fast
.LVL84:
	.loc 1 211 7 is_stmt 1 view .LVU345
	.loc 1 211 9 is_stmt 0 view .LVU346
	cmp	r4, #2
	beq	.L94
	.loc 1 172 12 view .LVU347
	movs	r4, #0
.LVL85:
	.loc 1 172 12 view .LVU348
	b	.L90
.LVL86:
.L94:
	.loc 1 213 18 view .LVU349
	mov	r4, #262144
.LVL87:
	.loc 1 213 18 view .LVU350
	b	.L90
.LVL88:
.L92:
	.loc 1 175 3 view .LVU351
	movs	r7, #2
	b	.L85
.L99:
	.align	2
.L98:
	.word	pFlash
	.word	1073881088
	.cfi_endproc
.LFE74:
	.size	HAL_FLASH_Program, .-HAL_FLASH_Program
	.section	.text.HAL_FLASH_OB_Launch,"ax",%progbits
	.align	1
	.global	HAL_FLASH_OB_Launch
	.syntax unified
	.thumb
	.thumb_func
	.type	HAL_FLASH_OB_Launch, %function
HAL_FLASH_OB_Launch:
.LFB83:
	.loc 1 574 1 is_stmt 1 view -0
	.cfi_startproc
	@ args = 0, pretend = 0, frame = 0
	@ frame_needed = 0, uses_anonymous_args = 0
	push	{r3, lr}
.LCFI6:
	.cfi_def_cfa_offset 8
	.cfi_offset 3, -8
	.cfi_offset 14, -4
	.loc 1 576 3 view .LVU353
	ldr	r2, .L102
	ldr	r3, [r2, #20]
	orr	r3, r3, #134217728
	str	r3, [r2, #20]
	.loc 1 579 3 view .LVU354
	.loc 1 579 10 is_stmt 0 view .LVU355
	movw	r0, #50000
	bl	FLASH_WaitForLastOperation
.LVL89:
	.loc 1 580 1 view .LVU356
	pop	{r3, pc}
.L103:
	.align	2
.L102:
	.word	1073881088
	.cfi_endproc
.LFE83:
	.size	HAL_FLASH_OB_Launch, .-HAL_FLASH_OB_Launch
	.global	pFlash
	.section	.data.pFlash,"aw"
	.align	2
	.type	pFlash, %object
	.size	pFlash, 32
pFlash:
	.byte	0
	.space	3
	.word	0
	.byte	0
	.space	3
	.word	0
	.word	1
	.word	0
	.word	0
	.byte	0
	.space	3
	.text
.Letext0:
	.file 3 "/home/emanuele/st/stm32cubeide_1.15.0/plugins/com.st.stm32cube.ide.mcu.externaltools.gnu-tools-for-stm32.12.3.rel1.linux64_1.0.200.202406132123/tools/arm-none-eabi/include/machine/_default_types.h"
	.file 4 "/home/emanuele/st/stm32cubeide_1.15.0/plugins/com.st.stm32cube.ide.mcu.externaltools.gnu-tools-for-stm32.12.3.rel1.linux64_1.0.200.202406132123/tools/arm-none-eabi/include/sys/_stdint.h"
	.file 5 "../Drivers/CMSIS/Device/ST/STM32L4xx/Include/stm32l475xx.h"
	.file 6 "../Drivers/STM32L4xx_HAL_Driver/Inc/stm32l4xx_hal_def.h"
	.file 7 "../Drivers/STM32L4xx_HAL_Driver/Inc/stm32l4xx_hal_flash.h"
	.file 8 "../Drivers/STM32L4xx_HAL_Driver/Inc/stm32l4xx_hal.h"
	.file 9 "../Drivers/STM32L4xx_HAL_Driver/Inc/stm32l4xx_hal_flash_ex.h"