	.cpu cortex-m3
	.arch armv7-m
	.fpu softvfp
	.eabi_attribute 20, 1
	.eabi_attribute 21, 1
	.eabi_attribute 23, 3
	.eabi_attribute 24, 1
	.eabi_attribute 25, 1
	.eabi_attribute 26, 1
	.eabi_attribute 30, 1
	.eabi_attribute 34, 1
	.eabi_attribute 18, 4
	.file	"stm32l4xx_hal_pwr_ex.c"
	.text
.Ltext0:
	.cfi_sections	.debug_frame
	.file 1 "../Drivers/STM32L4xx_HAL_Driver/Src/stm32l4xx_hal_pwr_ex.c"
	.section	.text.HAL_PWREx_GetVoltageRange,"ax",%progbits
	.align	1
	.global	HAL_PWREx_GetVoltageRange
	.syntax unified
	.thumb
	.thumb_func
	.type	HAL_PWREx_GetVoltageRange, %function
HAL_PWREx_GetVoltageRange:
.LFB74:
	.loc 1 115 1 view -0
	.cfi_startproc
	@ args = 0, pretend = 0, frame = 0
	@ frame_needed = 0, uses_anonymous_args = 0
	@ link register save eliminated.
	.loc 1 131 3 view .LVU1
	.loc 1 131 15 is_stmt 0 view .LVU2
	ldr	r3, .L2
	ldr	r0, [r3]
	.loc 1 133 1 view .LVU3
	and	r0, r0, #1536
	bx	lr
.L3:
	.align	2
.L2:
	.word	1073770496
	.cfi_endproc
.LFE74:
	.size	HAL_PWREx_GetVoltageRange, .-HAL_PWREx_GetVoltageRange
	.section	.text.HAL_PWREx_ControlVoltageScaling,"ax",%progbits
	.align	1
	.global	HAL_PWREx_ControlVoltageScaling
	.syntax unified
	.thumb
	.thumb_func
	.type	HAL_PWREx_ControlVoltageScaling, %function
HAL_PWREx_ControlVoltageScaling:
.LVL0:
.LFB75:
	.loc 1 164 1 is_stmt 1 view -0
	.cfi_startproc
	@ args = 0, pretend = 0, frame = 0
	@ frame_needed = 0, uses_anonymous_args = 0
	@ link register save eliminated.
	.loc 1 165 3 view .LVU5
	.loc 1 167 3 view .LVU6
	.loc 1 239 3 view .LVU7
	.loc 1 239 6 is_stmt 0 view .LVU8
	cmp	r0, #512
	beq	.L13
	.loc 1 260 5 is_stmt 1 view .LVU9
	.loc 1 260 9 is_stmt 0 view .LVU10
	ldr	r3, .L14
	ldr	r3, [r3]
	and	r3, r3, #1536
	.loc 1 260 8 view .LVU11
	cmp	r3, #1024
	beq	.L12
	.loc 1 263 7 is_stmt 1 view .LVU12
	ldr	r2, .L14
	ldr	r3, [r2]
	bic	r3, r3, #1536
	orr	r3, r3, #1024
	str	r3, [r2]
	.loc 1 269 10 is_stmt 0 view .LVU13
	movs	r0, #0
.LVL1:
	.loc 1 269 10 view .LVU14
	bx	lr
.LVL2:
.L13:
	.loc 1 241 5 is_stmt 1 view .LVU15
	.loc 1 241 9 is_stmt 0 view .LVU16
	ldr	r3, .L14
	ldr	r3, [r3]
	and	r3, r3, #1536
	.loc 1 241 8 view .LVU17
	cmp	r3, #512
	beq	.L10
	.loc 1 244 7 is_stmt 1 view .LVU18
	ldr	r2, .L14
	ldr	r3, [r2]
	bic	r3, r3, #1536
	orr	r3, r3, #512
	str	r3, [r2]
	.loc 1 247 7 view .LVU19
	.loc 1 247 53 is_stmt 0 view .LVU20
	ldr	r3, .L14+4
	ldr	r3, [r3]
	movs	r2, #50
	mul	r3, r2, r3
	.loc 1 247 72 view .LVU21
	ldr	r2, .L14+8
	umull	r2, r3, r2, r3
	lsrs	r3, r3, #18
	.loc 1 247 23 view .LVU22
	adds	r3, r3, #1
.LVL3:
	.loc 1 248 7 is_stmt 1 view .LVU23
	.loc 1 248 13 is_stmt 0 view .LVU24
	b	.L7
.L9:
	.loc 1 250 9 is_stmt 1 view .LVU25
	.loc 1 250 24 is_stmt 0 view .LVU26
	subs	r3, r3, #1
.LVL4:
.L7:
	.loc 1 248 55 is_stmt 1 view .LVU27
	.loc 1 248 15 is_stmt 0 view .LVU28
	ldr	r2, .L14
	ldr	r2, [r2, #20]
	.loc 1 248 55 view .LVU29
	tst	r2, #1024
	beq	.L8
	.loc 1 248 55 discriminator 1 view .LVU30
	cmp	r3, #0
	bne	.L9
.L8:
	.loc 1 252 7 is_stmt 1 view .LVU31
	.loc 1 252 11 is_stmt 0 view .LVU32
	ldr	r3, .L14
.LVL5:
	.loc 1 252 11 view .LVU33
	ldr	r3, [r3, #20]
	.loc 1 252 10 view .LVU34
	tst	r3, #1024
	bne	.L11
	.loc 1 269 10 view .LVU35
	movs	r0, #0
.LVL6:
	.loc 1 269 10 view .LVU36
	bx	lr
.LVL7:
.L10:
	.loc 1 269 10 view .LVU37
	movs	r0, #0
.LVL8:
	.loc 1 269 10 view .LVU38
	bx	lr
.LVL9:
.L11:
	.loc 1 254 16 view .LVU39
	movs	r0, #3
.LVL10:
	.loc 1 254 16 view .LVU40
	bx	lr
.LVL11:
.L12:
	.loc 1 269 10 view .LVU41
	movs	r0, #0
.LVL12:
	.loc 1 270 1 view .LVU42
	bx	lr
.L15:
	.align	2
.L14:
	.word	1073770496
	.word	SystemCoreClock
	.word	1125899907
	.cfi_endproc
.LFE75:
	.size	HAL_PWREx_ControlVoltageScaling, .-HAL_PWREx_ControlVoltageScaling
	.section	.text.HAL_PWREx_EnableBatteryCharging,"ax",%progbits
	.align	1
	.global	HAL_PWREx_EnableBatteryCharging
	.syntax unified
	.thumb
	.thumb_func
	.type	HAL_PWREx_EnableBatteryCharging, %function
HAL_PWREx_EnableBatteryCharging:
.LVL13:
.LFB76:
	.loc 1 283 1 is_stmt 1 view -0
	.cfi_startproc
	@ args = 0, pretend = 0, frame = 0
	@ frame_needed = 0, uses_anonymous_args = 0
	@ link register save eliminated.
	.loc 1 284 3 view .LVU44
	.loc 1 287 3 view .LVU45
	ldr	r2, .L17
	ldr	r3, [r2, #12]
	bic	r3, r3, #512
	orrs	r3, r3, r0
	str	r3, [r2, #12]
	.loc 1 290 3 view .LVU46
	ldr	r3, [r2, #12]
	orr	r3, r3, #256
	str	r3, [r2, #12]
	.loc 1 291 1 is_stmt 0 view .LVU47
	bx	lr
.L18:
	.align	2
.L17:
	.word	1073770496
	.cfi_endproc
.LFE76:
	.size	HAL_PWREx_EnableBatteryCharging, .-HAL_PWREx_EnableBatteryCharging
	.section	.text.HAL_PWREx_DisableBatteryCharging,"ax",%progbits
	.align	1
	.global	HAL_PWREx_DisableBatteryCharging
	.syntax unified
	.thumb
	.thumb_func
	.type	HAL_PWREx_DisableBatteryCharging, %function
HAL_PWREx_DisableBatteryCharging:
.LFB77:
	.loc 1 299 1 is_stmt 1 view -0
	.cfi_startproc
	@ args = 0, pretend = 0, frame = 0
	@ frame_needed = 0, uses_anonymous_args = 0
	@ link register save eliminated.
	.loc 1 300 3 view .LVU49
	ldr	r2, .L20
	ldr	r3, [r2, #12]
	bic	r3, r3, #256
	str	r3, [r2, #12]
	.loc 1 301 1 is_stmt 0 view .LVU50
	bx	lr
.L21:
	.align	2
.L20:
	.word	1073770496
	.cfi_endproc
.LFE77:
	.size	HAL_PWREx_DisableBatteryCharging, .-HAL_PWREx_DisableBatteryCharging
	.section	.text.HAL_PWREx_EnableVddUSB,"ax",%progbits
	.align	1
	.global	HAL_PWREx_EnableVddUSB
	.syntax unified
	.thumb
	.thumb_func
	.type	HAL_PWREx_EnableVddUSB, %function
HAL_PWREx_EnableVddUSB:
.LFB78:
	.loc 1 311 1 is_stmt 1 view -0
	.cfi_startproc
	@ args = 0, pretend = 0, frame = 0
	@ frame_needed = 0, uses_anonymous_args = 0
	@ link register save eliminated.
	.loc 1 312 3 view .LVU52
	ldr	r2, .L23
	ldr	r3, [r2, #4]
	orr	r3, r3, #1024
	str	r3, [r2, #4]
	.loc 1 313 1 is_stmt 0 view .LVU53
	bx	lr
.L24:
	.align	2
.L23:
	.word	1073770496
	.cfi_endproc
.LFE78:
	.size	HAL_PWREx_EnableVddUSB, .-HAL_PWREx_EnableVddUSB
	.section	.text.HAL_PWREx_DisableVddUSB,"ax",%progbits
	.align	1
	.global	HAL_PWREx_DisableVddUSB
	.syntax unified
	.thumb
	.thumb_func
	.type	HAL_PWREx_DisableVddUSB, %function
HAL_PWREx_DisableVddUSB:
.LFB79:
	.loc 1 321 1 is_stmt 1 view -0
	.cfi_startproc
	@ args = 0, pretend = 0, frame = 0
	@ frame_needed = 0, uses_anonymous_args = 0
	@ link register save eliminated.
	.loc 1 322 3 view .LVU55
	ldr	r2, .L26
	ldr	r3, [r2, #4]
	bic	r3, r3, #1024
	str	r3, [r2, #4]
	.loc 1 323 1 is_stmt 0 view .LVU56
	bx	lr
.L27:
	.align	2
.L26:
	.word	1073770496
	.cfi_endproc
.LFE79:
	.size	HAL_PWREx_DisableVddUSB, .-HAL_PWREx_DisableVddUSB
	.section	.text.HAL_PWREx_EnableVddIO2,"ax",%progbits
	.align	1
	.global	HAL_PWREx_EnableVddIO2
	.syntax unified
	.thumb
	.thumb_func
	.type	HAL_PWREx_EnableVddIO2, %function
HAL_PWREx_EnableVddIO2:
.LFB80:
	.loc 1 333 1 is_stmt 1 view -0
	.cfi_startproc
	@ args = 0, pretend = 0, frame = 0
	@ frame_needed = 0, uses_anonymous_args = 0
	@ link register save eliminated.
	.loc 1 334 3 view .LVU58
	ldr	r2, .L29
	ldr	r3, [r2, #4]
	orr	r3, r3, #512
	str	r3, [r2, #4]
	.loc 1 335 1 is_stmt 0 view .LVU59
	bx	lr
.L30:
	.align	2
.L29:
	.word	1073770496
	.cfi_endproc
.LFE80:
	.size	HAL_PWREx_EnableVddIO2, .-HAL_PWREx_EnableVddIO2
	.section	.text.HAL_PWREx_DisableVddIO2,"ax",%progbits
	.align	1
	.global	HAL_PWREx_DisableVddIO2
	.syntax unified
	.thumb
	.thumb_func
	.type	HAL_PWREx_DisableVddIO2, %function
HAL_PWREx_DisableVddIO2:
.LFB81:
	.loc 1 343 1 is_stmt 1 view -0
	.cfi_startproc
	@ args = 0, pretend = 0, frame = 0
	@ frame_needed = 0, uses_anonymous_args = 0
	@ link register save eliminated.
	.loc 1 344 3 view .LVU61
	ldr	r2, .L32
	ldr	r3, [r2, #4]
	bic	r3, r3, #512
	str	r3, [r2, #4]
	.loc 1 345 1 is_stmt 0 view .LVU62
	bx	lr
.L33:
	.align	2
.L32:
	.word	1073770496
	.cfi_endproc
.LFE81:
	.size	HAL_PWREx_DisableVddIO2, .-HAL_PWREx_DisableVddIO2
	.section	.text.HAL_PWREx_EnableInternalWakeUpLine,"ax",%progbits
	.align	1
	.global	HAL_PWREx_EnableInternalWakeUpLine
	.syntax unified
	.thumb
	.thumb_func
	.type	HAL_PWREx_EnableInternalWakeUpLine, %function
HAL_PWREx_EnableInternalWakeUpLine:
.LFB82:
	.loc 1 354 1 is_stmt 1 view -0
	.cfi_startproc
	@ args = 0, pretend = 0, frame = 0
	@ frame_needed = 0, uses_anonymous_args = 0
	@ link register save eliminated.
	.loc 1 355 3 view .LVU64
	ldr	r2, .L35
	ldr	r3, [r2, #8]
	orr	r3, r3, #32768
	str	r3, [r2, #8]
	.loc 1 356 1 is_stmt 0 view .LVU65
	bx	lr
.L36:
	.align	2
.L35:
	.word	1073770496
	.cfi_endproc
.LFE82:
	.size	HAL_PWREx_EnableInternalWakeUpLine, .-HAL_PWREx_EnableInternalWakeUpLine
	.section	.text.HAL_PWREx_DisableInternalWakeUpLine,"ax",%progbits
	.align	1
	.global	HAL_PWREx_DisableInternalWakeUpLine
	.syntax unified
	.thumb
	.thumb_func
	.type	HAL_PWREx_DisableInternalWakeUpLine, %function
HAL_PWREx_DisableInternalWakeUpLine:
.LFB83:
	.loc 1 364 1 is_stmt 1 view -0
	.cfi_startproc
	@ args = 0, pretend = 0, frame = 0
	@ frame_needed = 0, uses_anonymous_args = 0
	@ link register save eliminated.
	.loc 1 365 3 view .LVU67
	ldr	r2, .L38
	ldr	r3, [r2, #8]
	bic	r3, r3, #32768
	str	r3, [r2, #8]
	.loc 1 366 1 is_stmt 0 view .LVU68
	bx	lr
.L39:
	.align	2
.L38:
	.word	1073770496
	.cfi_endproc
.LFE83:
	.size	HAL_PWREx_DisableInternalWakeUpLine, .-HAL_PWREx_DisableInternalWakeUpLine
	.section	.text.HAL_PWREx_EnableGPIOPullUp,"ax",%progbits
	.align	1
	.global	HAL_PWREx_EnableGPIOPullUp
	.syntax unified
	.thumb
	.thumb_func
	.type	HAL_PWREx_EnableGPIOPullUp, %function
HAL_PWREx_EnableGPIOPullUp:
.LVL14:
.LFB84:
	.loc 1 392 1 is_stmt 1 view -0
	.cfi_startproc
	@ args = 0, pretend = 0, frame = 0
	@ frame_needed = 0, uses_anonymous_args = 0
	@ link register save eliminated.
	.loc 1 393 3 view .LVU70
	.loc 1 395 3 view .LVU71
	.loc 1 396 3 view .LVU72
	.loc 1 398 3 view .LVU73
	cmp	r0, #7
	bhi	.L51
	tbb	[pc, r0]
.L43:
	.byte	(.L50-.L43)/2
	.byte	(.L49-.L43)/2
	.byte	(.L48-.L43)/2
	.byte	(.L47-.L43)/2
	.byte	(.L46-.L43)/2
	.byte	(.L45-.L43)/2
	.byte	(.L44-.L43)/2
	.byte	(.L42-.L43)/2
	.p2align 1
.L50:
	.loc 1 401 8 view .LVU74
	ldr	r3, .L52
	ldr	r2, [r3, #32]
	bic	r0, r1, #16384
.LVL15:
	.loc 1 401 8 is_stmt 0 view .LVU75
	orrs	r2, r2, r0
	str	r2, [r3, #32]
	.loc 1 402 8 is_stmt 1 view .LVU76
	ldr	r2, [r3, #36]
	bic	r1, r1, #40960
.LVL16:
	.loc 1 402 8 is_stmt 0 view .LVU77
	bic	r2, r2, r1
	str	r2, [r3, #36]
	.loc 1 403 8 is_stmt 1 view .LVU78
	.loc 1 393 21 is_stmt 0 view .LVU79
	movs	r0, #0
	.loc 1 403 8 view .LVU80
	bx	lr
.LVL17:
.L49:
	.loc 1 405 8 is_stmt 1 view .LVU81
	ldr	r3, .L52
	ldr	r2, [r3, #40]
	orrs	r2, r2, r1
	str	r2, [r3, #40]
	.loc 1 406 8 view .LVU82
	ldr	r2, [r3, #44]
	bic	r1, r1, #16
.LVL18:
	.loc 1 406 8 is_stmt 0 view .LVU83
	bic	r2, r2, r1
	str	r2, [r3, #44]
	.loc 1 407 8 is_stmt 1 view .LVU84
	.loc 1 393 21 is_stmt 0 view .LVU85
	movs	r0, #0
.LVL19:
	.loc 1 407 8 view .LVU86
	bx	lr
.LVL20:
.L48:
	.loc 1 409 8 is_stmt 1 view .LVU87
	ldr	r3, .L52
	ldr	r2, [r3, #48]
	orrs	r2, r2, r1
	str	r2, [r3, #48]
	.loc 1 410 8 view .LVU88
	ldr	r2, [r3, #52]
	bic	r2, r2, r1
	str	r2, [r3, #52]
	.loc 1 411 8 view .LVU89
	.loc 1 393 21 is_stmt 0 view .LVU90
	movs	r0, #0
.LVL21:
	.loc 1 411 8 view .LVU91
	bx	lr
.LVL22:
.L47:
	.loc 1 414 8 is_stmt 1 view .LVU92
	ldr	r3, .L52
	ldr	r2, [r3, #56]
	orrs	r2, r2, r1
	str	r2, [r3, #56]
	.loc 1 415 8 view .LVU93
	ldr	r2, [r3, #60]
	bic	r2, r2, r1
	str	r2, [r3, #60]
	.loc 1 416 8 view .LVU94
	.loc 1 393 21 is_stmt 0 view .LVU95
	movs	r0, #0
.LVL23:
	.loc 1 416 8 view .LVU96
	bx	lr
.LVL24:
.L46:
	.loc 1 420 8 is_stmt 1 view .LVU97
	ldr	r3, .L52
	ldr	r2, [r3, #64]
	orrs	r2, r2, r1
	str	r2, [r3, #64]
	.loc 1 421 8 view .LVU98
	ldr	r2, [r3, #68]
	bic	r2, r2, r1
	str	r2, [r3, #68]
	.loc 1 422 8 view .LVU99
	.loc 1 393 21 is_stmt 0 view .LVU100
	movs	r0, #0
.LVL25:
	.loc 1 422 8 view .LVU101
	bx	lr
.LVL26:
.L45:
	.loc 1 426 8 is_stmt 1 view .LVU102
	ldr	r3, .L52
	ldr	r2, [r3, #72]
	orrs	r2, r2, r1
	str	r2, [r3, #72]
	.loc 1 427 8 view .LVU103
	ldr	r2, [r3, #76]
	bic	r2, r2, r1
	str	r2, [r3, #76]
	.loc 1 428 8 view .LVU104
	.loc 1 393 21 is_stmt 0 view .LVU105
	movs	r0, #0
.LVL27:
	.loc 1 428 8 view .LVU106
	bx	lr
.LVL28:
.L44:
	.loc 1 432 8 is_stmt 1 view .LVU107
	ldr	r3, .L52
	ldr	r2, [r3, #80]
	orrs	r2, r2, r1
	str	r2, [r3, #80]
	.loc 1 433 8 view .LVU108
	ldr	r2, [r3, #84]
	bic	r2, r2, r1
	str	r2, [r3, #84]
	.loc 1 434 8 view .LVU109
	.loc 1 393 21 is_stmt 0 view .LVU110
	movs	r0, #0
.LVL29:
	.loc 1 434 8 view .LVU111
	bx	lr
.LVL30:
.L42:
	.loc 1 437 8 is_stmt 1 view .LVU112
	ldr	r3, .L52
	ldr	r2, [r3, #88]
	and	r1, r1, #3
.LVL31:
	.loc 1 437 8 is_stmt 0 view .LVU113
	orrs	r2, r2, r1
	str	r2, [r3, #88]
	.loc 1 441 8 is_stmt 1 view .LVU114
	ldr	r2, [r3, #92]
	bic	r2, r2, r1
	str	r2, [r3, #92]
	.loc 1 443 8 view .LVU115
	.loc 1 393 21 is_stmt 0 view .LVU116
	movs	r0, #0
.LVL32:
	.loc 1 443 8 view .LVU117
	bx	lr
.LVL33:
.L51:
	.loc 1 398 3 view .LVU118
	movs	r0, #1
.LVL34:
	.loc 1 455 3 is_stmt 1 view .LVU119
	.loc 1 456 1 is_stmt 0 view .LVU120
	bx	lr
.L53:
	.align	2
.L52:
	.word	1073770496
	.cfi_endproc
.LFE84:
	.size	HAL_PWREx_EnableGPIOPullUp, .-HAL_PWREx_EnableGPIOPullUp
	.section	.text.HAL_PWREx_DisableGPIOPullUp,"ax",%progbits
	.align	1
	.global	HAL_PWREx_DisableGPIOPullUp
	.syntax unified
	.thumb
	.thumb_func
	.type	HAL_PWREx_DisableGPIOPullUp, %function
HAL_PWREx_DisableGPIOPullUp:
.LVL35:
.LFB85:
	.loc 1 475 1 is_stmt 1 view -0
	.cfi_startproc
	@ args = 0, pretend = 0, frame = 0
	@ frame_needed = 0, uses_anonymous_args = 0
	@ link register save eliminated.
	.loc 1 476 3 view .LVU122
	.loc 1 478 3 view .LVU123
	.loc 1 479 3 view .LVU124
	.loc 1 481 3 view .LVU125
	cmp	r0, #7
	bhi	.L65
	tbb	[pc, r0]
.L57:
	.byte	(.L64-.L57)/2
	.byte	(.L63-.L57)/2
	.byte	(.L62-.L57)/2
	.byte	(.L61-.L57)/2
	.byte	(.L60-.L57)/2
	.byte	(.L59-.L57)/2
	.byte	(.L58-.L57)/2
	.byte	(.L56-.L57)/2
	.p2align 1
.L64:
	.loc 1 484 8 view .LVU126
	ldr	r2, .L66
	ldr	r3, [r2, #32]
	bic	r1, r1, #16384
.LVL36:
	.loc 1 484 8 is_stmt 0 view .LVU127
	bic	r1, r3, r1
	str	r1, [r2, #32]
	.loc 1 485 8 is_stmt 1 view .LVU128
	.loc 1 476 21 is_stmt 0 view .LVU129
	movs	r0, #0
.LVL37:
	.loc 1 485 8 view .LVU130
	bx	lr
.LVL38:
.L63:
	.loc 1 487 8 is_stmt 1 view .LVU131
	ldr	r2, .L66
	ldr	r3, [r2, #40]
	bic	r3, r3, r1
	str	r3, [r2, #40]
	.loc 1 488 8 view .LVU132
	.loc 1 476 21 is_stmt 0 view .LVU133
	movs	r0, #0
.LVL39:
	.loc 1 488 8 view .LVU134
	bx	lr
.LVL40:
.L62:
	.loc 1 490 8 is_stmt 1 view .LVU135
	ldr	r2, .L66
	ldr	r3, [r2, #48]
	bic	r3, r3, r1
	str	r3, [r2, #48]
	.loc 1 491 8 view .LVU136
	.loc 1 476 21 is_stmt 0 view .LVU137
	movs	r0, #0
.LVL41:
	.loc 1 491 8 view .LVU138
	bx	lr
.LVL42:
.L61:
	.loc 1 494 8 is_stmt 1 view .LVU139
	ldr	r2, .L66
	ldr	r3, [r2, #56]
	bic	r3, r3, r1
	str	r3, [r2, #56]
	.loc 1 495 8 view .LVU140
	.loc 1 476 21 is_stmt 0 view .LVU141
	movs	r0, #0
.LVL43:
	.loc 1 495 8 view .LVU142
	bx	lr
.LVL44:
.L60:
	.loc 1 499 8 is_stmt 1 view .LVU143
	ldr	r2, .L66
	ldr	r3, [r2, #64]
	bic	r3, r3, r1
	str	r3, [r2, #64]
	.loc 1 500 8 view .LVU144
	.loc 1 476 21 is_stmt 0 view .LVU145
	movs	r0, #0
.LVL45:
	.loc 1 500 8 view .LVU146
	bx	lr
.LVL46:
.L59:
	.loc 1 504 8 is_stmt 1 view .LVU147
	ldr	r2, .L66
	ldr	r3, [r2, #72]
	bic	r3, r3, r1
	str	r3, [r2, #72]
	.loc 1 505 8 view .LVU148
	.loc 1 476 21 is_stmt 0 view .LVU149
	movs	r0, #0
.LVL47:
	.loc 1 505 8 view .LVU150
	bx	lr
.LVL48:
.L58:
	.loc 1 509 8 is_stmt 1 view .LVU151
	ldr	r2, .L66
	ldr	r3, [r2, #80]
	bic	r3, r3, r1
	str	r3, [r2, #80]
	.loc 1 510 8 view .LVU152
	.loc 1 476 21 is_stmt 0 view .LVU153
	movs	r0, #0
.LVL49:
	.loc 1 510 8 view .LVU154
	bx	lr
.LVL50:
.L56:
	.loc 1 513 8 is_stmt 1 view .LVU155
	ldr	r2, .L66
	ldr	r3, [r2, #88]
	and	r1, r1, #3
.LVL51:
	.loc 1 513 8 is_stmt 0 view .LVU156
	bic	r3, r3, r1
	str	r3, [r2, #88]
	.loc 1 514 8 is_stmt 1 view .LVU157
	.loc 1 476 21 is_stmt 0 view .LVU158
	movs	r0, #0
.LVL52:
	.loc 1 514 8 view .LVU159
	bx	lr
.LVL53:
.L65:
	.loc 1 481 3 view .LVU160
	movs	r0, #1
.LVL54:
	.loc 1 525 3 is_stmt 1 view .LVU161
	.loc 1 526 1 is_stmt 0 view .LVU162
	bx	lr
.L67:
	.align	2
.L66:
	.word	1073770496
	.cfi_endproc
.LFE85:
	.size	HAL_PWREx_DisableGPIOPullUp, .-HAL_PWREx_DisableGPIOPullUp
	.section	.text.HAL_PWREx_EnableGPIOPullDown,"ax",%progbits
	.align	1
	.global	HAL_PWREx_EnableGPIOPullDown
	.syntax unified
	.thumb
	.thumb_func
	.type	HAL_PWREx_EnableGPIOPullDown, %function
HAL_PWREx_EnableGPIOPullDown:
.LVL55:
.LFB86:
	.loc 1 552 1 is_stmt 1 view -0
	.cfi_startproc
	@ args = 0, pretend = 0, frame = 0
	@ frame_needed = 0, uses_anonymous_args = 0
	@ link register save eliminated.
	.loc 1 553 3 view .LVU164
	.loc 1 555 3 view .LVU165
	.loc 1 556 3 view .LVU166
	.loc 1 558 3 view .LVU167
	cmp	r0, #7
	bhi	.L79
	tbb	[pc, r0]
.L71:
	.byte	(.L78-.L71)/2
	.byte	(.L77-.L71)/2
	.byte	(.L76-.L71)/2
	.byte	(.L75-.L71)/2
	.byte	(.L74-.L71)/2
	.byte	(.L73-.L71)/2
	.byte	(.L72-.L71)/2
	.byte	(.L70-.L71)/2
	.p2align 1
.L78:
	.loc 1 561 8 view .LVU168
	ldr	r3, .L80
	ldr	r2, [r3, #36]
	bic	r0, r1, #40960
.LVL56:
	.loc 1 561 8 is_stmt 0 view .LVU169
	orrs	r2, r2, r0
	str	r2, [r3, #36]
	.loc 1 562 8 is_stmt 1 view .LVU170
	ldr	r2, [r3, #32]
	bic	r1, r1, #16384
.LVL57:
	.loc 1 562 8 is_stmt 0 view .LVU171
	bic	r2, r2, r1
	str	r2, [r3, #32]
	.loc 1 563 8 is_stmt 1 view .LVU172
	.loc 1 553 21 is_stmt 0 view .LVU173
	movs	r0, #0
	.loc 1 563 8 view .LVU174
	bx	lr
.LVL58:
.L77:
	.loc 1 565 8 is_stmt 1 view .LVU175
	ldr	r3, .L80
	ldr	r2, [r3, #44]
	bic	r0, r1, #16
.LVL59:
	.loc 1 565 8 is_stmt 0 view .LVU176
	orrs	r2, r2, r0
	str	r2, [r3, #44]
	.loc 1 566 8 is_stmt 1 view .LVU177
	ldr	r2, [r3, #40]
	bic	r2, r2, r1
	str	r2, [r3, #40]
	.loc 1 567 8 view .LVU178
	.loc 1 553 21 is_stmt 0 view .LVU179
	movs	r0, #0
	.loc 1 567 8 view .LVU180
	bx	lr
.LVL60:
.L76:
	.loc 1 569 8 is_stmt 1 view .LVU181
	ldr	r3, .L80
	ldr	r2, [r3, #52]
	orrs	r2, r2, r1
	str	r2, [r3, #52]
	.loc 1 570 8 view .LVU182
	ldr	r2, [r3, #48]
	bic	r2, r2, r1
	str	r2, [r3, #48]
	.loc 1 571 8 view .LVU183
	.loc 1 553 21 is_stmt 0 view .LVU184
	movs	r0, #0
.LVL61:
	.loc 1 571 8 view .LVU185
	bx	lr
.LVL62:
.L75:
	.loc 1 574 8 is_stmt 1 view .LVU186
	ldr	r3, .L80
	ldr	r2, [r3, #60]
	orrs	r2, r2, r1
	str	r2, [r3, #60]
	.loc 1 575 8 view .LVU187
	ldr	r2, [r3, #56]
	bic	r2, r2, r1
	str	r2, [r3, #56]
	.loc 1 576 8 view .LVU188
	.loc 1 553 21 is_stmt 0 view .LVU189
	movs	r0, #0
.LVL63:
	.loc 1 576 8 view .LVU190
	bx	lr
.LVL64:
.L74:
	.loc 1 580 8 is_stmt 1 view .LVU191
	ldr	r3, .L80
	ldr	r2, [r3, #68]
	orrs	r2, r2, r1
	str	r2, [r3, #68]
	.loc 1 581 8 view .LVU192
	ldr	r2, [r3, #64]
	bic	r2, r2, r1
	str	r2, [r3, #64]
	.loc 1 582 8 view .LVU193
	.loc 1 553 21 is_stmt 0 view .LVU194
	movs	r0, #0
.LVL65:
	.loc 1 582 8 view .LVU195
	bx	lr
.LVL66:
.L73:
	.loc 1 586 8 is_stmt 1 view .LVU196
	ldr	r3, .L80
	ldr	r2, [r3, #76]
	orrs	r2, r2, r1
	str	r2, [r3, #76]
	.loc 1 587 8 view .LVU197
	ldr	r2, [r3, #72]
	bic	r2, r2, r1
	str	r2, [r3, #72]
	.loc 1 588 8 view .LVU198
	.loc 1 553 21 is_stmt 0 view .LVU199
	movs	r0, #0
.LVL67:
	.loc 1 588 8 view .LVU200
	bx	lr
.LVL68:
.L72:
	.loc 1 592 8 is_stmt 1 view .LVU201
	ldr	r3, .L80
	ldr	r2, [r3, #84]
	orrs	r2, r2, r1
	str	r2, [r3, #84]
	.loc 1 593 8 view .LVU202
	ldr	r2, [r3, #80]
	bic	r2, r2, r1
	str	r2, [r3, #80]
	.loc 1 594 8 view .LVU203
	.loc 1 553 21 is_stmt 0 view .LVU204
	movs	r0, #0
.LVL69:
	.loc 1 594 8 view .LVU205
	bx	lr
.LVL70:
.L70:
	.loc 1 600 8 is_stmt 1 view .LVU206
	ldr	r3, .L80
	ldr	r2, [r3, #92]
	and	r1, r1, #3
.LVL71:
	.loc 1 600 8 is_stmt 0 view .LVU207
	orrs	r2, r2, r1
	str	r2, [r3, #92]
	.loc 1 602 8 is_stmt 1 view .LVU208
	ldr	r2, [r3, #88]
	bic	r2, r2, r1
	str	r2, [r3, #88]
	.loc 1 603 8 view .LVU209
	.loc 1 553 21 is_stmt 0 view .LVU210
	movs	r0, #0
.LVL72:
	.loc 1 603 8 view .LVU211
	bx	lr
.LVL73:
.L79:
	.loc 1 558 3 view .LVU212
	movs	r0, #1
.LVL74:
	.loc 1 615 3 is_stmt 1 view .LVU213
	.loc 1 616 1 is_stmt 0 view .LVU214
	bx	lr
.L81:
	.align	2
.L80:
	.word	1073770496
	.cfi_endproc
.LFE86:
	.size	HAL_PWREx_EnableGPIOPullDown, .-HAL_PWREx_EnableGPIOPullDown
	.section	.text.HAL_PWREx_DisableGPIOPullDown,"ax",%progbits
	.align	1
	.global	HAL_PWREx_DisableGPIOPullDown
	.syntax unified
	.thumb
	.thumb_func
	.type	HAL_PWREx_DisableGPIOPullDown, %function
HAL_PWREx_DisableGPIOPullDown:
.LVL75:
.LFB87:
	.loc 1 635 1 is_stmt 1 view -0
	.cfi_startproc
	@ args = 0, pretend = 0, frame = 0
	@ frame_needed = 0, uses_anonymous_args = 0
	@ link register save eliminated.
	.loc 1 636 3 view .LVU216
	.loc 1 638 3 view .LVU217
	.loc 1 639 3 view .LVU218
	.loc 1 641 3 view .LVU219
	cmp	r0, #7
	bhi	.L93
	tbb	[pc, r0]
.L85:
	.byte	(.L92-.L85)/2
	.byte	(.L91-.L85)/2
	.byte	(.L90-.L85)/2
	.byte	(.L89-.L85)/2
	.byte	(.L88-.L85)/2
	.byte	(.L87-.L85)/2
	.byte	(.L86-.L85)/2
	.byte	(.L84-.L85)/2
	.p2align 1
.L92:
	.loc 1 644 8 view .LVU220
	ldr	r2, .L94
	ldr	r3, [r2, #36]
	bic	r1, r1, #40960
.LVL76:
	.loc 1 644 8 is_stmt 0 view .LVU221
	bic	r1, r3, r1
	str	r1, [r2, #36]
	.loc 1 645 8 is_stmt 1 view .LVU222
	.loc 1 636 21 is_stmt 0 view .LVU223
	movs	r0, #0
.LVL77:
	.loc 1 645 8 view .LVU224
	bx	lr
.LVL78:
.L91:
	.loc 1 647 8 is_stmt 1 view .LVU225
	ldr	r2, .L94
	ldr	r3, [r2, #44]
	bic	r1, r1, #16
.LVL79:
	.loc 1 647 8 is_stmt 0 view .LVU226
	bic	r1, r3, r1
	str	r1, [r2, #44]
	.loc 1 648 8 is_stmt 1 view .LVU227
	.loc 1 636 21 is_stmt 0 view .LVU228
	movs	r0, #0
.LVL80:
	.loc 1 648 8 view .LVU229
	bx	lr
.LVL81:
.L90:
	.loc 1 650 8 is_stmt 1 view .LVU230
	ldr	r2, .L94
	ldr	r3, [r2, #52]
	bic	r3, r3, r1
	str	r3, [r2, #52]
	.loc 1 651 8 view .LVU231
	.loc 1 636 21 is_stmt 0 view .LVU232
	movs	r0, #0
.LVL82:
	.loc 1 651 8 view .LVU233
	bx	lr
.LVL83:
.L89:
	.loc 1 654 8 is_stmt 1 view .LVU234
	ldr	r2, .L94
	ldr	r3, [r2, #60]
	bic	r3, r3, r1
	str	r3, [r2, #60]
	.loc 1 655 8 view .LVU235
	.loc 1 636 21 is_stmt 0 view .LVU236
	movs	r0, #0
.LVL84:
	.loc 1 655 8 view .LVU237
	bx	lr
.LVL85:
.L88:
	.loc 1 659 8 is_stmt 1 view .LVU238
	ldr	r2, .L94
	ldr	r3, [r2, #68]
	bic	r3, r3, r1
	str	r3, [r2, #68]
	.loc 1 660 8 view .LVU239
	.loc 1 636 21 is_stmt 0 view .LVU240
	movs	r0, #0
.LVL86:
	.loc 1 660 8 view .LVU241
	bx	lr
.LVL87:
.L87:
	.loc 1 664 8 is_stmt 1 view .LVU242
	ldr	r2, .L94
	ldr	r3, [r2, #76]
	bic	r3, r3, r1
	str	r3, [r2, #76]
	.loc 1 665 8 view .LVU243
	.loc 1 636 21 is_stmt 0 view .LVU244
	movs	r0, #0
.LVL88:
	.loc 1 665 8 view .LVU245
	bx	lr
.LVL89:
.L86:
	.loc 1 669 8 is_stmt 1 view .LVU246
	ldr	r2, .L94
	ldr	r3, [r2, #84]
	bic	r3, r3, r1
	str	r3, [r2, #84]
	.loc 1 670 8 view .LVU247
	.loc 1 636 21 is_stmt 0 view .LVU248
	movs	r0, #0
.LVL90:
	.loc 1 670 8 view .LVU249
	bx	lr
.LVL91:
.L84:
	.loc 1 676 8 is_stmt 1 view .LVU250
	ldr	r2, .L94
	ldr	r3, [r2, #92]
	and	r1, r1, #3
.LVL92:
	.loc 1 676 8 is_stmt 0 view .LVU251
	bic	r3, r3, r1
	str	r3, [r2, #92]
	.loc 1 678 8 is_stmt 1 view .LVU252
	.loc 1 636 21 is_stmt 0 view .LVU253
	movs	r0, #0
.LVL93:
	.loc 1 678 8 view .LVU254
	bx	lr
.LVL94:
.L93:
	.loc 1 641 3 view .LVU255
	movs	r0, #1
.LVL95:
	.loc 1 689 3 is_stmt 1 view .LVU256
	.loc 1 690 1 is_stmt 0 view .LVU257
	bx	lr
.L95:
	.align	2
.L94:
	.word	1073770496
	.cfi_endproc
.LFE87:
	.size	HAL_PWREx_DisableGPIOPullDown, .-HAL_PWREx_DisableGPIOPullDown
	.section	.text.HAL_PWREx_EnablePullUpPullDownConfig,"ax",%progbits
	.align	1
	.global	HAL_PWREx_EnablePullUpPullDownConfig
	.syntax unified
	.thumb
	.thumb_func
	.type	HAL_PWREx_EnablePullUpPullDownConfig, %function
HAL_PWREx_EnablePullUpPullDownConfig:
.LFB88:
	.loc 1 705 1 is_stmt 1 view -0
	.cfi_startproc
	@ args = 0, pretend = 0, frame = 0
	@ frame_needed = 0, uses_anonymous_args = 0
	@ link register save eliminated.
	.loc 1 706 3 view .LVU259
	ldr	r2, .L97
	ldr	r3, [r2, #8]
	orr	r3, r3, #1024
	str	r3, [r2, #8]
	.loc 1 707 1 is_stmt 0 view .LVU260
	bx	lr
.L98:
	.align	2
.L97:
	.word	1073770496
	.cfi_endproc
.LFE88:
	.size	HAL_PWREx_EnablePullUpPullDownConfig, .-HAL_PWREx_EnablePullUpPullDownConfig
	.section	.text.HAL_PWREx_DisablePullUpPullDownConfig,"ax",%progbits
	.align	1
	.global	HAL_PWREx_DisablePullUpPullDownConfig
	.syntax unified
	.thumb
	.thumb_func
	.type	HAL_PWREx_DisablePullUpPullDownConfig, %function
HAL_PWREx_DisablePullUpPullDownConfig:
.LFB89:
	.loc 1 717 1 is_stmt 1 view -0
	.cfi_startproc
	@ args = 0, pretend = 0, frame = 0
	@ frame_needed = 0, uses_anonymous_args = 0
	@ link register save eliminated.
	.loc 1 718 3 view .LVU262
	ldr	r2, .L100
	ldr	r3, [r2, #8]
	bic	r3, r3, #1024
	str	r3, [r2, #8]
	.loc 1 719 1 is_stmt 0 view .LVU263
	bx	lr
.L101:
	.align	2
.L100:
	.word	1073770496
	.cfi_endproc
.LFE89:
	.size	HAL_PWREx_DisablePullUpPullDownConfig, .-HAL_PWREx_DisablePullUpPullDownConfig
	.section	.text.HAL_PWREx_SetSRAM2ContentRetention,"ax",%progbits
	.align	1
	.global	HAL_PWREx_SetSRAM2ContentRetention
	.syntax unified
	.thumb
	.thumb_func
	.type	HAL_PWREx_SetSRAM2ContentRetention, %function
HAL_PWREx_SetSRAM2ContentRetention:
.LVL96:
.LFB92:
	.loc 1 752 1 is_stmt 1 view -0
	.cfi_startproc
	@ args = 0, pretend = 0, frame = 0
	@ frame_needed = 0, uses_anonymous_args = 0
	@ link register save eliminated.
	.loc 1 753 3 view .LVU265
	.loc 1 755 3 view .LVU266
	.loc 1 755 6 is_stmt 0 view .LVU267
	cbnz	r0, .L103
	.loc 1 757 5 is_stmt 1 view .LVU268
	ldr	r2, .L106
	ldr	r3, [r2, #8]
	bic	r3, r3, #256
	str	r3, [r2, #8]
	bx	lr
.L103:
	.loc 1 759 8 view .LVU269
	.loc 1 759 11 is_stmt 0 view .LVU270
	cmp	r0, #256
	bne	.L105
	.loc 1 761 5 is_stmt 1 view .LVU271
	ldr	r2, .L106
	ldr	r3, [r2, #8]
	orr	r3, r3, #256
	str	r3, [r2, #8]
	.loc 1 773 10 is_stmt 0 view .LVU272
	movs	r0, #0
.LVL97:
	.loc 1 773 10 view .LVU273
	bx	lr
.LVL98:
.L105:
	.loc 1 770 12 view .LVU274
	movs	r0, #1
.LVL99:
	.loc 1 774 1 view .LVU275
	bx	lr
.L107:
	.align	2
.L106:
	.word	1073770496
	.cfi_endproc
.LFE92:
	.size	HAL_PWREx_SetSRAM2ContentRetention, .-HAL_PWREx_SetSRAM2ContentRetention
	.section	.text.HAL_PWREx_EnableSRAM2ContentRetention,"ax",%progbits
	.align	1
	.global	HAL_PWREx_EnableSRAM2ContentRetention
	.syntax unified
	.thumb
	.thumb_func
	.type	HAL_PWREx_EnableSRAM2ContentRetention, %function
HAL_PWREx_EnableSRAM2ContentRetention:
.LFB90:
	.loc 1 728 1 is_stmt 1 view -0
	.cfi_startproc
	@ args = 0, pretend = 0, frame = 0
	@ frame_needed = 0, uses_anonymous_args = 0
	push	{r3, lr}
.LCFI0:
	.cfi_def_cfa_offset 8
	.cfi_offset 3, -8
	.cfi_offset 14, -4
	.loc 1 729 3 view .LVU277
	.loc 1 729 10 is_stmt 0 view .LVU278
	mov	r0, #256
	bl	HAL_PWREx_SetSRAM2ContentRetention
.LVL100:
	.loc 1 730 1 view .LVU279
	pop	{r3, pc}
	.cfi_endproc
.LFE90:
	.size	HAL_PWREx_EnableSRAM2ContentRetention, .-HAL_PWREx_EnableSRAM2ContentRetention
	.section	.text.HAL_PWREx_DisableSRAM2ContentRetention,"ax",%progbits
	.align	1
	.global	HAL_PWREx_DisableSRAM2ContentRetention
	.syntax unified
	.thumb
	.thumb_func
	.type	HAL_PWREx_DisableSRAM2ContentRetention, %function
HAL_PWREx_DisableSRAM2ContentRetention:
.LFB91:
	.loc 1 737 1 is_stmt 1 view -0
	.cfi_startproc
	@ args = 0, pretend = 0, frame = 0
	@ frame_needed = 0, uses_anonymous_args = 0
	push	{r3, lr}
.LCFI1:
	.cfi_def_cfa_offset 8
	.cfi_offset 3, -8
	.cfi_offset 14, -4
	.loc 1 738 3 view .LVU281
	.loc 1 738 10 is_stmt 0 view .LVU282
	movs	r0, #0
	bl	HAL_PWREx_SetSRAM2ContentRetention
.LVL101:
	.loc 1 739 1 view .LVU283
	pop	{r3, pc}
	.cfi_endproc
.LFE91:
	.size	HAL_PWREx_DisableSRAM2ContentRetention, .-HAL_PWREx_DisableSRAM2ContentRetention
	.section	.text.HAL_PWREx_EnablePVM1,"ax",%progbits
	.align	1
	.global	HAL_PWREx_EnablePVM1
	.syntax unified
	.thumb
	.thumb_func
	.type	HAL_PWREx_EnablePVM1, %function
HAL_PWREx_EnablePVM1:
.LFB93:
	.loc 1 879 1 is_stmt 1 view -0
	.cfi_startproc
	@ args = 0, pretend = 0, frame = 0
	@ frame_needed = 0, uses_anonymous_args = 0
	@ link register save eliminated.
	.loc 1 880 3 view .LVU285
	ldr	r2, .L113
	ldr	r3, [r2, #4]
	orr	r3, r3, #16
	str	r3, [r2, #4]
	.loc 1 881 1 is_stmt 0 view .LVU286
	bx	lr
.L114:
	.align	2
.L113:
	.word	1073770496
	.cfi_endproc
.LFE93:
	.size	HAL_PWREx_EnablePVM1, .-HAL_PWREx_EnablePVM1
	.section	.text.HAL_PWREx_DisablePVM1,"ax",%progbits
	.align	1
	.global	HAL_PWREx_DisablePVM1
	.syntax unified
	.thumb
	.thumb_func
	.type	HAL_PWREx_DisablePVM1, %function
HAL_PWREx_DisablePVM1:
.LFB94:
	.loc 1 888 1 is_stmt 1 view -0
	.cfi_startproc
	@ args = 0, pretend = 0, frame = 0
	@ frame_needed = 0, uses_anonymous_args = 0
	@ link register save eliminated.
	.loc 1 889 3 view .LVU288
	ldr	r2, .L116
	ldr	r3, [r2, #4]
	bic	r3, r3, #16
	str	r3, [r2, #4]
	.loc 1 890 1 is_stmt 0 view .LVU289
	bx	lr
.L117:
	.align	2
.L116:
	.word	1073770496
	.cfi_endproc
.LFE94:
	.size	HAL_PWREx_DisablePVM1, .-HAL_PWREx_DisablePVM1
	.section	.text.HAL_PWREx_EnablePVM2,"ax",%progbits
	.align	1
	.global	HAL_PWREx_EnablePVM2
	.syntax unified
	.thumb
	.thumb_func
	.type	HAL_PWREx_EnablePVM2, %function
HAL_PWREx_EnablePVM2:
.LFB95:
	.loc 1 900 1 is_stmt 1 view -0
	.cfi_startproc
	@ args = 0, pretend = 0, frame = 0
	@ frame_needed = 0, uses_anonymous_args = 0
	@ link register save eliminated.
	.loc 1 901 3 view .LVU291
	ldr	r2, .L119
	ldr	r3, [r2, #4]
	orr	r3, r3, #32
	str	r3, [r2, #4]
	.loc 1 902 1 is_stmt 0 view .LVU292
	bx	lr
.L120:
	.align	2
.L119:
	.word	1073770496
	.cfi_endproc
.LFE95:
	.size	HAL_PWREx_EnablePVM2, .-HAL_PWREx_EnablePVM2
	.section	.text.HAL_PWREx_DisablePVM2,"ax",%progbits
	.align	1
	.global	HAL_PWREx_DisablePVM2
	.syntax unified
	.thumb
	.thumb_func
	.type	HAL_PWREx_DisablePVM2, %function
HAL_PWREx_DisablePVM2:
.LFB96:
	.loc 1 909 1 is_stmt 1 view -0
	.cfi_startproc
	@ args = 0, pretend = 0, frame = 0
	@ frame_needed = 0, uses_anonymous_args = 0
	@ link register save eliminated.
	.loc 1 910 3 view .LVU294
	ldr	r2, .L122
	ldr	r3, [r2, #4]
	bic	r3, r3, #32
	str	r3, [r2, #4]
	.loc 1 911 1 is_stmt 0 view .LVU295
	bx	lr
.L123:
	.align	2
.L122:
	.word	1073770496
	.cfi_endproc
.LFE96:
	.size	HAL_PWREx_DisablePVM2, .-HAL_PWREx_DisablePVM2
	.section	.text.HAL_PWREx_EnablePVM3,"ax",%progbits
	.align	1
	.global	HAL_PWREx_EnablePVM3
	.syntax unified
	.thumb
	.thumb_func
	.type	HAL_PWREx_EnablePVM3, %function
HAL_PWREx_EnablePVM3:
.LFB97:
	.loc 1 920 1 is_stmt 1 view -0
	.cfi_startproc
	@ args = 0, pretend = 0, frame = 0
	@ frame_needed = 0, uses_anonymous_args = 0
	@ link register save eliminated.
	.loc 1 921 3 view .LVU297
	ldr	r2, .L125
	ldr	r3, [r2, #4]
	orr	r3, r3, #64
	str	r3, [r2, #4]
	.loc 1 922 1 is_stmt 0 view .LVU298
	bx	lr
.L126:
	.align	2
.L125:
	.word	1073770496
	.cfi_endproc
.LFE97:
	.size	HAL_PWREx_EnablePVM3, .-HAL_PWREx_EnablePVM3
	.section	.text.HAL_PWREx_DisablePVM3,"ax",%progbits
	.align	1
	.global	HAL_PWREx_DisablePVM3
	.syntax unified
	.thumb
	.thumb_func
	.type	HAL_PWREx_DisablePVM3, %function
HAL_PWREx_DisablePVM3:
.LFB98:
	.loc 1 929 1 is_stmt 1 view -0
	.cfi_startproc
	@ args = 0, pretend = 0, frame = 0
	@ frame_needed = 0, uses_anonymous_args = 0
	@ link register save eliminated.
	.loc 1 930 3 view .LVU300
	ldr	r2, .L128
	ldr	r3, [r2, #4]
	bic	r3, r3, #64
	str	r3, [r2, #4]
	.loc 1 931 1 is_stmt 0 view .LVU301
	bx	lr
.L129:
	.align	2
.L128:
	.word	1073770496
	.cfi_endproc
.LFE98:
	.size	HAL_PWREx_DisablePVM3, .-HAL_PWREx_DisablePVM3
	.section	.text.HAL_PWREx_EnablePVM4,"ax",%progbits
	.align	1
	.global	HAL_PWREx_EnablePVM4
	.syntax unified
	.thumb
	.thumb_func
	.type	HAL_PWREx_EnablePVM4, %function
HAL_PWREx_EnablePVM4:
.LFB99:
	.loc 1 939 1 is_stmt 1 view -0
	.cfi_startproc
	@ args = 0, pretend = 0, frame = 0
	@ frame_needed = 0, uses_anonymous_args = 0
	@ link register save eliminated.
	.loc 1 940 3 view .LVU303
	ldr	r2, .L131
	ldr	r3, [r2, #4]
	orr	r3, r3, #128
	str	r3, [r2, #4]
	.loc 1 941 1 is_stmt 0 view .LVU304
	bx	lr
.L132:
	.align	2
.L131:
	.word	1073770496
	.cfi_endproc
.LFE99:
	.size	HAL_PWREx_EnablePVM4, .-HAL_PWREx_EnablePVM4
	.section	.text.HAL_PWREx_DisablePVM4,"ax",%progbits
	.align	1
	.global	HAL_PWREx_DisablePVM4
	.syntax unified
	.thumb
	.thumb_func
	.type	HAL_PWREx_DisablePVM4, %function
HAL_PWREx_DisablePVM4:
.LFB100:
	.loc 1 948 1 is_stmt 1 view -0
	.cfi_startproc
	@ args = 0, pretend = 0, frame = 0
	@ frame_needed = 0, uses_anonymous_args = 0
	@ link register save eliminated.
	.loc 1 949 3 view .LVU306
	ldr	r2, .L134
	ldr	r3, [r2, #4]
	bic	r3, r3, #128
	str	r3, [r2, #4]
	.loc 1 950 1 is_stmt 0 view .LVU307
	bx	lr
.L135:
	.align	2
.L134:
	.word	1073770496
	.cfi_endproc
.LFE100:
	.size	HAL_PWREx_DisablePVM4, .-HAL_PWREx_DisablePVM4
	.section	.text.HAL_PWREx_ConfigPVM,"ax",%progbits
	.align	1
	.global	HAL_PWREx_ConfigPVM
	.syntax unified
	.thumb
	.thumb_func
	.type	HAL_PWREx_ConfigPVM, %function
HAL_PWREx_ConfigPVM:
.LVL102:
.LFB101:
	.loc 1 968 1 is_stmt 1 view -0
	.cfi_startproc
	@ args = 0, pretend = 0, frame = 0
	@ frame_needed = 0, uses_anonymous_args = 0
	@ link register save eliminated.
	.loc 1 969 3 view .LVU309
	.loc 1 972 3 view .LVU310
	.loc 1 973 3 view .LVU311
	.loc 1 979 3 view .LVU312
	.loc 1 979 21 is_stmt 0 view .LVU313
	ldr	r3, [r0]
	.loc 1 979 3 view .LVU314
	cmp	r3, #64
	beq	.L137
	bhi	.L138
	cmp	r3, #16
	beq	.L139
	cmp	r3, #32
	bne	.L159
	.loc 1 1017 7 is_stmt 1 view .LVU315
	ldr	r3, .L161
	ldr	r2, [r3, #36]
	bic	r2, r2, #16
	str	r2, [r3, #36]
	.loc 1 1018 7 view .LVU316
	ldr	r2, [r3, #32]
	bic	r2, r2, #16
	str	r2, [r3, #32]
	.loc 1 1019 7 view .LVU317
	ldr	r2, [r3, #44]
	bic	r2, r2, #16
	str	r2, [r3, #44]
	.loc 1 1020 7 view .LVU318
	ldr	r2, [r3, #40]
	bic	r2, r2, #16
	str	r2, [r3, #40]
	.loc 1 1023 7 view .LVU319
	.loc 1 1023 21 is_stmt 0 view .LVU320
	ldr	r3, [r0, #4]
	.loc 1 1023 9 view .LVU321
	tst	r3, #65536
	beq	.L146
	.loc 1 1025 9 is_stmt 1 view .LVU322
	ldr	r2, .L161
	ldr	r3, [r2, #32]
	orr	r3, r3, #16
	str	r3, [r2, #32]
.L146:
	.loc 1 1029 7 view .LVU323
	.loc 1 1029 21 is_stmt 0 view .LVU324
	ldr	r3, [r0, #4]
	.loc 1 1029 9 view .LVU325
	tst	r3, #131072
	beq	.L147
	.loc 1 1031 9 is_stmt 1 view .LVU326
	ldr	r2, .L161
	ldr	r3, [r2, #36]
	orr	r3, r3, #16
	str	r3, [r2, #36]
.L147:
	.loc 1 1035 7 view .LVU327
	.loc 1 1035 21 is_stmt 0 view .LVU328
	ldr	r3, [r0, #4]
	.loc 1 1035 9 view .LVU329
	tst	r3, #1
	beq	.L148
	.loc 1 1037 9 is_stmt 1 view .LVU330
	ldr	r2, .L161
	ldr	r3, [r2, #40]
	orr	r3, r3, #16
	str	r3, [r2, #40]
.L148:
	.loc 1 1040 7 view .LVU331
	.loc 1 1040 21 is_stmt 0 view .LVU332
	ldr	r3, [r0, #4]
	.loc 1 1040 9 view .LVU333
	tst	r3, #2
	beq	.L156
	.loc 1 1042 9 is_stmt 1 view .LVU334
	ldr	r2, .L161
	ldr	r3, [r2, #44]
	orr	r3, r3, #16
	str	r3, [r2, #44]
	.loc 1 969 21 is_stmt 0 view .LVU335
	movs	r0, #0
.LVL103:
	.loc 1 969 21 view .LVU336
	bx	lr
.LVL104:
.L159:
	.loc 1 979 3 view .LVU337
	movs	r0, #1
.LVL105:
	.loc 1 979 3 view .LVU338
	bx	lr
.LVL106:
.L138:
	.loc 1 979 3 view .LVU339
	cmp	r3, #128
	bne	.L160
	.loc 1 1080 7 is_stmt 1 view .LVU340
	ldr	r3, .L161
	ldr	r2, [r3, #36]
	bic	r2, r2, #64
	str	r2, [r3, #36]
	.loc 1 1081 7 view .LVU341
	ldr	r2, [r3, #32]
	bic	r2, r2, #64
	str	r2, [r3, #32]
	.loc 1 1082 7 view .LVU342
	ldr	r2, [r3, #44]
	bic	r2, r2, #64
	str	r2, [r3, #44]
	.loc 1 1083 7 view .LVU343
	ldr	r2, [r3, #40]
	bic	r2, r2, #64
	str	r2, [r3, #40]
	.loc 1 1086 7 view .LVU344
	.loc 1 1086 21 is_stmt 0 view .LVU345
	ldr	r3, [r0, #4]
	.loc 1 1086 9 view .LVU346
	tst	r3, #65536
	beq	.L152
	.loc 1 1088 9 is_stmt 1 view .LVU347
	ldr	r2, .L161
	ldr	r3, [r2, #32]
	orr	r3, r3, #64
	str	r3, [r2, #32]
.L152:
	.loc 1 1092 7 view .LVU348
	.loc 1 1092 21 is_stmt 0 view .LVU349
	ldr	r3, [r0, #4]
	.loc 1 1092 9 view .LVU350
	tst	r3, #131072
	beq	.L153
	.loc 1 1094 9 is_stmt 1 view .LVU351
	ldr	r2, .L161
	ldr	r3, [r2, #36]
	orr	r3, r3, #64
	str	r3, [r2, #36]
.L153:
	.loc 1 1098 7 view .LVU352
	.loc 1 1098 21 is_stmt 0 view .LVU353
	ldr	r3, [r0, #4]
	.loc 1 1098 9 view .LVU354
	tst	r3, #1
	beq	.L154
	.loc 1 1100 9 is_stmt 1 view .LVU355
	ldr	r2, .L161
	ldr	r3, [r2, #40]
	orr	r3, r3, #64
	str	r3, [r2, #40]
.L154:
	.loc 1 1103 7 view .LVU356
	.loc 1 1103 21 is_stmt 0 view .LVU357
	ldr	r3, [r0, #4]
	.loc 1 1103 9 view .LVU358
	tst	r3, #2
	beq	.L158
	.loc 1 1105 9 is_stmt 1 view .LVU359
	ldr	r2, .L161
	ldr	r3, [r2, #44]
	orr	r3, r3, #64
	str	r3, [r2, #44]
	.loc 1 969 21 is_stmt 0 view .LVU360
	movs	r0, #0
.LVL107:
	.loc 1 969 21 view .LVU361
	bx	lr
.LVL108:
.L160:
	.loc 1 979 3 view .LVU362
	movs	r0, #1
.LVL109:
	.loc 1 979 3 view .LVU363
	bx	lr
.LVL110:
.L139:
	.loc 1 984 7 is_stmt 1 view .LVU364
	ldr	r3, .L161
	ldr	r2, [r3, #36]
	bic	r2, r2, #8
	str	r2, [r3, #36]
	.loc 1 985 7 view .LVU365
	ldr	r2, [r3, #32]
	bic	r2, r2, #8
	str	r2, [r3, #32]
	.loc 1 986 7 view .LVU366
	ldr	r2, [r3, #44]
	bic	r2, r2, #8
	str	r2, [r3, #44]
	.loc 1 987 7 view .LVU367
	ldr	r2, [r3, #40]
	bic	r2, r2, #8
	str	r2, [r3, #40]
	.loc 1 990 7 view .LVU368
	.loc 1 990 21 is_stmt 0 view .LVU369
	ldr	r3, [r0, #4]
	.loc 1 990 9 view .LVU370
	tst	r3, #65536
	beq	.L143
	.loc 1 992 9 is_stmt 1 view .LVU371
	ldr	r2, .L161
	ldr	r3, [r2, #32]
	orr	r3, r3, #8
	str	r3, [r2, #32]
.L143:
	.loc 1 996 7 view .LVU372
	.loc 1 996 21 is_stmt 0 view .LVU373
	ldr	r3, [r0, #4]
	.loc 1 996 9 view .LVU374
	tst	r3, #131072
	beq	.L144
	.loc 1 998 9 is_stmt 1 view .LVU375
	ldr	r2, .L161
	ldr	r3, [r2, #36]
	orr	r3, r3, #8
	str	r3, [r2, #36]
.L144:
	.loc 1 1002 7 view .LVU376
	.loc 1 1002 21 is_stmt 0 view .LVU377
	ldr	r3, [r0, #4]
	.loc 1 1002 9 view .LVU378
	tst	r3, #1
	beq	.L145
	.loc 1 1004 9 is_stmt 1 view .LVU379
	ldr	r2, .L161
	ldr	r3, [r2, #40]
	orr	r3, r3, #8
	str	r3, [r2, #40]
.L145:
	.loc 1 1007 7 view .LVU380
	.loc 1 1007 21 is_stmt 0 view .LVU381
	ldr	r3, [r0, #4]
	.loc 1 1007 9 view .LVU382
	tst	r3, #2
	beq	.L155
	.loc 1 1009 9 is_stmt 1 view .LVU383
	ldr	r2, .L161
	ldr	r3, [r2, #44]
	orr	r3, r3, #8
	str	r3, [r2, #44]
	.loc 1 969 21 is_stmt 0 view .LVU384
	movs	r0, #0
.LVL111:
	.loc 1 969 21 view .LVU385
	bx	lr
.LVL112:
.L137:
	.loc 1 1049 7 is_stmt 1 view .LVU386
	ldr	r3, .L161
	ldr	r2, [r3, #36]
	bic	r2, r2, #32
	str	r2, [r3, #36]
	.loc 1 1050 7 view .LVU387
	ldr	r2, [r3, #32]
	bic	r2, r2, #32
	str	r2, [r3, #32]
	.loc 1 1051 7 view .LVU388
	ldr	r2, [r3, #44]
	bic	r2, r2, #32
	str	r2, [r3, #44]
	.loc 1 1052 7 view .LVU389
	ldr	r2, [r3, #40]
	bic	r2, r2, #32
	str	r2, [r3, #40]
	.loc 1 1055 7 view .LVU390
	.loc 1 1055 21 is_stmt 0 view .LVU391
	ldr	r3, [r0, #4]
	.loc 1 1055 9 view .LVU392
	tst	r3, #65536
	beq	.L149
	.loc 1 1057 9 is_stmt 1 view .LVU393
	ldr	r2, .L161
	ldr	r3, [r2, #32]
	orr	r3, r3, #32
	str	r3, [r2, #32]
.L149:
	.loc 1 1061 7 view .LVU394
	.loc 1 1061 21 is_stmt 0 view .LVU395
	ldr	r3, [r0, #4]
	.loc 1 1061 9 view .LVU396
	tst	r3, #131072
	beq	.L150
	.loc 1 1063 9 is_stmt 1 view .LVU397
	ldr	r2, .L161
	ldr	r3, [r2, #36]
	orr	r3, r3, #32
	str	r3, [r2, #36]
.L150:
	.loc 1 1067 7 view .LVU398
	.loc 1 1067 21 is_stmt 0 view .LVU399
	ldr	r3, [r0, #4]
	.loc 1 1067 9 view .LVU400
	tst	r3, #1
	beq	.L151
	.loc 1 1069 9 is_stmt 1 view .LVU401
	ldr	r2, .L161
	ldr	r3, [r2, #40]
	orr	r3, r3, #32
	str	r3, [r2, #40]
.L151:
	.loc 1 1072 7 view .LVU402
	.loc 1 1072 21 is_stmt 0 view .LVU403
	ldr	r3, [r0, #4]
	.loc 1 1072 9 view .LVU404
	tst	r3, #2
	beq	.L157
	.loc 1 1074 9 is_stmt 1 view .LVU405
	ldr	r2, .L161
	ldr	r3, [r2, #44]
	orr	r3, r3, #32
	str	r3, [r2, #44]
	.loc 1 969 21 is_stmt 0 view .LVU406
	movs	r0, #0
.LVL113:
	.loc 1 969 21 view .LVU407
	bx	lr
.LVL114:
.L155:
	.loc 1 969 21 view .LVU408
	movs	r0, #0
.LVL115:
	.loc 1 969 21 view .LVU409
	bx	lr
.LVL116:
.L156:
	.loc 1 969 21 view .LVU410
	movs	r0, #0
.LVL117:
	.loc 1 969 21 view .LVU411
	bx	lr
.LVL118:
.L157:
	.loc 1 969 21 view .LVU412
	movs	r0, #0
.LVL119:
	.loc 1 969 21 view .LVU413
	bx	lr
.LVL120:
.L158:
	.loc 1 969 21 view .LVU414
	movs	r0, #0
.LVL121:
	.loc 1 1114 3 is_stmt 1 view .LVU415
	.loc 1 1115 1 is_stmt 0 view .LVU416
	bx	lr
.L162:
	.align	2
.L161:
	.word	1073808384
	.cfi_endproc
.LFE101:
	.size	HAL_PWREx_ConfigPVM, .-HAL_PWREx_ConfigPVM
	.section	.text.HAL_PWREx_EnableLowPowerRunMode,"ax",%progbits
	.align	1
	.global	HAL_PWREx_EnableLowPowerRunMode
	.syntax unified
	.thumb
	.thumb_func
	.type	HAL_PWREx_EnableLowPowerRunMode, %function
HAL_PWREx_EnableLowPowerRunMode:
.LFB102:
	.loc 1 1130 1 is_stmt 1 view -0
	.cfi_startproc
	@ args = 0, pretend = 0, frame = 0
	@ frame_needed = 0, uses_anonymous_args = 0
	@ link register save eliminated.
	.loc 1 1132 3 view .LVU418
	ldr	r2, .L164
	ldr	r3, [r2]
	orr	r3, r3, #16384
	str	r3, [r2]
	.loc 1 1133 1 is_stmt 0 view .LVU419
	bx	lr
.L165:
	.align	2
.L164:
	.word	1073770496
	.cfi_endproc
.LFE102:
	.size	HAL_PWREx_EnableLowPowerRunMode, .-HAL_PWREx_EnableLowPowerRunMode
	.section	.text.HAL_PWREx_DisableLowPowerRunMode,"ax",%progbits
	.align	1
	.global	HAL_PWREx_DisableLowPowerRunMode
	.syntax unified
	.thumb
	.thumb_func
	.type	HAL_PWREx_DisableLowPowerRunMode, %function
HAL_PWREx_DisableLowPowerRunMode:
.LFB103:
	.loc 1 1145 1 is_stmt 1 view -0
	.cfi_startproc
	@ args = 0, pretend = 0, frame = 0
	@ frame_needed = 0, uses_anonymous_args = 0
	@ link register save eliminated.
	.loc 1 1146 3 view .LVU421
	.loc 1 1149 3 view .LVU422
	ldr	r2, .L172
	ldr	r3, [r2]
	bic	r3, r3, #16384
	str	r3, [r2]
	.loc 1 1152 3 view .LVU423
	.loc 1 1152 49 is_stmt 0 view .LVU424
	ldr	r3, .L172+4
	ldr	r3, [r3]
	movs	r2, #50
	mul	r3, r2, r3
	.loc 1 1152 68 view .LVU425
	ldr	r2, .L172+8
	umull	r2, r3, r2, r3
	lsrs	r3, r3, #18
	.loc 1 1152 19 view .LVU426
	adds	r3, r3, #1
.LVL122:
	.loc 1 1153 3 is_stmt 1 view .LVU427
	.loc 1 1153 9 is_stmt 0 view .LVU428
	b	.L167
.L169:
	.loc 1 1155 5 is_stmt 1 view .LVU429
	.loc 1 1155 20 is_stmt 0 view .LVU430
	subs	r3, r3, #1
.LVL123:
.L167:
	.loc 1 1153 53 is_stmt 1 view .LVU431
	.loc 1 1153 11 is_stmt 0 view .LVU432
	ldr	r2, .L172
	ldr	r2, [r2, #20]
	.loc 1 1153 53 view .LVU433
	tst	r2, #512
	beq	.L168
	.loc 1 1153 53 discriminator 1 view .LVU434
	cmp	r3, #0
	bne	.L169
.L168:
	.loc 1 1157 3 is_stmt 1 view .LVU435
	.loc 1 1157 7 is_stmt 0 view .LVU436
	ldr	r3, .L172
.LVL124:
	.loc 1 1157 7 view .LVU437
	ldr	r3, [r3, #20]
	.loc 1 1157 6 view .LVU438
	tst	r3, #512
	bne	.L171
	.loc 1 1162 10 view .LVU439
	movs	r0, #0
	bx	lr
.L171:
	.loc 1 1159 12 view .LVU440
	movs	r0, #3
	.loc 1 1163 1 view .LVU441
	bx	lr
.L173:
	.align	2
.L172:
	.word	1073770496
	.word	SystemCoreClock
	.word	1125899907
	.cfi_endproc
.LFE103:
	.size	HAL_PWREx_DisableLowPowerRunMode, .-HAL_PWREx_DisableLowPowerRunMode
	.section	.text.HAL_PWREx_EnterSTOP0Mode,"ax",%progbits
	.align	1
	.global	HAL_PWREx_EnterSTOP0Mode
	.syntax unified
	.thumb
	.thumb_func
	.type	HAL_PWREx_EnterSTOP0Mode, %function
HAL_PWREx_EnterSTOP0Mode:
.LVL125:
.LFB104:
	.loc 1 1189 1 is_stmt 1 view -0
	.cfi_startproc
	@ args = 0, pretend = 0, frame = 0
	@ frame_needed = 0, uses_anonymous_args = 0
	@ link register save eliminated.
	.loc 1 1191 3 view .LVU443
	.loc 1 1194 3 view .LVU444
	ldr	r2, .L178
	ldr	r3, [r2]
	bic	r3, r3, #7
	str	r3, [r2]
	.loc 1 1197 3 view .LVU445
	ldr	r2, .L178+4
	ldr	r3, [r2, #16]
	orr	r3, r3, #4
	str	r3, [r2, #16]
	.loc 1 1200 3 view .LVU446
	.loc 1 1200 5 is_stmt 0 view .LVU447
	cmp	r0, #1
	beq	.L177
	.loc 1 1208 5 is_stmt 1 view .LVU448
	.syntax unified
@ 1208 "../Drivers/STM32L4xx_HAL_Driver/Src/stm32l4xx_hal_pwr_ex.c" 1
	sev
@ 0 "" 2
	.loc 1 1209 5 view .LVU449
@ 1209 "../Drivers/STM32L4xx_HAL_Driver/Src/stm32l4xx_hal_pwr_ex.c" 1
	wfe
@ 0 "" 2
	.loc 1 1210 5 view .LVU450
@ 1210 "../Drivers/STM32L4xx_HAL_Driver/Src/stm32l4xx_hal_pwr_ex.c" 1
	wfe
@ 0 "" 2
	.thumb
	.syntax unified
.L176:
	.loc 1 1214 3 view .LVU451
	ldr	r2, .L178+4
	ldr	r3, [r2, #16]
	bic	r3, r3, #4
	str	r3, [r2, #16]
	.loc 1 1215 1 is_stmt 0 view .LVU452
	bx	lr
.L177:
	.loc 1 1203 5 is_stmt 1 view .LVU453
	.syntax unified
@ 1203 "../Drivers/STM32L4xx_HAL_Driver/Src/stm32l4xx_hal_pwr_ex.c" 1
	wfi
@ 0 "" 2
	.thumb
	.syntax unified
	b	.L176
.L179:
	.align	2
.L178:
	.word	1073770496
	.word	-536810240
	.cfi_endproc
.LFE104:
	.size	HAL_PWREx_EnterSTOP0Mode, .-HAL_PWREx_EnterSTOP0Mode
	.section	.text.HAL_PWREx_EnterSTOP1Mode,"ax",%progbits
	.align	1
	.global	HAL_PWREx_EnterSTOP1Mode
	.syntax unified
	.thumb
	.thumb_func
	.type	HAL_PWREx_EnterSTOP1Mode, %function
HAL_PWREx_EnterSTOP1Mode:
.LVL126:
.LFB105:
	.loc 1 1240 1 view -0
	.cfi_startproc
	@ args = 0, pretend = 0, frame = 0
	@ frame_needed = 0, uses_anonymous_args = 0
	@ link register save eliminated.
	.loc 1 1242 3 view .LVU455
	.loc 1 1245 3 view .LVU456
	ldr	r2, .L184
	ldr	r3, [r2]
	bic	r3, r3, #7
	orr	r3, r3, #1
	str	r3, [r2]
	.loc 1 1248 3 view .LVU457
	ldr	r2, .L184+4
	ldr	r3, [r2, #16]
	orr	r3, r3, #4
	str	r3, [r2, #16]
	.loc 1 1251 3 view .LVU458
	.loc 1 1251 5 is_stmt 0 view .LVU459
	cmp	r0, #1
	beq	.L183
	.loc 1 1259 5 is_stmt 1 view .LVU460
	.syntax unified
@ 1259 "../Drivers/STM32L4xx_HAL_Driver/Src/stm32l4xx_hal_pwr_ex.c" 1
	sev
@ 0 "" 2
	.loc 1 1260 5 view .LVU461
@ 1260 "../Drivers/STM32L4xx_HAL_Driver/Src/stm32l4xx_hal_pwr_ex.c" 1
	wfe
@ 0 "" 2
	.loc 1 1261 5 view .LVU462
@ 1261 "../Drivers/STM32L4xx_HAL_Driver/Src/stm32l4xx_hal_pwr_ex.c" 1
	wfe
@ 0 "" 2
	.thumb
	.syntax unified
.L182:
	.loc 1 1265 3 view .LVU463
	ldr	r2, .L184+4
	ldr	r3, [r2, #16]
	bic	r3, r3, #4
	str	r3, [r2, #16]
	.loc 1 1266 1 is_stmt 0 view .LVU464
	bx	lr
.L183:
	.loc 1 1254 5 is_stmt 1 view .LVU465
	.syntax unified
@ 1254 "../Drivers/STM32L4xx_HAL_Driver/Src/stm32l4xx_hal_pwr_ex.c" 1
	wfi
@ 0 "" 2
	.thumb
	.syntax unified
	b	.L182
.L185:
	.align	2
.L184:
	.word	1073770496
	.word	-536810240
	.cfi_endproc
.LFE105:
	.size	HAL_PWREx_EnterSTOP1Mode, .-HAL_PWREx_EnterSTOP1Mode
	.section	.text.HAL_PWREx_EnterSTOP2Mode,"ax",%progbits
	.align	1
	.global	HAL_PWREx_EnterSTOP2Mode
	.syntax unified
	.thumb
	.thumb_func
	.type	HAL_PWREx_EnterSTOP2Mode, %function
HAL_PWREx_EnterSTOP2Mode:
.LVL127:
.LFB106:
	.loc 1 1293 1 view -0
	.cfi_startproc
	@ args = 0, pretend = 0, frame = 0
	@ frame_needed = 0, uses_anonymous_args = 0
	@ link register save eliminated.
	.loc 1 1295 3 view .LVU467
	.loc 1 1298 3 view .LVU468
	ldr	r2, .L190
	ldr	r3, [r2]
	bic	r3, r3, #7
	orr	r3, r3, #2
	str	r3, [r2]
	.loc 1 1301 3 view .LVU469
	ldr	r2, .L190+4
	ldr	r3, [r2, #16]
	orr	r3, r3, #4
	str	r3, [r2, #16]
	.loc 1 1304 3 view .LVU470
	.loc 1 1304 5 is_stmt 0 view .LVU471
	cmp	r0, #1
	beq	.L189
	.loc 1 1312 5 is_stmt 1 view .LVU472
	.syntax unified
@ 1312 "../Drivers/STM32L4xx_HAL_Driver/Src/stm32l4xx_hal_pwr_ex.c" 1
	sev
@ 0 "" 2
	.loc 1 1313 5 view .LVU473
@ 1313 "../Drivers/STM32L4xx_HAL_Driver/Src/stm32l4xx_hal_pwr_ex.c" 1
	wfe
@ 0 "" 2
	.loc 1 1314 5 view .LVU474
@ 1314 "../Drivers/STM32L4xx_HAL_Driver/Src/stm32l4xx_hal_pwr_ex.c" 1
	wfe
@ 0 "" 2
	.thumb
	.syntax unified
.L188:
	.loc 1 1318 3 view .LVU475
	ldr	r2, .L190+4
	ldr	r3, [r2, #16]
	bic	r3, r3, #4
	str	r3, [r2, #16]
	.loc 1 1319 1 is_stmt 0 view .LVU476
	bx	lr
.L189:
	.loc 1 1307 5 is_stmt 1 view .LVU477
	.syntax unified
@ 1307 "../Drivers/STM32L4xx_HAL_Driver/Src/stm32l4xx_hal_pwr_ex.c" 1
	wfi
@ 0 "" 2
	.thumb
	.syntax unified
	b	.L188
.L191:
	.align	2
.L190:
	.word	1073770496
	.word	-536810240
	.cfi_endproc
.LFE106:
	.size	HAL_PWREx_EnterSTOP2Mode, .-HAL_PWREx_EnterSTOP2Mode
	.section	.text.HAL_PWREx_EnterSHUTDOWNMode,"ax",%progbits
	.align	1
	.global	HAL_PWREx_EnterSHUTDOWNMode
	.syntax unified
	.thumb
	.thumb_func
	.type	HAL_PWREx_EnterSHUTDOWNMode, %function
HAL_PWREx_EnterSHUTDOWNMode:
.LFB107:
	.loc 1 1335 1 view -0
	.cfi_startproc
	@ args = 0, pretend = 0, frame = 0
	@ frame_needed = 0, uses_anonymous_args = 0
	@ link register save eliminated.
	.loc 1 1338 3 view .LVU479
	ldr	r2, .L193
	ldr	r3, [r2]
	bic	r3, r3, #7
	orr	r3, r3, #4
	str	r3, [r2]
	.loc 1 1341 3 view .LVU480
	ldr	r2, .L193+4
	ldr	r3, [r2, #16]
	orr	r3, r3, #4
	str	r3, [r2, #16]
	.loc 1 1348 3 view .LVU481
	.syntax unified
@ 1348 "../Drivers/STM32L4xx_HAL_Driver/Src/stm32l4xx_hal_pwr_ex.c" 1
	wfi
@ 0 "" 2
	.loc 1 1349 1 is_stmt 0 view .LVU482
	.thumb
	.syntax unified
	bx	lr
.L194:
	.align	2
.L193:
	.word	1073770496
	.word	-536810240
	.cfi_endproc
.LFE107:
	.size	HAL_PWREx_EnterSHUTDOWNMode, .-HAL_PWREx_EnterSHUTDOWNMode
	.section	.text.HAL_PWREx_PVM1Callback,"ax",%progbits
	.align	1
	.weak	HAL_PWREx_PVM1Callback
	.syntax unified
	.thumb
	.thumb_func
	.type	HAL_PWREx_PVM1Callback, %function
HAL_PWREx_PVM1Callback:
.LFB109:
	.loc 1 1416 1 is_stmt 1 view -0
	.cfi_startproc
	@ args = 0, pretend = 0, frame = 0
	@ frame_needed = 0, uses_anonymous_args = 0
	@ link register save eliminated.
	.loc 1 1420 1 view .LVU484
	bx	lr
	.cfi_endproc
.LFE109:
	.size	HAL_PWREx_PVM1Callback, .-HAL_PWREx_PVM1Callback
	.section	.text.HAL_PWREx_PVM2Callback,"ax",%progbits
	.align	1
	.weak	HAL_PWREx_PVM2Callback
	.syntax unified
	.thumb
	.thumb_func
	.type	HAL_PWREx_PVM2Callback, %function
HAL_PWREx_PVM2Callback:
.LFB110:
	.loc 1 1429 1 view -0
	.cfi_startproc
	@ args = 0, pretend = 0, frame = 0
	@ frame_needed = 0, uses_anonymous_args = 0
	@ link register save eliminated.
	.loc 1 1433 1 view .LVU486
	bx	lr
	.cfi_endproc
.LFE110:
	.size	HAL_PWREx_PVM2Callback, .-HAL_PWREx_PVM2Callback
	.section	.text.HAL_PWREx_PVM3Callback,"ax",%progbits
	.align	1
	.weak	HAL_PWREx_PVM3Callback
	.syntax unified
	.thumb
	.thumb_func
	.type	HAL_PWREx_PVM3Callback, %function
HAL_PWREx_PVM3Callback:
.LFB111:
	.loc 1 1441 1 view -0
	.cfi_startproc
	@ args = 0, pretend = 0, frame = 0
	@ frame_needed = 0, uses_anonymous_args = 0
	@ link register save eliminated.
	.loc 1 1445 1 view .LVU488
	bx	lr
	.cfi_endproc
.LFE111:
	.size	HAL_PWREx_PVM3Callback, .-HAL_PWREx_PVM3Callback
	.section	.text.HAL_PWREx_PVM4Callback,"ax",%progbits
	.align	1
	.weak	HAL_PWREx_PVM4Callback
	.syntax unified
	.thumb
	.thumb_func
	.type	HAL_PWREx_PVM4Callback, %function
HAL_PWREx_PVM4Callback:
.LFB112:
	.loc 1 1452 1 view -0
	.cfi_startproc
	@ args = 0, pretend = 0, frame = 0
	@ frame_needed = 0, uses_anonymous_args = 0
	@ link register save eliminated.
	.loc 1 1456 1 view .LVU490
	bx	lr
	.cfi_endproc
.LFE112:
	.size	HAL_PWREx_PVM4Callback, .-HAL_PWREx_PVM4Callback
	.section	.text.HAL_PWREx_PVD_PVM_IRQHandler,"ax",%progbits
	.align	1
	.global	HAL_PWREx_PVD_PVM_IRQHandler
	.syntax unified
	.thumb
	.thumb_func
	.type	HAL_PWREx_PVD_PVM_IRQHandler, %function
HAL_PWREx_PVD_PVM_IRQHandler:
.LFB108:
	.loc 1 1360 1 view -0
	.cfi_startproc
	@ args = 0, pretend = 0, frame = 0
	@ frame_needed = 0, uses_anonymous_args = 0
	push	{r3, lr}
.LCFI2:
	.cfi_def_cfa_offset 8
	.cfi_offset 3, -8
	.cfi_offset 14, -4
	.loc 1 1362 3 view .LVU492
	.loc 1 1362 6 is_stmt 0 view .LVU493
	ldr	r3, .L211
	ldr	r3, [r3, #20]
	.loc 1 1362 5 view .LVU494
	tst	r3, #65536
	bne	.L206
.L200:
	.loc 1 1372 3 is_stmt 1 view .LVU495
	.loc 1 1372 6 is_stmt 0 view .LVU496
	ldr	r3, .L211
	ldr	r3, [r3, #52]
	.loc 1 1372 5 view .LVU497
	tst	r3, #8
	bne	.L207
.L201:
	.loc 1 1382 3 is_stmt 1 view .LVU498
	.loc 1 1382 6 is_stmt 0 view .LVU499
	ldr	r3, .L211
	ldr	r3, [r3, #52]
	.loc 1 1382 5 view .LVU500
	tst	r3, #16
	bne	.L208
.L202:
	.loc 1 1391 3 is_stmt 1 view .LVU501
	.loc 1 1391 6 is_stmt 0 view .LVU502
	ldr	r3, .L211
	ldr	r3, [r3, #52]
	.loc 1 1391 5 view .LVU503
	tst	r3, #32
	bne	.L209
.L203:
	.loc 1 1399 3 is_stmt 1 view .LVU504
	.loc 1 1399 6 is_stmt 0 view .LVU505
	ldr	r3, .L211
	ldr	r3, [r3, #52]
	.loc 1 1399 5 view .LVU506
	tst	r3, #64
	bne	.L210
.L199:
	.loc 1 1407 1 view .LVU507
	pop	{r3, pc}
.L206:
	.loc 1 1365 5 is_stmt 1 view .LVU508
	bl	HAL_PWR_PVDCallback
.LVL128:
	.loc 1 1368 5 view .LVU509
	ldr	r3, .L211
	mov	r2, #65536
	str	r2, [r3, #20]
	b	.L200
.L207:
	.loc 1 1375 5 view .LVU510
	bl	HAL_PWREx_PVM1Callback
.LVL129:
	.loc 1 1378 5 view .LVU511
	ldr	r3, .L211
	movs	r2, #8
	str	r2, [r3, #52]
	b	.L201
.L208:
	.loc 1 1385 5 view .LVU512
	bl	HAL_PWREx_PVM2Callback
.LVL130:
	.loc 1 1388 5 view .LVU513
	ldr	r3, .L211
	movs	r2, #16
	str	r2, [r3, #52]
	b	.L202
.L209:
	.loc 1 1394 5 view .LVU514
	bl	HAL_PWREx_PVM3Callback
.LVL131:
	.loc 1 1397 5 view .LVU515
	ldr	r3, .L211
	movs	r2, #32
	str	r2, [r3, #52]
	b	.L203
.L210:
	.loc 1 1402 5 view .LVU516
	bl	HAL_PWREx_PVM4Callback
.LVL132:
	.loc 1 1405 5 view .LVU517
	ldr	r3, .L211
	movs	r2, #64
	str	r2, [r3, #52]
	.loc 1 1407 1 is_stmt 0 view .LVU518
	b	.L199
.L212:
	.align	2
.L211:
	.word	1073808384
	.cfi_endproc
.LFE108:
	.size	HAL_PWREx_PVD_PVM_IRQHandler, .-HAL_PWREx_PVD_PVM_IRQHandler
	.text
.Letext0:
	.file 2 "/home/emanuele/st/stm32cubeide_1.15.0/plugins/com.st.stm32cube.ide.mcu.externaltools.gnu-tools-for-stm32.12.3.rel1.linux64_1.0.200.202406132123/tools/arm-none-eabi/include/machine/_default_types.h"
	.file 3 "/home/emanuele/st/stm32cubeide_1.15.0/plugins/com.st.stm32cube.ide.mcu.externaltools.gnu-tools-for-stm32.12.3.rel1.linux64_1.0.200.202406132123/tools/arm-none-eabi/include/sys/_stdint.h"
	.file 4 "../Drivers/CMSIS/Include/core_cm4.h"
	.file 5 "../Drivers/CMSIS/Device/ST/STM32L4xx/Include/stm32l475xx.h"
	.file 6 "../Drivers/STM32L4xx_HAL_Driver/Inc/stm32l4xx_hal_def.h"
	.file 7 "../Drivers/STM32L4xx_HAL_Driver/Inc/stm32l4xx_hal_pwr_ex.h"
	.file 8 "../Drivers/CMSIS/Device/ST/STM32L4xx/Include/system_stm32l4xx.h"
	.file 9 "../Drivers/STM32L4xx_HAL_Driver/Inc/stm32l4xx_hal_pwr.h"