ARM GAS  Build/stm32l4xx_hal_dma.s 			page 1


   1              		.cpu cortex-m3
   2              		.arch armv7-m
   3              		.fpu softvfp
   4              		.eabi_attribute 20, 1
   5              		.eabi_attribute 21, 1
   6              		.eabi_attribute 23, 3
   7              		.eabi_attribute 24, 1
   8              		.eabi_attribute 25, 1
   9              		.eabi_attribute 26, 1
  10              		.eabi_attribute 30, 1
  11              		.eabi_attribute 34, 1
  12              		.eabi_attribute 18, 4
  13              		.file	"stm32l4xx_hal_dma.c"
  14              		.text
  15              	.Ltext0:
  16              		.cfi_sections	.debug_frame
  17              		.file 1 "../Drivers/STM32L4xx_HAL_Driver/Src/stm32l4xx_hal_dma.c"
  18              		.section	.text.DMA_SetConfig,"ax",%progbits
  19              		.align	1
  20              		.syntax unified
  21              		.thumb
  22              		.thumb_func
  24              	DMA_SetConfig:
  25              	.LVL0:
  26              	.LFB86:
   1:../Drivers/STM32L4xx_HAL_Driver/Src/stm32l4xx_hal_dma.c **** /**
   2:../Drivers/STM32L4xx_HAL_Driver/Src/stm32l4xx_hal_dma.c ****   ******************************************************************************
   3:../Drivers/STM32L4xx_HAL_Driver/Src/stm32l4xx_hal_dma.c ****   * @file    stm32l4xx_hal_dma.c
   4:../Drivers/STM32L4xx_HAL_Driver/Src/stm32l4xx_hal_dma.c ****   * @author  MCD Application Team
   5:../Drivers/STM32L4xx_HAL_Driver/Src/stm32l4xx_hal_dma.c ****   * @brief   DMA HAL module driver.
   6:../Drivers/STM32L4xx_HAL_Driver/Src/stm32l4xx_hal_dma.c ****   *          This file provides firmware functions to manage the following
   7:../Drivers/STM32L4xx_HAL_Driver/Src/stm32l4xx_hal_dma.c ****   *          functionalities of the Direct Memory Access (DMA) peripheral:
   8:../Drivers/STM32L4xx_HAL_Driver/Src/stm32l4xx_hal_dma.c ****   *           + Initialization and de-initialization functions
   9:../Drivers/STM32L4xx_HAL_Driver/Src/stm32l4xx_hal_dma.c ****   *           + IO operation functions
  10:../Drivers/STM32L4xx_HAL_Driver/Src/stm32l4xx_hal_dma.c ****   *           + Peripheral State and errors functions
  11:../Drivers/STM32L4xx_HAL_Driver/Src/stm32l4xx_hal_dma.c ****   *
  12:../Drivers/STM32L4xx_HAL_Driver/Src/stm32l4xx_hal_dma.c ****   ******************************************************************************
  13:../Drivers/STM32L4xx_HAL_Driver/Src/stm32l4xx_hal_dma.c ****   * @attention
  14:../Drivers/STM32L4xx_HAL_Driver/Src/stm32l4xx_hal_dma.c ****   *
  15:../Drivers/STM32L4xx_HAL_Driver/Src/stm32l4xx_hal_dma.c ****   * Copyright (c) 2017 STMicroelectronics.
  16:../Drivers/STM32L4xx_HAL_Driver/Src/stm32l4xx_hal_dma.c ****   * All rights reserved.
  17:../Drivers/STM32L4xx_HAL_Driver/Src/stm32l4xx_hal_dma.c ****   *
  18:../Drivers/STM32L4xx_HAL_Driver/Src/stm32l4xx_hal_dma.c ****   * This software is licensed under terms that can be found in the LICENSE file
  19:../Drivers/STM32L4xx_HAL_Driver/Src/stm32l4xx_hal_dma.c ****   * in the root directory of this software component.
  20:../Drivers/STM32L4xx_HAL_Driver/Src/stm32l4xx_hal_dma.c ****   * If no LICENSE file comes with this software, it is provided AS-IS.
  21:../Drivers/STM32L4xx_HAL_Driver/Src/stm32l4xx_hal_dma.c ****   *
  22:../Drivers/STM32L4xx_HAL_Driver/Src/stm32l4xx_hal_dma.c ****   ******************************************************************************
  23:../Drivers/STM32L4xx_HAL_Driver/Src/stm32l4xx_hal_dma.c ****   @verbatim
  24:../Drivers/STM32L4xx_HAL_Driver/Src/stm32l4xx_hal_dma.c ****   ==============================================================================
  25:../Drivers/STM32L4xx_HAL_Driver/Src/stm32l4xx_hal_dma.c ****                         ##### How to use this driver #####
  26:../Drivers/STM32L4xx_HAL_Driver/Src/stm32l4xx_hal_dma.c ****   ==============================================================================
  27:../Drivers/STM32L4xx_HAL_Driver/Src/stm32l4xx_hal_dma.c ****   [..]
  28:../Drivers/STM32L4xx_HAL_Driver/Src/stm32l4xx_hal_dma.c ****    (#) Enable and configure the peripheral to be connected to the DMA Channel
  29:../Drivers/STM32L4xx_HAL_Driver/Src/stm32l4xx_hal_dma.c ****        (except for internal SRAM / FLASH memories: no initialization is
  30:../Drivers/STM32L4xx_HAL_Driver/Src/stm32l4xx_hal_dma.c ****        necessary). Please refer to the Reference manual for connection between peripherals
  31:../Drivers/STM32L4xx_HAL_Driver/Src/stm32l4xx_hal_dma.c ****        and DMA requests.
  32:../Drivers/STM32L4xx_HAL_Driver/Src/stm32l4xx_hal_dma.c **** 
ARM GAS  Build/stm32l4xx_hal_dma.s 			page 2


  33:../Drivers/STM32L4xx_HAL_Driver/Src/stm32l4xx_hal_dma.c ****    (#) For a given Channel, program the required configuration through the following parameters:
  34:../Drivers/STM32L4xx_HAL_Driver/Src/stm32l4xx_hal_dma.c ****        Channel request, Transfer Direction, Source and Destination data formats,
  35:../Drivers/STM32L4xx_HAL_Driver/Src/stm32l4xx_hal_dma.c ****        Circular or Normal mode, Channel Priority level, Source and Destination Increment mode
  36:../Drivers/STM32L4xx_HAL_Driver/Src/stm32l4xx_hal_dma.c ****        using HAL_DMA_Init() function.
  37:../Drivers/STM32L4xx_HAL_Driver/Src/stm32l4xx_hal_dma.c **** 
  38:../Drivers/STM32L4xx_HAL_Driver/Src/stm32l4xx_hal_dma.c ****        Prior to HAL_DMA_Init the peripheral clock shall be enabled for both DMA & DMAMUX
  39:../Drivers/STM32L4xx_HAL_Driver/Src/stm32l4xx_hal_dma.c ****        thanks to:
  40:../Drivers/STM32L4xx_HAL_Driver/Src/stm32l4xx_hal_dma.c ****       (##) DMA1 or DMA2: __HAL_RCC_DMA1_CLK_ENABLE() or  __HAL_RCC_DMA2_CLK_ENABLE() ;
  41:../Drivers/STM32L4xx_HAL_Driver/Src/stm32l4xx_hal_dma.c ****       (##) DMAMUX1:      __HAL_RCC_DMAMUX1_CLK_ENABLE();
  42:../Drivers/STM32L4xx_HAL_Driver/Src/stm32l4xx_hal_dma.c **** 
  43:../Drivers/STM32L4xx_HAL_Driver/Src/stm32l4xx_hal_dma.c ****    (#) Use HAL_DMA_GetState() function to return the DMA state and HAL_DMA_GetError() in case of er
  44:../Drivers/STM32L4xx_HAL_Driver/Src/stm32l4xx_hal_dma.c ****        detection.
  45:../Drivers/STM32L4xx_HAL_Driver/Src/stm32l4xx_hal_dma.c **** 
  46:../Drivers/STM32L4xx_HAL_Driver/Src/stm32l4xx_hal_dma.c ****    (#) Use HAL_DMA_Abort() function to abort the current transfer
  47:../Drivers/STM32L4xx_HAL_Driver/Src/stm32l4xx_hal_dma.c **** 
  48:../Drivers/STM32L4xx_HAL_Driver/Src/stm32l4xx_hal_dma.c ****      -@-   In Memory-to-Memory transfer mode, Circular mode is not allowed.
  49:../Drivers/STM32L4xx_HAL_Driver/Src/stm32l4xx_hal_dma.c **** 
  50:../Drivers/STM32L4xx_HAL_Driver/Src/stm32l4xx_hal_dma.c ****      *** Polling mode IO operation ***
  51:../Drivers/STM32L4xx_HAL_Driver/Src/stm32l4xx_hal_dma.c ****      =================================
  52:../Drivers/STM32L4xx_HAL_Driver/Src/stm32l4xx_hal_dma.c ****      [..]
  53:../Drivers/STM32L4xx_HAL_Driver/Src/stm32l4xx_hal_dma.c ****        (+) Use HAL_DMA_Start() to start DMA transfer after the configuration of Source
  54:../Drivers/STM32L4xx_HAL_Driver/Src/stm32l4xx_hal_dma.c ****            address and destination address and the Length of data to be transferred
  55:../Drivers/STM32L4xx_HAL_Driver/Src/stm32l4xx_hal_dma.c ****        (+) Use HAL_DMA_PollForTransfer() to poll for the end of current transfer, in this
  56:../Drivers/STM32L4xx_HAL_Driver/Src/stm32l4xx_hal_dma.c ****            case a fixed Timeout can be configured by User depending from his application.
  57:../Drivers/STM32L4xx_HAL_Driver/Src/stm32l4xx_hal_dma.c **** 
  58:../Drivers/STM32L4xx_HAL_Driver/Src/stm32l4xx_hal_dma.c ****      *** Interrupt mode IO operation ***
  59:../Drivers/STM32L4xx_HAL_Driver/Src/stm32l4xx_hal_dma.c ****      ===================================
  60:../Drivers/STM32L4xx_HAL_Driver/Src/stm32l4xx_hal_dma.c ****      [..]
  61:../Drivers/STM32L4xx_HAL_Driver/Src/stm32l4xx_hal_dma.c ****        (+) Configure the DMA interrupt priority using HAL_NVIC_SetPriority()
  62:../Drivers/STM32L4xx_HAL_Driver/Src/stm32l4xx_hal_dma.c ****        (+) Enable the DMA IRQ handler using HAL_NVIC_EnableIRQ()
  63:../Drivers/STM32L4xx_HAL_Driver/Src/stm32l4xx_hal_dma.c ****        (+) Use HAL_DMA_Start_IT() to start DMA transfer after the configuration of
  64:../Drivers/STM32L4xx_HAL_Driver/Src/stm32l4xx_hal_dma.c ****            Source address and destination address and the Length of data to be transferred.
  65:../Drivers/STM32L4xx_HAL_Driver/Src/stm32l4xx_hal_dma.c ****            In this case the DMA interrupt is configured
  66:../Drivers/STM32L4xx_HAL_Driver/Src/stm32l4xx_hal_dma.c ****        (+) Use HAL_DMA_IRQHandler() called under DMA_IRQHandler() Interrupt subroutine
  67:../Drivers/STM32L4xx_HAL_Driver/Src/stm32l4xx_hal_dma.c ****        (+) At the end of data transfer HAL_DMA_IRQHandler() function is executed and user can
  68:../Drivers/STM32L4xx_HAL_Driver/Src/stm32l4xx_hal_dma.c ****               add his own function to register callbacks with HAL_DMA_RegisterCallback().
  69:../Drivers/STM32L4xx_HAL_Driver/Src/stm32l4xx_hal_dma.c **** 
  70:../Drivers/STM32L4xx_HAL_Driver/Src/stm32l4xx_hal_dma.c ****      *** DMA HAL driver macros list ***
  71:../Drivers/STM32L4xx_HAL_Driver/Src/stm32l4xx_hal_dma.c ****      =============================================
  72:../Drivers/STM32L4xx_HAL_Driver/Src/stm32l4xx_hal_dma.c ****      [..]
  73:../Drivers/STM32L4xx_HAL_Driver/Src/stm32l4xx_hal_dma.c ****        Below the list of macros in DMA HAL driver.
  74:../Drivers/STM32L4xx_HAL_Driver/Src/stm32l4xx_hal_dma.c **** 
  75:../Drivers/STM32L4xx_HAL_Driver/Src/stm32l4xx_hal_dma.c ****        (+) __HAL_DMA_ENABLE: Enable the specified DMA Channel.
  76:../Drivers/STM32L4xx_HAL_Driver/Src/stm32l4xx_hal_dma.c ****        (+) __HAL_DMA_DISABLE: Disable the specified DMA Channel.
  77:../Drivers/STM32L4xx_HAL_Driver/Src/stm32l4xx_hal_dma.c ****        (+) __HAL_DMA_GET_FLAG: Get the DMA Channel pending flags.
  78:../Drivers/STM32L4xx_HAL_Driver/Src/stm32l4xx_hal_dma.c ****        (+) __HAL_DMA_CLEAR_FLAG: Clear the DMA Channel pending flags.
  79:../Drivers/STM32L4xx_HAL_Driver/Src/stm32l4xx_hal_dma.c ****        (+) __HAL_DMA_ENABLE_IT: Enable the specified DMA Channel interrupts.
  80:../Drivers/STM32L4xx_HAL_Driver/Src/stm32l4xx_hal_dma.c ****        (+) __HAL_DMA_DISABLE_IT: Disable the specified DMA Channel interrupts.
  81:../Drivers/STM32L4xx_HAL_Driver/Src/stm32l4xx_hal_dma.c ****        (+) __HAL_DMA_GET_IT_SOURCE: Check whether the specified DMA Channel interrupt is enabled or
  82:../Drivers/STM32L4xx_HAL_Driver/Src/stm32l4xx_hal_dma.c **** 
  83:../Drivers/STM32L4xx_HAL_Driver/Src/stm32l4xx_hal_dma.c ****      [..]
  84:../Drivers/STM32L4xx_HAL_Driver/Src/stm32l4xx_hal_dma.c ****       (@) You can refer to the DMA HAL driver header file for more useful macros
  85:../Drivers/STM32L4xx_HAL_Driver/Src/stm32l4xx_hal_dma.c **** 
  86:../Drivers/STM32L4xx_HAL_Driver/Src/stm32l4xx_hal_dma.c ****   @endverbatim
  87:../Drivers/STM32L4xx_HAL_Driver/Src/stm32l4xx_hal_dma.c ****   ******************************************************************************
  88:../Drivers/STM32L4xx_HAL_Driver/Src/stm32l4xx_hal_dma.c ****   */
  89:../Drivers/STM32L4xx_HAL_Driver/Src/stm32l4xx_hal_dma.c **** 
ARM GAS  Build/stm32l4xx_hal_dma.s 			page 3


  90:../Drivers/STM32L4xx_HAL_Driver/Src/stm32l4xx_hal_dma.c **** /* Includes ------------------------------------------------------------------*/
  91:../Drivers/STM32L4xx_HAL_Driver/Src/stm32l4xx_hal_dma.c **** #include "stm32l4xx_hal.h"
  92:../Drivers/STM32L4xx_HAL_Driver/Src/stm32l4xx_hal_dma.c **** 
  93:../Drivers/STM32L4xx_HAL_Driver/Src/stm32l4xx_hal_dma.c **** /** @addtogroup STM32L4xx_HAL_Driver
  94:../Drivers/STM32L4xx_HAL_Driver/Src/stm32l4xx_hal_dma.c ****   * @{
  95:../Drivers/STM32L4xx_HAL_Driver/Src/stm32l4xx_hal_dma.c ****   */
  96:../Drivers/STM32L4xx_HAL_Driver/Src/stm32l4xx_hal_dma.c **** 
  97:../Drivers/STM32L4xx_HAL_Driver/Src/stm32l4xx_hal_dma.c **** /** @defgroup DMA DMA
  98:../Drivers/STM32L4xx_HAL_Driver/Src/stm32l4xx_hal_dma.c ****   * @brief DMA HAL module driver
  99:../Drivers/STM32L4xx_HAL_Driver/Src/stm32l4xx_hal_dma.c ****   * @{
 100:../Drivers/STM32L4xx_HAL_Driver/Src/stm32l4xx_hal_dma.c ****   */
 101:../Drivers/STM32L4xx_HAL_Driver/Src/stm32l4xx_hal_dma.c **** 
 102:../Drivers/STM32L4xx_HAL_Driver/Src/stm32l4xx_hal_dma.c **** #ifdef HAL_DMA_MODULE_ENABLED
 103:../Drivers/STM32L4xx_HAL_Driver/Src/stm32l4xx_hal_dma.c **** 
 104:../Drivers/STM32L4xx_HAL_Driver/Src/stm32l4xx_hal_dma.c **** /* Private typedef -----------------------------------------------------------*/
 105:../Drivers/STM32L4xx_HAL_Driver/Src/stm32l4xx_hal_dma.c **** /* Private define ------------------------------------------------------------*/
 106:../Drivers/STM32L4xx_HAL_Driver/Src/stm32l4xx_hal_dma.c **** /* Private macro -------------------------------------------------------------*/
 107:../Drivers/STM32L4xx_HAL_Driver/Src/stm32l4xx_hal_dma.c **** /* Private variables ---------------------------------------------------------*/
 108:../Drivers/STM32L4xx_HAL_Driver/Src/stm32l4xx_hal_dma.c **** /* Private function prototypes -----------------------------------------------*/
 109:../Drivers/STM32L4xx_HAL_Driver/Src/stm32l4xx_hal_dma.c **** /** @defgroup DMA_Private_Functions DMA Private Functions
 110:../Drivers/STM32L4xx_HAL_Driver/Src/stm32l4xx_hal_dma.c ****   * @{
 111:../Drivers/STM32L4xx_HAL_Driver/Src/stm32l4xx_hal_dma.c ****   */
 112:../Drivers/STM32L4xx_HAL_Driver/Src/stm32l4xx_hal_dma.c **** static void DMA_SetConfig(DMA_HandleTypeDef *hdma, uint32_t SrcAddress, uint32_t DstAddress, uint32
 113:../Drivers/STM32L4xx_HAL_Driver/Src/stm32l4xx_hal_dma.c **** #if defined(DMAMUX1)
 114:../Drivers/STM32L4xx_HAL_Driver/Src/stm32l4xx_hal_dma.c **** static void DMA_CalcDMAMUXChannelBaseAndMask(DMA_HandleTypeDef *hdma);
 115:../Drivers/STM32L4xx_HAL_Driver/Src/stm32l4xx_hal_dma.c **** static void DMA_CalcDMAMUXRequestGenBaseAndMask(DMA_HandleTypeDef *hdma);
 116:../Drivers/STM32L4xx_HAL_Driver/Src/stm32l4xx_hal_dma.c **** #endif /* DMAMUX1 */
 117:../Drivers/STM32L4xx_HAL_Driver/Src/stm32l4xx_hal_dma.c **** 
 118:../Drivers/STM32L4xx_HAL_Driver/Src/stm32l4xx_hal_dma.c **** /**
 119:../Drivers/STM32L4xx_HAL_Driver/Src/stm32l4xx_hal_dma.c ****   * @}
 120:../Drivers/STM32L4xx_HAL_Driver/Src/stm32l4xx_hal_dma.c ****   */
 121:../Drivers/STM32L4xx_HAL_Driver/Src/stm32l4xx_hal_dma.c **** 
 122:../Drivers/STM32L4xx_HAL_Driver/Src/stm32l4xx_hal_dma.c **** /* Exported functions ---------------------------------------------------------*/
 123:../Drivers/STM32L4xx_HAL_Driver/Src/stm32l4xx_hal_dma.c **** 
 124:../Drivers/STM32L4xx_HAL_Driver/Src/stm32l4xx_hal_dma.c **** /** @defgroup DMA_Exported_Functions DMA Exported Functions
 125:../Drivers/STM32L4xx_HAL_Driver/Src/stm32l4xx_hal_dma.c ****   * @{
 126:../Drivers/STM32L4xx_HAL_Driver/Src/stm32l4xx_hal_dma.c ****   */
 127:../Drivers/STM32L4xx_HAL_Driver/Src/stm32l4xx_hal_dma.c **** 
 128:../Drivers/STM32L4xx_HAL_Driver/Src/stm32l4xx_hal_dma.c **** /** @defgroup DMA_Exported_Functions_Group1 Initialization and de-initialization functions
 129:../Drivers/STM32L4xx_HAL_Driver/Src/stm32l4xx_hal_dma.c ****  *  @brief   Initialization and de-initialization functions
 130:../Drivers/STM32L4xx_HAL_Driver/Src/stm32l4xx_hal_dma.c ****  *
 131:../Drivers/STM32L4xx_HAL_Driver/Src/stm32l4xx_hal_dma.c **** @verbatim
 132:../Drivers/STM32L4xx_HAL_Driver/Src/stm32l4xx_hal_dma.c ****  ===============================================================================
 133:../Drivers/STM32L4xx_HAL_Driver/Src/stm32l4xx_hal_dma.c ****              ##### Initialization and de-initialization functions  #####
 134:../Drivers/STM32L4xx_HAL_Driver/Src/stm32l4xx_hal_dma.c ****  ===============================================================================
 135:../Drivers/STM32L4xx_HAL_Driver/Src/stm32l4xx_hal_dma.c ****     [..]
 136:../Drivers/STM32L4xx_HAL_Driver/Src/stm32l4xx_hal_dma.c ****     This section provides functions allowing to initialize the DMA Channel source
 137:../Drivers/STM32L4xx_HAL_Driver/Src/stm32l4xx_hal_dma.c ****     and destination addresses, incrementation and data sizes, transfer direction,
 138:../Drivers/STM32L4xx_HAL_Driver/Src/stm32l4xx_hal_dma.c ****     circular/normal mode selection, memory-to-memory mode selection and Channel priority value.
 139:../Drivers/STM32L4xx_HAL_Driver/Src/stm32l4xx_hal_dma.c ****     [..]
 140:../Drivers/STM32L4xx_HAL_Driver/Src/stm32l4xx_hal_dma.c ****     The HAL_DMA_Init() function follows the DMA configuration procedures as described in
 141:../Drivers/STM32L4xx_HAL_Driver/Src/stm32l4xx_hal_dma.c ****     reference manual.
 142:../Drivers/STM32L4xx_HAL_Driver/Src/stm32l4xx_hal_dma.c **** 
 143:../Drivers/STM32L4xx_HAL_Driver/Src/stm32l4xx_hal_dma.c **** @endverbatim
 144:../Drivers/STM32L4xx_HAL_Driver/Src/stm32l4xx_hal_dma.c ****   * @{
 145:../Drivers/STM32L4xx_HAL_Driver/Src/stm32l4xx_hal_dma.c ****   */
 146:../Drivers/STM32L4xx_HAL_Driver/Src/stm32l4xx_hal_dma.c **** 
ARM GAS  Build/stm32l4xx_hal_dma.s 			page 4


 147:../Drivers/STM32L4xx_HAL_Driver/Src/stm32l4xx_hal_dma.c **** /**
 148:../Drivers/STM32L4xx_HAL_Driver/Src/stm32l4xx_hal_dma.c ****   * @brief  Initialize the DMA according to the specified
 149:../Drivers/STM32L4xx_HAL_Driver/Src/stm32l4xx_hal_dma.c ****   *         parameters in the DMA_InitTypeDef and initialize the associated handle.
 150:../Drivers/STM32L4xx_HAL_Driver/Src/stm32l4xx_hal_dma.c ****   * @param  hdma pointer to a DMA_HandleTypeDef structure that contains
 151:../Drivers/STM32L4xx_HAL_Driver/Src/stm32l4xx_hal_dma.c ****   *              the configuration information for the specified DMA Channel.
 152:../Drivers/STM32L4xx_HAL_Driver/Src/stm32l4xx_hal_dma.c ****   * @retval HAL status
 153:../Drivers/STM32L4xx_HAL_Driver/Src/stm32l4xx_hal_dma.c ****   */
 154:../Drivers/STM32L4xx_HAL_Driver/Src/stm32l4xx_hal_dma.c **** HAL_StatusTypeDef HAL_DMA_Init(DMA_HandleTypeDef *hdma)
 155:../Drivers/STM32L4xx_HAL_Driver/Src/stm32l4xx_hal_dma.c **** {
 156:../Drivers/STM32L4xx_HAL_Driver/Src/stm32l4xx_hal_dma.c ****   uint32_t tmp;
 157:../Drivers/STM32L4xx_HAL_Driver/Src/stm32l4xx_hal_dma.c **** 
 158:../Drivers/STM32L4xx_HAL_Driver/Src/stm32l4xx_hal_dma.c ****   /* Check the DMA handle allocation */
 159:../Drivers/STM32L4xx_HAL_Driver/Src/stm32l4xx_hal_dma.c ****   if (hdma == NULL)
 160:../Drivers/STM32L4xx_HAL_Driver/Src/stm32l4xx_hal_dma.c ****   {
 161:../Drivers/STM32L4xx_HAL_Driver/Src/stm32l4xx_hal_dma.c ****     return HAL_ERROR;
 162:../Drivers/STM32L4xx_HAL_Driver/Src/stm32l4xx_hal_dma.c ****   }
 163:../Drivers/STM32L4xx_HAL_Driver/Src/stm32l4xx_hal_dma.c **** 
 164:../Drivers/STM32L4xx_HAL_Driver/Src/stm32l4xx_hal_dma.c ****   /* Check the parameters */
 165:../Drivers/STM32L4xx_HAL_Driver/Src/stm32l4xx_hal_dma.c ****   assert_param(IS_DMA_ALL_INSTANCE(hdma->Instance));
 166:../Drivers/STM32L4xx_HAL_Driver/Src/stm32l4xx_hal_dma.c ****   assert_param(IS_DMA_DIRECTION(hdma->Init.Direction));
 167:../Drivers/STM32L4xx_HAL_Driver/Src/stm32l4xx_hal_dma.c ****   assert_param(IS_DMA_PERIPHERAL_INC_STATE(hdma->Init.PeriphInc));
 168:../Drivers/STM32L4xx_HAL_Driver/Src/stm32l4xx_hal_dma.c ****   assert_param(IS_DMA_MEMORY_INC_STATE(hdma->Init.MemInc));
 169:../Drivers/STM32L4xx_HAL_Driver/Src/stm32l4xx_hal_dma.c ****   assert_param(IS_DMA_PERIPHERAL_DATA_SIZE(hdma->Init.PeriphDataAlignment));
 170:../Drivers/STM32L4xx_HAL_Driver/Src/stm32l4xx_hal_dma.c ****   assert_param(IS_DMA_MEMORY_DATA_SIZE(hdma->Init.MemDataAlignment));
 171:../Drivers/STM32L4xx_HAL_Driver/Src/stm32l4xx_hal_dma.c ****   assert_param(IS_DMA_MODE(hdma->Init.Mode));
 172:../Drivers/STM32L4xx_HAL_Driver/Src/stm32l4xx_hal_dma.c ****   assert_param(IS_DMA_PRIORITY(hdma->Init.Priority));
 173:../Drivers/STM32L4xx_HAL_Driver/Src/stm32l4xx_hal_dma.c **** 
 174:../Drivers/STM32L4xx_HAL_Driver/Src/stm32l4xx_hal_dma.c ****   assert_param(IS_DMA_ALL_REQUEST(hdma->Init.Request));
 175:../Drivers/STM32L4xx_HAL_Driver/Src/stm32l4xx_hal_dma.c **** 
 176:../Drivers/STM32L4xx_HAL_Driver/Src/stm32l4xx_hal_dma.c ****   /* Compute the channel index */
 177:../Drivers/STM32L4xx_HAL_Driver/Src/stm32l4xx_hal_dma.c ****   if ((uint32_t)(hdma->Instance) < (uint32_t)(DMA2_Channel1))
 178:../Drivers/STM32L4xx_HAL_Driver/Src/stm32l4xx_hal_dma.c ****   {
 179:../Drivers/STM32L4xx_HAL_Driver/Src/stm32l4xx_hal_dma.c ****     /* DMA1 */
 180:../Drivers/STM32L4xx_HAL_Driver/Src/stm32l4xx_hal_dma.c ****     hdma->ChannelIndex = (((uint32_t)hdma->Instance - (uint32_t)DMA1_Channel1) / ((uint32_t)DMA1_Ch
 181:../Drivers/STM32L4xx_HAL_Driver/Src/stm32l4xx_hal_dma.c ****     hdma->DmaBaseAddress = DMA1;
 182:../Drivers/STM32L4xx_HAL_Driver/Src/stm32l4xx_hal_dma.c ****   }
 183:../Drivers/STM32L4xx_HAL_Driver/Src/stm32l4xx_hal_dma.c ****   else
 184:../Drivers/STM32L4xx_HAL_Driver/Src/stm32l4xx_hal_dma.c ****   {
 185:../Drivers/STM32L4xx_HAL_Driver/Src/stm32l4xx_hal_dma.c ****     /* DMA2 */
 186:../Drivers/STM32L4xx_HAL_Driver/Src/stm32l4xx_hal_dma.c ****     hdma->ChannelIndex = (((uint32_t)hdma->Instance - (uint32_t)DMA2_Channel1) / ((uint32_t)DMA2_Ch
 187:../Drivers/STM32L4xx_HAL_Driver/Src/stm32l4xx_hal_dma.c ****     hdma->DmaBaseAddress = DMA2;
 188:../Drivers/STM32L4xx_HAL_Driver/Src/stm32l4xx_hal_dma.c ****   }
 189:../Drivers/STM32L4xx_HAL_Driver/Src/stm32l4xx_hal_dma.c **** 
 190:../Drivers/STM32L4xx_HAL_Driver/Src/stm32l4xx_hal_dma.c ****   /* Change DMA peripheral state */
 191:../Drivers/STM32L4xx_HAL_Driver/Src/stm32l4xx_hal_dma.c ****   hdma->State = HAL_DMA_STATE_BUSY;
 192:../Drivers/STM32L4xx_HAL_Driver/Src/stm32l4xx_hal_dma.c **** 
 193:../Drivers/STM32L4xx_HAL_Driver/Src/stm32l4xx_hal_dma.c ****   /* Get the CR register value */
 194:../Drivers/STM32L4xx_HAL_Driver/Src/stm32l4xx_hal_dma.c ****   tmp = hdma->Instance->CCR;
 195:../Drivers/STM32L4xx_HAL_Driver/Src/stm32l4xx_hal_dma.c **** 
 196:../Drivers/STM32L4xx_HAL_Driver/Src/stm32l4xx_hal_dma.c ****   /* Clear PL, MSIZE, PSIZE, MINC, PINC, CIRC, DIR and MEM2MEM bits */
 197:../Drivers/STM32L4xx_HAL_Driver/Src/stm32l4xx_hal_dma.c ****   tmp &= ((uint32_t)~(DMA_CCR_PL    | DMA_CCR_MSIZE  | DMA_CCR_PSIZE  |
 198:../Drivers/STM32L4xx_HAL_Driver/Src/stm32l4xx_hal_dma.c ****                       DMA_CCR_MINC  | DMA_CCR_PINC   | DMA_CCR_CIRC   |
 199:../Drivers/STM32L4xx_HAL_Driver/Src/stm32l4xx_hal_dma.c ****                       DMA_CCR_DIR   | DMA_CCR_MEM2MEM));
 200:../Drivers/STM32L4xx_HAL_Driver/Src/stm32l4xx_hal_dma.c **** 
 201:../Drivers/STM32L4xx_HAL_Driver/Src/stm32l4xx_hal_dma.c ****   /* Prepare the DMA Channel configuration */
 202:../Drivers/STM32L4xx_HAL_Driver/Src/stm32l4xx_hal_dma.c ****   tmp |=  hdma->Init.Direction        |
 203:../Drivers/STM32L4xx_HAL_Driver/Src/stm32l4xx_hal_dma.c ****           hdma->Init.PeriphInc           | hdma->Init.MemInc           |
ARM GAS  Build/stm32l4xx_hal_dma.s 			page 5


 204:../Drivers/STM32L4xx_HAL_Driver/Src/stm32l4xx_hal_dma.c ****           hdma->Init.PeriphDataAlignment | hdma->Init.MemDataAlignment |
 205:../Drivers/STM32L4xx_HAL_Driver/Src/stm32l4xx_hal_dma.c ****           hdma->Init.Mode                | hdma->Init.Priority;
 206:../Drivers/STM32L4xx_HAL_Driver/Src/stm32l4xx_hal_dma.c **** 
 207:../Drivers/STM32L4xx_HAL_Driver/Src/stm32l4xx_hal_dma.c ****   /* Write to DMA Channel CR register */
 208:../Drivers/STM32L4xx_HAL_Driver/Src/stm32l4xx_hal_dma.c ****   hdma->Instance->CCR = tmp;
 209:../Drivers/STM32L4xx_HAL_Driver/Src/stm32l4xx_hal_dma.c **** 
 210:../Drivers/STM32L4xx_HAL_Driver/Src/stm32l4xx_hal_dma.c **** #if defined(DMAMUX1)
 211:../Drivers/STM32L4xx_HAL_Driver/Src/stm32l4xx_hal_dma.c ****   /* Initialize parameters for DMAMUX channel :
 212:../Drivers/STM32L4xx_HAL_Driver/Src/stm32l4xx_hal_dma.c ****      DMAmuxChannel, DMAmuxChannelStatus and DMAmuxChannelStatusMask
 213:../Drivers/STM32L4xx_HAL_Driver/Src/stm32l4xx_hal_dma.c ****   */
 214:../Drivers/STM32L4xx_HAL_Driver/Src/stm32l4xx_hal_dma.c ****   DMA_CalcDMAMUXChannelBaseAndMask(hdma);
 215:../Drivers/STM32L4xx_HAL_Driver/Src/stm32l4xx_hal_dma.c **** 
 216:../Drivers/STM32L4xx_HAL_Driver/Src/stm32l4xx_hal_dma.c ****   if (hdma->Init.Direction == DMA_MEMORY_TO_MEMORY)
 217:../Drivers/STM32L4xx_HAL_Driver/Src/stm32l4xx_hal_dma.c ****   {
 218:../Drivers/STM32L4xx_HAL_Driver/Src/stm32l4xx_hal_dma.c ****     /* if memory to memory force the request to 0*/
 219:../Drivers/STM32L4xx_HAL_Driver/Src/stm32l4xx_hal_dma.c ****     hdma->Init.Request = DMA_REQUEST_MEM2MEM;
 220:../Drivers/STM32L4xx_HAL_Driver/Src/stm32l4xx_hal_dma.c ****   }
 221:../Drivers/STM32L4xx_HAL_Driver/Src/stm32l4xx_hal_dma.c **** 
 222:../Drivers/STM32L4xx_HAL_Driver/Src/stm32l4xx_hal_dma.c ****   /* Set peripheral request  to DMAMUX channel */
 223:../Drivers/STM32L4xx_HAL_Driver/Src/stm32l4xx_hal_dma.c ****   hdma->DMAmuxChannel->CCR = (hdma->Init.Request & DMAMUX_CxCR_DMAREQ_ID);
 224:../Drivers/STM32L4xx_HAL_Driver/Src/stm32l4xx_hal_dma.c **** 
 225:../Drivers/STM32L4xx_HAL_Driver/Src/stm32l4xx_hal_dma.c ****   /* Clear the DMAMUX synchro overrun flag */
 226:../Drivers/STM32L4xx_HAL_Driver/Src/stm32l4xx_hal_dma.c ****   hdma->DMAmuxChannelStatus->CFR = hdma->DMAmuxChannelStatusMask;
 227:../Drivers/STM32L4xx_HAL_Driver/Src/stm32l4xx_hal_dma.c **** 
 228:../Drivers/STM32L4xx_HAL_Driver/Src/stm32l4xx_hal_dma.c ****   if (((hdma->Init.Request > 0U) && (hdma->Init.Request <= DMA_REQUEST_GENERATOR3)))
 229:../Drivers/STM32L4xx_HAL_Driver/Src/stm32l4xx_hal_dma.c ****   {
 230:../Drivers/STM32L4xx_HAL_Driver/Src/stm32l4xx_hal_dma.c ****     /* Initialize parameters for DMAMUX request generator :
 231:../Drivers/STM32L4xx_HAL_Driver/Src/stm32l4xx_hal_dma.c ****        DMAmuxRequestGen, DMAmuxRequestGenStatus and DMAmuxRequestGenStatusMask
 232:../Drivers/STM32L4xx_HAL_Driver/Src/stm32l4xx_hal_dma.c ****     */
 233:../Drivers/STM32L4xx_HAL_Driver/Src/stm32l4xx_hal_dma.c ****     DMA_CalcDMAMUXRequestGenBaseAndMask(hdma);
 234:../Drivers/STM32L4xx_HAL_Driver/Src/stm32l4xx_hal_dma.c **** 
 235:../Drivers/STM32L4xx_HAL_Driver/Src/stm32l4xx_hal_dma.c ****     /* Reset the DMAMUX request generator register*/
 236:../Drivers/STM32L4xx_HAL_Driver/Src/stm32l4xx_hal_dma.c ****     hdma->DMAmuxRequestGen->RGCR = 0U;
 237:../Drivers/STM32L4xx_HAL_Driver/Src/stm32l4xx_hal_dma.c **** 
 238:../Drivers/STM32L4xx_HAL_Driver/Src/stm32l4xx_hal_dma.c ****     /* Clear the DMAMUX request generator overrun flag */
 239:../Drivers/STM32L4xx_HAL_Driver/Src/stm32l4xx_hal_dma.c ****     hdma->DMAmuxRequestGenStatus->RGCFR = hdma->DMAmuxRequestGenStatusMask;
 240:../Drivers/STM32L4xx_HAL_Driver/Src/stm32l4xx_hal_dma.c ****   }
 241:../Drivers/STM32L4xx_HAL_Driver/Src/stm32l4xx_hal_dma.c ****   else
 242:../Drivers/STM32L4xx_HAL_Driver/Src/stm32l4xx_hal_dma.c ****   {
 243:../Drivers/STM32L4xx_HAL_Driver/Src/stm32l4xx_hal_dma.c ****     hdma->DMAmuxRequestGen = 0U;
 244:../Drivers/STM32L4xx_HAL_Driver/Src/stm32l4xx_hal_dma.c ****     hdma->DMAmuxRequestGenStatus = 0U;
 245:../Drivers/STM32L4xx_HAL_Driver/Src/stm32l4xx_hal_dma.c ****     hdma->DMAmuxRequestGenStatusMask = 0U;
 246:../Drivers/STM32L4xx_HAL_Driver/Src/stm32l4xx_hal_dma.c ****   }
 247:../Drivers/STM32L4xx_HAL_Driver/Src/stm32l4xx_hal_dma.c **** #endif /* DMAMUX1 */
 248:../Drivers/STM32L4xx_HAL_Driver/Src/stm32l4xx_hal_dma.c **** 
 249:../Drivers/STM32L4xx_HAL_Driver/Src/stm32l4xx_hal_dma.c **** #if !defined (DMAMUX1)
 250:../Drivers/STM32L4xx_HAL_Driver/Src/stm32l4xx_hal_dma.c **** 
 251:../Drivers/STM32L4xx_HAL_Driver/Src/stm32l4xx_hal_dma.c ****   /* Set request selection */
 252:../Drivers/STM32L4xx_HAL_Driver/Src/stm32l4xx_hal_dma.c ****   if (hdma->Init.Direction != DMA_MEMORY_TO_MEMORY)
 253:../Drivers/STM32L4xx_HAL_Driver/Src/stm32l4xx_hal_dma.c ****   {
 254:../Drivers/STM32L4xx_HAL_Driver/Src/stm32l4xx_hal_dma.c ****     /* Write to DMA channel selection register */
 255:../Drivers/STM32L4xx_HAL_Driver/Src/stm32l4xx_hal_dma.c ****     if (DMA1 == hdma->DmaBaseAddress)
 256:../Drivers/STM32L4xx_HAL_Driver/Src/stm32l4xx_hal_dma.c ****     {
 257:../Drivers/STM32L4xx_HAL_Driver/Src/stm32l4xx_hal_dma.c ****       /* Reset request selection for DMA1 Channelx */
 258:../Drivers/STM32L4xx_HAL_Driver/Src/stm32l4xx_hal_dma.c ****       DMA1_CSELR->CSELR &= ~(DMA_CSELR_C1S << (hdma->ChannelIndex & 0x1cU));
 259:../Drivers/STM32L4xx_HAL_Driver/Src/stm32l4xx_hal_dma.c **** 
 260:../Drivers/STM32L4xx_HAL_Driver/Src/stm32l4xx_hal_dma.c ****       /* Configure request selection for DMA1 Channelx */
ARM GAS  Build/stm32l4xx_hal_dma.s 			page 6


 261:../Drivers/STM32L4xx_HAL_Driver/Src/stm32l4xx_hal_dma.c ****       DMA1_CSELR->CSELR |= (uint32_t)(hdma->Init.Request << (hdma->ChannelIndex & 0x1cU));
 262:../Drivers/STM32L4xx_HAL_Driver/Src/stm32l4xx_hal_dma.c ****     }
 263:../Drivers/STM32L4xx_HAL_Driver/Src/stm32l4xx_hal_dma.c ****     else /* DMA2 */
 264:../Drivers/STM32L4xx_HAL_Driver/Src/stm32l4xx_hal_dma.c ****     {
 265:../Drivers/STM32L4xx_HAL_Driver/Src/stm32l4xx_hal_dma.c ****       /* Reset request selection for DMA2 Channelx */
 266:../Drivers/STM32L4xx_HAL_Driver/Src/stm32l4xx_hal_dma.c ****       DMA2_CSELR->CSELR &= ~(DMA_CSELR_C1S << (hdma->ChannelIndex & 0x1cU));
 267:../Drivers/STM32L4xx_HAL_Driver/Src/stm32l4xx_hal_dma.c **** 
 268:../Drivers/STM32L4xx_HAL_Driver/Src/stm32l4xx_hal_dma.c ****       /* Configure request selection for DMA2 Channelx */
 269:../Drivers/STM32L4xx_HAL_Driver/Src/stm32l4xx_hal_dma.c ****       DMA2_CSELR->CSELR |= (uint32_t)(hdma->Init.Request << (hdma->ChannelIndex & 0x1cU));
 270:../Drivers/STM32L4xx_HAL_Driver/Src/stm32l4xx_hal_dma.c ****     }
 271:../Drivers/STM32L4xx_HAL_Driver/Src/stm32l4xx_hal_dma.c ****   }
 272:../Drivers/STM32L4xx_HAL_Driver/Src/stm32l4xx_hal_dma.c **** 
 273:../Drivers/STM32L4xx_HAL_Driver/Src/stm32l4xx_hal_dma.c **** #endif /* STM32L431xx || STM32L432xx || STM32L433xx || STM32L442xx || STM32L443xx */
 274:../Drivers/STM32L4xx_HAL_Driver/Src/stm32l4xx_hal_dma.c ****   /* STM32L471xx || STM32L475xx || STM32L476xx || STM32L442xx || STM32L486xx */
 275:../Drivers/STM32L4xx_HAL_Driver/Src/stm32l4xx_hal_dma.c ****   /* STM32L496xx || STM32L4A6xx                                              */
 276:../Drivers/STM32L4xx_HAL_Driver/Src/stm32l4xx_hal_dma.c **** 
 277:../Drivers/STM32L4xx_HAL_Driver/Src/stm32l4xx_hal_dma.c ****   /* Initialise the error code */
 278:../Drivers/STM32L4xx_HAL_Driver/Src/stm32l4xx_hal_dma.c ****   hdma->ErrorCode = HAL_DMA_ERROR_NONE;
 279:../Drivers/STM32L4xx_HAL_Driver/Src/stm32l4xx_hal_dma.c **** 
 280:../Drivers/STM32L4xx_HAL_Driver/Src/stm32l4xx_hal_dma.c ****   /* Initialize the DMA state*/
 281:../Drivers/STM32L4xx_HAL_Driver/Src/stm32l4xx_hal_dma.c ****   hdma->State = HAL_DMA_STATE_READY;
 282:../Drivers/STM32L4xx_HAL_Driver/Src/stm32l4xx_hal_dma.c **** 
 283:../Drivers/STM32L4xx_HAL_Driver/Src/stm32l4xx_hal_dma.c ****   /* Allocate lock resource and initialize it */
 284:../Drivers/STM32L4xx_HAL_Driver/Src/stm32l4xx_hal_dma.c ****   hdma->Lock = HAL_UNLOCKED;
 285:../Drivers/STM32L4xx_HAL_Driver/Src/stm32l4xx_hal_dma.c **** 
 286:../Drivers/STM32L4xx_HAL_Driver/Src/stm32l4xx_hal_dma.c ****   return HAL_OK;
 287:../Drivers/STM32L4xx_HAL_Driver/Src/stm32l4xx_hal_dma.c **** }
 288:../Drivers/STM32L4xx_HAL_Driver/Src/stm32l4xx_hal_dma.c **** 
 289:../Drivers/STM32L4xx_HAL_Driver/Src/stm32l4xx_hal_dma.c **** /**
 290:../Drivers/STM32L4xx_HAL_Driver/Src/stm32l4xx_hal_dma.c ****   * @brief  DeInitialize the DMA peripheral.
 291:../Drivers/STM32L4xx_HAL_Driver/Src/stm32l4xx_hal_dma.c ****   * @param  hdma pointer to a DMA_HandleTypeDef structure that contains
 292:../Drivers/STM32L4xx_HAL_Driver/Src/stm32l4xx_hal_dma.c ****   *               the configuration information for the specified DMA Channel.
 293:../Drivers/STM32L4xx_HAL_Driver/Src/stm32l4xx_hal_dma.c ****   * @retval HAL status
 294:../Drivers/STM32L4xx_HAL_Driver/Src/stm32l4xx_hal_dma.c ****   */
 295:../Drivers/STM32L4xx_HAL_Driver/Src/stm32l4xx_hal_dma.c **** HAL_StatusTypeDef HAL_DMA_DeInit(DMA_HandleTypeDef *hdma)
 296:../Drivers/STM32L4xx_HAL_Driver/Src/stm32l4xx_hal_dma.c **** {
 297:../Drivers/STM32L4xx_HAL_Driver/Src/stm32l4xx_hal_dma.c **** 
 298:../Drivers/STM32L4xx_HAL_Driver/Src/stm32l4xx_hal_dma.c ****   /* Check the DMA handle allocation */
 299:../Drivers/STM32L4xx_HAL_Driver/Src/stm32l4xx_hal_dma.c ****   if (NULL == hdma)
 300:../Drivers/STM32L4xx_HAL_Driver/Src/stm32l4xx_hal_dma.c ****   {
 301:../Drivers/STM32L4xx_HAL_Driver/Src/stm32l4xx_hal_dma.c ****     return HAL_ERROR;
 302:../Drivers/STM32L4xx_HAL_Driver/Src/stm32l4xx_hal_dma.c ****   }
 303:../Drivers/STM32L4xx_HAL_Driver/Src/stm32l4xx_hal_dma.c **** 
 304:../Drivers/STM32L4xx_HAL_Driver/Src/stm32l4xx_hal_dma.c ****   /* Check the parameters */
 305:../Drivers/STM32L4xx_HAL_Driver/Src/stm32l4xx_hal_dma.c ****   assert_param(IS_DMA_ALL_INSTANCE(hdma->Instance));
 306:../Drivers/STM32L4xx_HAL_Driver/Src/stm32l4xx_hal_dma.c **** 
 307:../Drivers/STM32L4xx_HAL_Driver/Src/stm32l4xx_hal_dma.c ****   /* Disable the selected DMA Channelx */
 308:../Drivers/STM32L4xx_HAL_Driver/Src/stm32l4xx_hal_dma.c ****   __HAL_DMA_DISABLE(hdma);
 309:../Drivers/STM32L4xx_HAL_Driver/Src/stm32l4xx_hal_dma.c **** 
 310:../Drivers/STM32L4xx_HAL_Driver/Src/stm32l4xx_hal_dma.c ****   /* Compute the channel index */
 311:../Drivers/STM32L4xx_HAL_Driver/Src/stm32l4xx_hal_dma.c ****   if ((uint32_t)(hdma->Instance) < (uint32_t)(DMA2_Channel1))
 312:../Drivers/STM32L4xx_HAL_Driver/Src/stm32l4xx_hal_dma.c ****   {
 313:../Drivers/STM32L4xx_HAL_Driver/Src/stm32l4xx_hal_dma.c ****     /* DMA1 */
 314:../Drivers/STM32L4xx_HAL_Driver/Src/stm32l4xx_hal_dma.c ****     hdma->ChannelIndex = (((uint32_t)hdma->Instance - (uint32_t)DMA1_Channel1) / ((uint32_t)DMA1_Ch
 315:../Drivers/STM32L4xx_HAL_Driver/Src/stm32l4xx_hal_dma.c ****     hdma->DmaBaseAddress = DMA1;
 316:../Drivers/STM32L4xx_HAL_Driver/Src/stm32l4xx_hal_dma.c ****   }
 317:../Drivers/STM32L4xx_HAL_Driver/Src/stm32l4xx_hal_dma.c ****   else
ARM GAS  Build/stm32l4xx_hal_dma.s 			page 7


 318:../Drivers/STM32L4xx_HAL_Driver/Src/stm32l4xx_hal_dma.c ****   {
 319:../Drivers/STM32L4xx_HAL_Driver/Src/stm32l4xx_hal_dma.c ****     /* DMA2 */
 320:../Drivers/STM32L4xx_HAL_Driver/Src/stm32l4xx_hal_dma.c ****     hdma->ChannelIndex = (((uint32_t)hdma->Instance - (uint32_t)DMA2_Channel1) / ((uint32_t)DMA2_Ch
 321:../Drivers/STM32L4xx_HAL_Driver/Src/stm32l4xx_hal_dma.c ****     hdma->DmaBaseAddress = DMA2;
 322:../Drivers/STM32L4xx_HAL_Driver/Src/stm32l4xx_hal_dma.c ****   }
 323:../Drivers/STM32L4xx_HAL_Driver/Src/stm32l4xx_hal_dma.c **** 
 324:../Drivers/STM32L4xx_HAL_Driver/Src/stm32l4xx_hal_dma.c ****   /* Reset DMA Channel control register */
 325:../Drivers/STM32L4xx_HAL_Driver/Src/stm32l4xx_hal_dma.c ****   hdma->Instance->CCR = 0U;
 326:../Drivers/STM32L4xx_HAL_Driver/Src/stm32l4xx_hal_dma.c **** 
 327:../Drivers/STM32L4xx_HAL_Driver/Src/stm32l4xx_hal_dma.c ****   /* Clear all flags */
 328:../Drivers/STM32L4xx_HAL_Driver/Src/stm32l4xx_hal_dma.c ****   hdma->DmaBaseAddress->IFCR = (DMA_ISR_GIF1 << (hdma->ChannelIndex & 0x1CU));
 329:../Drivers/STM32L4xx_HAL_Driver/Src/stm32l4xx_hal_dma.c **** 
 330:../Drivers/STM32L4xx_HAL_Driver/Src/stm32l4xx_hal_dma.c **** #if !defined (DMAMUX1)
 331:../Drivers/STM32L4xx_HAL_Driver/Src/stm32l4xx_hal_dma.c **** 
 332:../Drivers/STM32L4xx_HAL_Driver/Src/stm32l4xx_hal_dma.c ****   /* Reset DMA channel selection register */
 333:../Drivers/STM32L4xx_HAL_Driver/Src/stm32l4xx_hal_dma.c ****   if (DMA1 == hdma->DmaBaseAddress)
 334:../Drivers/STM32L4xx_HAL_Driver/Src/stm32l4xx_hal_dma.c ****   {
 335:../Drivers/STM32L4xx_HAL_Driver/Src/stm32l4xx_hal_dma.c ****     /* DMA1 */
 336:../Drivers/STM32L4xx_HAL_Driver/Src/stm32l4xx_hal_dma.c ****     DMA1_CSELR->CSELR &= ~(DMA_CSELR_C1S << (hdma->ChannelIndex & 0x1cU));
 337:../Drivers/STM32L4xx_HAL_Driver/Src/stm32l4xx_hal_dma.c ****   }
 338:../Drivers/STM32L4xx_HAL_Driver/Src/stm32l4xx_hal_dma.c ****   else
 339:../Drivers/STM32L4xx_HAL_Driver/Src/stm32l4xx_hal_dma.c ****   {
 340:../Drivers/STM32L4xx_HAL_Driver/Src/stm32l4xx_hal_dma.c ****     /* DMA2 */
 341:../Drivers/STM32L4xx_HAL_Driver/Src/stm32l4xx_hal_dma.c ****     DMA2_CSELR->CSELR &= ~(DMA_CSELR_C1S << (hdma->ChannelIndex & 0x1cU));
 342:../Drivers/STM32L4xx_HAL_Driver/Src/stm32l4xx_hal_dma.c ****   }
 343:../Drivers/STM32L4xx_HAL_Driver/Src/stm32l4xx_hal_dma.c **** #endif /* STM32L431xx || STM32L432xx || STM32L433xx || STM32L442xx || STM32L443xx */
 344:../Drivers/STM32L4xx_HAL_Driver/Src/stm32l4xx_hal_dma.c ****   /* STM32L471xx || STM32L475xx || STM32L476xx || STM32L442xx || STM32L486xx */
 345:../Drivers/STM32L4xx_HAL_Driver/Src/stm32l4xx_hal_dma.c ****   /* STM32L496xx || STM32L4A6xx                                              */
 346:../Drivers/STM32L4xx_HAL_Driver/Src/stm32l4xx_hal_dma.c **** 
 347:../Drivers/STM32L4xx_HAL_Driver/Src/stm32l4xx_hal_dma.c **** #if defined(DMAMUX1)
 348:../Drivers/STM32L4xx_HAL_Driver/Src/stm32l4xx_hal_dma.c **** 
 349:../Drivers/STM32L4xx_HAL_Driver/Src/stm32l4xx_hal_dma.c ****   /* Initialize parameters for DMAMUX channel :
 350:../Drivers/STM32L4xx_HAL_Driver/Src/stm32l4xx_hal_dma.c ****      DMAmuxChannel, DMAmuxChannelStatus and DMAmuxChannelStatusMask */
 351:../Drivers/STM32L4xx_HAL_Driver/Src/stm32l4xx_hal_dma.c **** 
 352:../Drivers/STM32L4xx_HAL_Driver/Src/stm32l4xx_hal_dma.c ****   DMA_CalcDMAMUXChannelBaseAndMask(hdma);
 353:../Drivers/STM32L4xx_HAL_Driver/Src/stm32l4xx_hal_dma.c **** 
 354:../Drivers/STM32L4xx_HAL_Driver/Src/stm32l4xx_hal_dma.c ****   /* Reset the DMAMUX channel that corresponds to the DMA channel */
 355:../Drivers/STM32L4xx_HAL_Driver/Src/stm32l4xx_hal_dma.c ****   hdma->DMAmuxChannel->CCR = 0U;
 356:../Drivers/STM32L4xx_HAL_Driver/Src/stm32l4xx_hal_dma.c **** 
 357:../Drivers/STM32L4xx_HAL_Driver/Src/stm32l4xx_hal_dma.c ****   /* Clear the DMAMUX synchro overrun flag */
 358:../Drivers/STM32L4xx_HAL_Driver/Src/stm32l4xx_hal_dma.c ****   hdma->DMAmuxChannelStatus->CFR = hdma->DMAmuxChannelStatusMask;
 359:../Drivers/STM32L4xx_HAL_Driver/Src/stm32l4xx_hal_dma.c **** 
 360:../Drivers/STM32L4xx_HAL_Driver/Src/stm32l4xx_hal_dma.c ****   /* Reset Request generator parameters if any */
 361:../Drivers/STM32L4xx_HAL_Driver/Src/stm32l4xx_hal_dma.c ****   if (((hdma->Init.Request >  0U) && (hdma->Init.Request <= DMA_REQUEST_GENERATOR3)))
 362:../Drivers/STM32L4xx_HAL_Driver/Src/stm32l4xx_hal_dma.c ****   {
 363:../Drivers/STM32L4xx_HAL_Driver/Src/stm32l4xx_hal_dma.c ****     /* Initialize parameters for DMAMUX request generator :
 364:../Drivers/STM32L4xx_HAL_Driver/Src/stm32l4xx_hal_dma.c ****        DMAmuxRequestGen, DMAmuxRequestGenStatus and DMAmuxRequestGenStatusMask
 365:../Drivers/STM32L4xx_HAL_Driver/Src/stm32l4xx_hal_dma.c ****     */
 366:../Drivers/STM32L4xx_HAL_Driver/Src/stm32l4xx_hal_dma.c ****     DMA_CalcDMAMUXRequestGenBaseAndMask(hdma);
 367:../Drivers/STM32L4xx_HAL_Driver/Src/stm32l4xx_hal_dma.c **** 
 368:../Drivers/STM32L4xx_HAL_Driver/Src/stm32l4xx_hal_dma.c ****     /* Reset the DMAMUX request generator register*/
 369:../Drivers/STM32L4xx_HAL_Driver/Src/stm32l4xx_hal_dma.c ****     hdma->DMAmuxRequestGen->RGCR = 0U;
 370:../Drivers/STM32L4xx_HAL_Driver/Src/stm32l4xx_hal_dma.c **** 
 371:../Drivers/STM32L4xx_HAL_Driver/Src/stm32l4xx_hal_dma.c ****     /* Clear the DMAMUX request generator overrun flag */
 372:../Drivers/STM32L4xx_HAL_Driver/Src/stm32l4xx_hal_dma.c ****     hdma->DMAmuxRequestGenStatus->RGCFR = hdma->DMAmuxRequestGenStatusMask;
 373:../Drivers/STM32L4xx_HAL_Driver/Src/stm32l4xx_hal_dma.c ****   }
 374:../Drivers/STM32L4xx_HAL_Driver/Src/stm32l4xx_hal_dma.c **** 
ARM GAS  Build/stm32l4xx_hal_dma.s 			page 8


 375:../Drivers/STM32L4xx_HAL_Driver/Src/stm32l4xx_hal_dma.c ****   hdma->DMAmuxRequestGen = 0U;
 376:../Drivers/STM32L4xx_HAL_Driver/Src/stm32l4xx_hal_dma.c ****   hdma->DMAmuxRequestGenStatus = 0U;
 377:../Drivers/STM32L4xx_HAL_Driver/Src/stm32l4xx_hal_dma.c ****   hdma->DMAmuxRequestGenStatusMask = 0U;
 378:../Drivers/STM32L4xx_HAL_Driver/Src/stm32l4xx_hal_dma.c **** 
 379:../Drivers/STM32L4xx_HAL_Driver/Src/stm32l4xx_hal_dma.c **** #endif /* DMAMUX1 */
 380:../Drivers/STM32L4xx_HAL_Driver/Src/stm32l4xx_hal_dma.c **** 
 381:../Drivers/STM32L4xx_HAL_Driver/Src/stm32l4xx_hal_dma.c ****   /* Clean callbacks */
 382:../Drivers/STM32L4xx_HAL_Driver/Src/stm32l4xx_hal_dma.c ****   hdma->XferCpltCallback = NULL;
 383:../Drivers/STM32L4xx_HAL_Driver/Src/stm32l4xx_hal_dma.c ****   hdma->XferHalfCpltCallback = NULL;
 384:../Drivers/STM32L4xx_HAL_Driver/Src/stm32l4xx_hal_dma.c ****   hdma->XferErrorCallback = NULL;
 385:../Drivers/STM32L4xx_HAL_Driver/Src/stm32l4xx_hal_dma.c ****   hdma->XferAbortCallback = NULL;
 386:../Drivers/STM32L4xx_HAL_Driver/Src/stm32l4xx_hal_dma.c **** 
 387:../Drivers/STM32L4xx_HAL_Driver/Src/stm32l4xx_hal_dma.c ****   /* Initialise the error code */
 388:../Drivers/STM32L4xx_HAL_Driver/Src/stm32l4xx_hal_dma.c ****   hdma->ErrorCode = HAL_DMA_ERROR_NONE;
 389:../Drivers/STM32L4xx_HAL_Driver/Src/stm32l4xx_hal_dma.c **** 
 390:../Drivers/STM32L4xx_HAL_Driver/Src/stm32l4xx_hal_dma.c ****   /* Initialize the DMA state */
 391:../Drivers/STM32L4xx_HAL_Driver/Src/stm32l4xx_hal_dma.c ****   hdma->State = HAL_DMA_STATE_RESET;
 392:../Drivers/STM32L4xx_HAL_Driver/Src/stm32l4xx_hal_dma.c **** 
 393:../Drivers/STM32L4xx_HAL_Driver/Src/stm32l4xx_hal_dma.c ****   /* Release Lock */
 394:../Drivers/STM32L4xx_HAL_Driver/Src/stm32l4xx_hal_dma.c ****   __HAL_UNLOCK(hdma);
 395:../Drivers/STM32L4xx_HAL_Driver/Src/stm32l4xx_hal_dma.c **** 
 396:../Drivers/STM32L4xx_HAL_Driver/Src/stm32l4xx_hal_dma.c ****   return HAL_OK;
 397:../Drivers/STM32L4xx_HAL_Driver/Src/stm32l4xx_hal_dma.c **** }
 398:../Drivers/STM32L4xx_HAL_Driver/Src/stm32l4xx_hal_dma.c **** 
 399:../Drivers/STM32L4xx_HAL_Driver/Src/stm32l4xx_hal_dma.c **** /**
 400:../Drivers/STM32L4xx_HAL_Driver/Src/stm32l4xx_hal_dma.c ****   * @}
 401:../Drivers/STM32L4xx_HAL_Driver/Src/stm32l4xx_hal_dma.c ****   */
 402:../Drivers/STM32L4xx_HAL_Driver/Src/stm32l4xx_hal_dma.c **** 
 403:../Drivers/STM32L4xx_HAL_Driver/Src/stm32l4xx_hal_dma.c **** /** @defgroup DMA_Exported_Functions_Group2 Input and Output operation functions
 404:../Drivers/STM32L4xx_HAL_Driver/Src/stm32l4xx_hal_dma.c ****  *  @brief   Input and Output operation functions
 405:../Drivers/STM32L4xx_HAL_Driver/Src/stm32l4xx_hal_dma.c ****  *
 406:../Drivers/STM32L4xx_HAL_Driver/Src/stm32l4xx_hal_dma.c **** @verbatim
 407:../Drivers/STM32L4xx_HAL_Driver/Src/stm32l4xx_hal_dma.c ****  ===============================================================================
 408:../Drivers/STM32L4xx_HAL_Driver/Src/stm32l4xx_hal_dma.c ****                       #####  IO operation functions  #####
 409:../Drivers/STM32L4xx_HAL_Driver/Src/stm32l4xx_hal_dma.c ****  ===============================================================================
 410:../Drivers/STM32L4xx_HAL_Driver/Src/stm32l4xx_hal_dma.c ****     [..]  This section provides functions allowing to:
 411:../Drivers/STM32L4xx_HAL_Driver/Src/stm32l4xx_hal_dma.c ****       (+) Configure the source, destination address and data length and Start DMA transfer
 412:../Drivers/STM32L4xx_HAL_Driver/Src/stm32l4xx_hal_dma.c ****       (+) Configure the source, destination address and data length and
 413:../Drivers/STM32L4xx_HAL_Driver/Src/stm32l4xx_hal_dma.c ****           Start DMA transfer with interrupt
 414:../Drivers/STM32L4xx_HAL_Driver/Src/stm32l4xx_hal_dma.c ****       (+) Abort DMA transfer
 415:../Drivers/STM32L4xx_HAL_Driver/Src/stm32l4xx_hal_dma.c ****       (+) Poll for transfer complete
 416:../Drivers/STM32L4xx_HAL_Driver/Src/stm32l4xx_hal_dma.c ****       (+) Handle DMA interrupt request
 417:../Drivers/STM32L4xx_HAL_Driver/Src/stm32l4xx_hal_dma.c **** 
 418:../Drivers/STM32L4xx_HAL_Driver/Src/stm32l4xx_hal_dma.c **** @endverbatim
 419:../Drivers/STM32L4xx_HAL_Driver/Src/stm32l4xx_hal_dma.c ****   * @{
 420:../Drivers/STM32L4xx_HAL_Driver/Src/stm32l4xx_hal_dma.c ****   */
 421:../Drivers/STM32L4xx_HAL_Driver/Src/stm32l4xx_hal_dma.c **** 
 422:../Drivers/STM32L4xx_HAL_Driver/Src/stm32l4xx_hal_dma.c **** /**
 423:../Drivers/STM32L4xx_HAL_Driver/Src/stm32l4xx_hal_dma.c ****   * @brief  Start the DMA Transfer.
 424:../Drivers/STM32L4xx_HAL_Driver/Src/stm32l4xx_hal_dma.c ****   * @param  hdma pointer to a DMA_HandleTypeDef structure that contains
 425:../Drivers/STM32L4xx_HAL_Driver/Src/stm32l4xx_hal_dma.c ****   *               the configuration information for the specified DMA Channel.
 426:../Drivers/STM32L4xx_HAL_Driver/Src/stm32l4xx_hal_dma.c ****   * @param  SrcAddress The source memory Buffer address
 427:../Drivers/STM32L4xx_HAL_Driver/Src/stm32l4xx_hal_dma.c ****   * @param  DstAddress The destination memory Buffer address
 428:../Drivers/STM32L4xx_HAL_Driver/Src/stm32l4xx_hal_dma.c ****   * @param  DataLength The length of data to be transferred from source to destination
 429:../Drivers/STM32L4xx_HAL_Driver/Src/stm32l4xx_hal_dma.c ****   * @retval HAL status
 430:../Drivers/STM32L4xx_HAL_Driver/Src/stm32l4xx_hal_dma.c ****   */
 431:../Drivers/STM32L4xx_HAL_Driver/Src/stm32l4xx_hal_dma.c **** HAL_StatusTypeDef HAL_DMA_Start(DMA_HandleTypeDef *hdma, uint32_t SrcAddress, uint32_t DstAddress, 
ARM GAS  Build/stm32l4xx_hal_dma.s 			page 9


 432:../Drivers/STM32L4xx_HAL_Driver/Src/stm32l4xx_hal_dma.c **** {
 433:../Drivers/STM32L4xx_HAL_Driver/Src/stm32l4xx_hal_dma.c ****   HAL_StatusTypeDef status = HAL_OK;
 434:../Drivers/STM32L4xx_HAL_Driver/Src/stm32l4xx_hal_dma.c **** 
 435:../Drivers/STM32L4xx_HAL_Driver/Src/stm32l4xx_hal_dma.c ****   /* Check the parameters */
 436:../Drivers/STM32L4xx_HAL_Driver/Src/stm32l4xx_hal_dma.c ****   assert_param(IS_DMA_BUFFER_SIZE(DataLength));
 437:../Drivers/STM32L4xx_HAL_Driver/Src/stm32l4xx_hal_dma.c **** 
 438:../Drivers/STM32L4xx_HAL_Driver/Src/stm32l4xx_hal_dma.c ****   /* Process locked */
 439:../Drivers/STM32L4xx_HAL_Driver/Src/stm32l4xx_hal_dma.c ****   __HAL_LOCK(hdma);
 440:../Drivers/STM32L4xx_HAL_Driver/Src/stm32l4xx_hal_dma.c **** 
 441:../Drivers/STM32L4xx_HAL_Driver/Src/stm32l4xx_hal_dma.c ****   if (HAL_DMA_STATE_READY == hdma->State)
 442:../Drivers/STM32L4xx_HAL_Driver/Src/stm32l4xx_hal_dma.c ****   {
 443:../Drivers/STM32L4xx_HAL_Driver/Src/stm32l4xx_hal_dma.c ****     /* Change DMA peripheral state */
 444:../Drivers/STM32L4xx_HAL_Driver/Src/stm32l4xx_hal_dma.c ****     hdma->State = HAL_DMA_STATE_BUSY;
 445:../Drivers/STM32L4xx_HAL_Driver/Src/stm32l4xx_hal_dma.c ****     hdma->ErrorCode = HAL_DMA_ERROR_NONE;
 446:../Drivers/STM32L4xx_HAL_Driver/Src/stm32l4xx_hal_dma.c **** 
 447:../Drivers/STM32L4xx_HAL_Driver/Src/stm32l4xx_hal_dma.c ****     /* Disable the peripheral */
 448:../Drivers/STM32L4xx_HAL_Driver/Src/stm32l4xx_hal_dma.c ****     __HAL_DMA_DISABLE(hdma);
 449:../Drivers/STM32L4xx_HAL_Driver/Src/stm32l4xx_hal_dma.c **** 
 450:../Drivers/STM32L4xx_HAL_Driver/Src/stm32l4xx_hal_dma.c ****     /* Configure the source, destination address and the data length & clear flags*/
 451:../Drivers/STM32L4xx_HAL_Driver/Src/stm32l4xx_hal_dma.c ****     DMA_SetConfig(hdma, SrcAddress, DstAddress, DataLength);
 452:../Drivers/STM32L4xx_HAL_Driver/Src/stm32l4xx_hal_dma.c **** 
 453:../Drivers/STM32L4xx_HAL_Driver/Src/stm32l4xx_hal_dma.c ****     /* Enable the Peripheral */
 454:../Drivers/STM32L4xx_HAL_Driver/Src/stm32l4xx_hal_dma.c ****     __HAL_DMA_ENABLE(hdma);
 455:../Drivers/STM32L4xx_HAL_Driver/Src/stm32l4xx_hal_dma.c ****   }
 456:../Drivers/STM32L4xx_HAL_Driver/Src/stm32l4xx_hal_dma.c ****   else
 457:../Drivers/STM32L4xx_HAL_Driver/Src/stm32l4xx_hal_dma.c ****   {
 458:../Drivers/STM32L4xx_HAL_Driver/Src/stm32l4xx_hal_dma.c ****     /* Process Unlocked */
 459:../Drivers/STM32L4xx_HAL_Driver/Src/stm32l4xx_hal_dma.c ****     __HAL_UNLOCK(hdma);
 460:../Drivers/STM32L4xx_HAL_Driver/Src/stm32l4xx_hal_dma.c ****     status = HAL_BUSY;
 461:../Drivers/STM32L4xx_HAL_Driver/Src/stm32l4xx_hal_dma.c ****   }
 462:../Drivers/STM32L4xx_HAL_Driver/Src/stm32l4xx_hal_dma.c ****   return status;
 463:../Drivers/STM32L4xx_HAL_Driver/Src/stm32l4xx_hal_dma.c **** }
 464:../Drivers/STM32L4xx_HAL_Driver/Src/stm32l4xx_hal_dma.c **** 
 465:../Drivers/STM32L4xx_HAL_Driver/Src/stm32l4xx_hal_dma.c **** /**
 466:../Drivers/STM32L4xx_HAL_Driver/Src/stm32l4xx_hal_dma.c ****   * @brief  Start the DMA Transfer with interrupt enabled.
 467:../Drivers/STM32L4xx_HAL_Driver/Src/stm32l4xx_hal_dma.c ****   * @param  hdma pointer to a DMA_HandleTypeDef structure that contains
 468:../Drivers/STM32L4xx_HAL_Driver/Src/stm32l4xx_hal_dma.c ****   *               the configuration information for the specified DMA Channel.
 469:../Drivers/STM32L4xx_HAL_Driver/Src/stm32l4xx_hal_dma.c ****   * @param  SrcAddress The source memory Buffer address
 470:../Drivers/STM32L4xx_HAL_Driver/Src/stm32l4xx_hal_dma.c ****   * @param  DstAddress The destination memory Buffer address
 471:../Drivers/STM32L4xx_HAL_Driver/Src/stm32l4xx_hal_dma.c ****   * @param  DataLength The length of data to be transferred from source to destination
 472:../Drivers/STM32L4xx_HAL_Driver/Src/stm32l4xx_hal_dma.c ****   * @retval HAL status
 473:../Drivers/STM32L4xx_HAL_Driver/Src/stm32l4xx_hal_dma.c ****   */
 474:../Drivers/STM32L4xx_HAL_Driver/Src/stm32l4xx_hal_dma.c **** HAL_StatusTypeDef HAL_DMA_Start_IT(DMA_HandleTypeDef *hdma, uint32_t SrcAddress, uint32_t DstAddres
 475:../Drivers/STM32L4xx_HAL_Driver/Src/stm32l4xx_hal_dma.c **** {
 476:../Drivers/STM32L4xx_HAL_Driver/Src/stm32l4xx_hal_dma.c ****   HAL_StatusTypeDef status = HAL_OK;
 477:../Drivers/STM32L4xx_HAL_Driver/Src/stm32l4xx_hal_dma.c **** 
 478:../Drivers/STM32L4xx_HAL_Driver/Src/stm32l4xx_hal_dma.c ****   /* Check the parameters */
 479:../Drivers/STM32L4xx_HAL_Driver/Src/stm32l4xx_hal_dma.c ****   assert_param(IS_DMA_BUFFER_SIZE(DataLength));
 480:../Drivers/STM32L4xx_HAL_Driver/Src/stm32l4xx_hal_dma.c **** 
 481:../Drivers/STM32L4xx_HAL_Driver/Src/stm32l4xx_hal_dma.c ****   /* Process locked */
 482:../Drivers/STM32L4xx_HAL_Driver/Src/stm32l4xx_hal_dma.c ****   __HAL_LOCK(hdma);
 483:../Drivers/STM32L4xx_HAL_Driver/Src/stm32l4xx_hal_dma.c **** 
 484:../Drivers/STM32L4xx_HAL_Driver/Src/stm32l4xx_hal_dma.c ****   if (HAL_DMA_STATE_READY == hdma->State)
 485:../Drivers/STM32L4xx_HAL_Driver/Src/stm32l4xx_hal_dma.c ****   {
 486:../Drivers/STM32L4xx_HAL_Driver/Src/stm32l4xx_hal_dma.c ****     /* Change DMA peripheral state */
 487:../Drivers/STM32L4xx_HAL_Driver/Src/stm32l4xx_hal_dma.c ****     hdma->State = HAL_DMA_STATE_BUSY;
 488:../Drivers/STM32L4xx_HAL_Driver/Src/stm32l4xx_hal_dma.c ****     hdma->ErrorCode = HAL_DMA_ERROR_NONE;
ARM GAS  Build/stm32l4xx_hal_dma.s 			page 10


 489:../Drivers/STM32L4xx_HAL_Driver/Src/stm32l4xx_hal_dma.c **** 
 490:../Drivers/STM32L4xx_HAL_Driver/Src/stm32l4xx_hal_dma.c ****     /* Disable the peripheral */
 491:../Drivers/STM32L4xx_HAL_Driver/Src/stm32l4xx_hal_dma.c ****     __HAL_DMA_DISABLE(hdma);
 492:../Drivers/STM32L4xx_HAL_Driver/Src/stm32l4xx_hal_dma.c **** 
 493:../Drivers/STM32L4xx_HAL_Driver/Src/stm32l4xx_hal_dma.c ****     /* Configure the source, destination address and the data length & clear flags*/
 494:../Drivers/STM32L4xx_HAL_Driver/Src/stm32l4xx_hal_dma.c ****     DMA_SetConfig(hdma, SrcAddress, DstAddress, DataLength);
 495:../Drivers/STM32L4xx_HAL_Driver/Src/stm32l4xx_hal_dma.c **** 
 496:../Drivers/STM32L4xx_HAL_Driver/Src/stm32l4xx_hal_dma.c ****     /* Enable the transfer complete interrupt */
 497:../Drivers/STM32L4xx_HAL_Driver/Src/stm32l4xx_hal_dma.c ****     /* Enable the transfer Error interrupt */
 498:../Drivers/STM32L4xx_HAL_Driver/Src/stm32l4xx_hal_dma.c ****     if (NULL != hdma->XferHalfCpltCallback)
 499:../Drivers/STM32L4xx_HAL_Driver/Src/stm32l4xx_hal_dma.c ****     {
 500:../Drivers/STM32L4xx_HAL_Driver/Src/stm32l4xx_hal_dma.c ****       /* Enable the Half transfer complete interrupt as well */
 501:../Drivers/STM32L4xx_HAL_Driver/Src/stm32l4xx_hal_dma.c ****       __HAL_DMA_ENABLE_IT(hdma, (DMA_IT_TC | DMA_IT_HT | DMA_IT_TE));
 502:../Drivers/STM32L4xx_HAL_Driver/Src/stm32l4xx_hal_dma.c ****     }
 503:../Drivers/STM32L4xx_HAL_Driver/Src/stm32l4xx_hal_dma.c ****     else
 504:../Drivers/STM32L4xx_HAL_Driver/Src/stm32l4xx_hal_dma.c ****     {
 505:../Drivers/STM32L4xx_HAL_Driver/Src/stm32l4xx_hal_dma.c ****       __HAL_DMA_DISABLE_IT(hdma, DMA_IT_HT);
 506:../Drivers/STM32L4xx_HAL_Driver/Src/stm32l4xx_hal_dma.c ****       __HAL_DMA_ENABLE_IT(hdma, (DMA_IT_TC | DMA_IT_TE));
 507:../Drivers/STM32L4xx_HAL_Driver/Src/stm32l4xx_hal_dma.c ****     }
 508:../Drivers/STM32L4xx_HAL_Driver/Src/stm32l4xx_hal_dma.c **** 
 509:../Drivers/STM32L4xx_HAL_Driver/Src/stm32l4xx_hal_dma.c **** #ifdef DMAMUX1
 510:../Drivers/STM32L4xx_HAL_Driver/Src/stm32l4xx_hal_dma.c **** 
 511:../Drivers/STM32L4xx_HAL_Driver/Src/stm32l4xx_hal_dma.c ****     /* Check if DMAMUX Synchronization is enabled*/
 512:../Drivers/STM32L4xx_HAL_Driver/Src/stm32l4xx_hal_dma.c ****     if ((hdma->DMAmuxChannel->CCR & DMAMUX_CxCR_SE) != 0U)
 513:../Drivers/STM32L4xx_HAL_Driver/Src/stm32l4xx_hal_dma.c ****     {
 514:../Drivers/STM32L4xx_HAL_Driver/Src/stm32l4xx_hal_dma.c ****       /* Enable DMAMUX sync overrun IT*/
 515:../Drivers/STM32L4xx_HAL_Driver/Src/stm32l4xx_hal_dma.c ****       hdma->DMAmuxChannel->CCR |= DMAMUX_CxCR_SOIE;
 516:../Drivers/STM32L4xx_HAL_Driver/Src/stm32l4xx_hal_dma.c ****     }
 517:../Drivers/STM32L4xx_HAL_Driver/Src/stm32l4xx_hal_dma.c **** 
 518:../Drivers/STM32L4xx_HAL_Driver/Src/stm32l4xx_hal_dma.c ****     if (hdma->DMAmuxRequestGen != 0U)
 519:../Drivers/STM32L4xx_HAL_Driver/Src/stm32l4xx_hal_dma.c ****     {
 520:../Drivers/STM32L4xx_HAL_Driver/Src/stm32l4xx_hal_dma.c ****       /* if using DMAMUX request generator, enable the DMAMUX request generator overrun IT*/
 521:../Drivers/STM32L4xx_HAL_Driver/Src/stm32l4xx_hal_dma.c ****       /* enable the request gen overrun IT*/
 522:../Drivers/STM32L4xx_HAL_Driver/Src/stm32l4xx_hal_dma.c ****       hdma->DMAmuxRequestGen->RGCR |= DMAMUX_RGxCR_OIE;
 523:../Drivers/STM32L4xx_HAL_Driver/Src/stm32l4xx_hal_dma.c ****     }
 524:../Drivers/STM32L4xx_HAL_Driver/Src/stm32l4xx_hal_dma.c **** 
 525:../Drivers/STM32L4xx_HAL_Driver/Src/stm32l4xx_hal_dma.c **** #endif /* DMAMUX1 */
 526:../Drivers/STM32L4xx_HAL_Driver/Src/stm32l4xx_hal_dma.c **** 
 527:../Drivers/STM32L4xx_HAL_Driver/Src/stm32l4xx_hal_dma.c ****     /* Enable the Peripheral */
 528:../Drivers/STM32L4xx_HAL_Driver/Src/stm32l4xx_hal_dma.c ****     __HAL_DMA_ENABLE(hdma);
 529:../Drivers/STM32L4xx_HAL_Driver/Src/stm32l4xx_hal_dma.c ****   }
 530:../Drivers/STM32L4xx_HAL_Driver/Src/stm32l4xx_hal_dma.c ****   else
 531:../Drivers/STM32L4xx_HAL_Driver/Src/stm32l4xx_hal_dma.c ****   {
 532:../Drivers/STM32L4xx_HAL_Driver/Src/stm32l4xx_hal_dma.c ****     /* Process Unlocked */
 533:../Drivers/STM32L4xx_HAL_Driver/Src/stm32l4xx_hal_dma.c ****     __HAL_UNLOCK(hdma);
 534:../Drivers/STM32L4xx_HAL_Driver/Src/stm32l4xx_hal_dma.c **** 
 535:../Drivers/STM32L4xx_HAL_Driver/Src/stm32l4xx_hal_dma.c ****     /* Remain BUSY */
 536:../Drivers/STM32L4xx_HAL_Driver/Src/stm32l4xx_hal_dma.c ****     status = HAL_BUSY;
 537:../Drivers/STM32L4xx_HAL_Driver/Src/stm32l4xx_hal_dma.c ****   }
 538:../Drivers/STM32L4xx_HAL_Driver/Src/stm32l4xx_hal_dma.c ****   return status;
 539:../Drivers/STM32L4xx_HAL_Driver/Src/stm32l4xx_hal_dma.c **** }
 540:../Drivers/STM32L4xx_HAL_Driver/Src/stm32l4xx_hal_dma.c **** 
 541:../Drivers/STM32L4xx_HAL_Driver/Src/stm32l4xx_hal_dma.c **** /**
 542:../Drivers/STM32L4xx_HAL_Driver/Src/stm32l4xx_hal_dma.c ****   * @brief  Abort the DMA Transfer.
 543:../Drivers/STM32L4xx_HAL_Driver/Src/stm32l4xx_hal_dma.c ****   * @param  hdma pointer to a DMA_HandleTypeDef structure that contains
 544:../Drivers/STM32L4xx_HAL_Driver/Src/stm32l4xx_hal_dma.c ****   *               the configuration information for the specified DMA Channel.
 545:../Drivers/STM32L4xx_HAL_Driver/Src/stm32l4xx_hal_dma.c ****     * @retval HAL status
ARM GAS  Build/stm32l4xx_hal_dma.s 			page 11


 546:../Drivers/STM32L4xx_HAL_Driver/Src/stm32l4xx_hal_dma.c ****   */
 547:../Drivers/STM32L4xx_HAL_Driver/Src/stm32l4xx_hal_dma.c **** HAL_StatusTypeDef HAL_DMA_Abort(DMA_HandleTypeDef *hdma)
 548:../Drivers/STM32L4xx_HAL_Driver/Src/stm32l4xx_hal_dma.c **** {
 549:../Drivers/STM32L4xx_HAL_Driver/Src/stm32l4xx_hal_dma.c ****   HAL_StatusTypeDef status = HAL_OK;
 550:../Drivers/STM32L4xx_HAL_Driver/Src/stm32l4xx_hal_dma.c **** 
 551:../Drivers/STM32L4xx_HAL_Driver/Src/stm32l4xx_hal_dma.c ****   /* Check the DMA peripheral state */
 552:../Drivers/STM32L4xx_HAL_Driver/Src/stm32l4xx_hal_dma.c ****   if (hdma->State != HAL_DMA_STATE_BUSY)
 553:../Drivers/STM32L4xx_HAL_Driver/Src/stm32l4xx_hal_dma.c ****   {
 554:../Drivers/STM32L4xx_HAL_Driver/Src/stm32l4xx_hal_dma.c ****     hdma->ErrorCode = HAL_DMA_ERROR_NO_XFER;
 555:../Drivers/STM32L4xx_HAL_Driver/Src/stm32l4xx_hal_dma.c **** 
 556:../Drivers/STM32L4xx_HAL_Driver/Src/stm32l4xx_hal_dma.c ****     /* Process Unlocked */
 557:../Drivers/STM32L4xx_HAL_Driver/Src/stm32l4xx_hal_dma.c ****     __HAL_UNLOCK(hdma);
 558:../Drivers/STM32L4xx_HAL_Driver/Src/stm32l4xx_hal_dma.c **** 
 559:../Drivers/STM32L4xx_HAL_Driver/Src/stm32l4xx_hal_dma.c ****     return HAL_ERROR;
 560:../Drivers/STM32L4xx_HAL_Driver/Src/stm32l4xx_hal_dma.c ****   }
 561:../Drivers/STM32L4xx_HAL_Driver/Src/stm32l4xx_hal_dma.c ****   else
 562:../Drivers/STM32L4xx_HAL_Driver/Src/stm32l4xx_hal_dma.c ****   {
 563:../Drivers/STM32L4xx_HAL_Driver/Src/stm32l4xx_hal_dma.c ****     /* Disable DMA IT */
 564:../Drivers/STM32L4xx_HAL_Driver/Src/stm32l4xx_hal_dma.c ****     __HAL_DMA_DISABLE_IT(hdma, (DMA_IT_TC | DMA_IT_HT | DMA_IT_TE));
 565:../Drivers/STM32L4xx_HAL_Driver/Src/stm32l4xx_hal_dma.c **** 
 566:../Drivers/STM32L4xx_HAL_Driver/Src/stm32l4xx_hal_dma.c **** #if defined(DMAMUX1)
 567:../Drivers/STM32L4xx_HAL_Driver/Src/stm32l4xx_hal_dma.c ****     /* disable the DMAMUX sync overrun IT*/
 568:../Drivers/STM32L4xx_HAL_Driver/Src/stm32l4xx_hal_dma.c ****     hdma->DMAmuxChannel->CCR &= ~DMAMUX_CxCR_SOIE;
 569:../Drivers/STM32L4xx_HAL_Driver/Src/stm32l4xx_hal_dma.c **** #endif /* DMAMUX1 */
 570:../Drivers/STM32L4xx_HAL_Driver/Src/stm32l4xx_hal_dma.c **** 
 571:../Drivers/STM32L4xx_HAL_Driver/Src/stm32l4xx_hal_dma.c ****     /* Disable the channel */
 572:../Drivers/STM32L4xx_HAL_Driver/Src/stm32l4xx_hal_dma.c ****     __HAL_DMA_DISABLE(hdma);
 573:../Drivers/STM32L4xx_HAL_Driver/Src/stm32l4xx_hal_dma.c **** 
 574:../Drivers/STM32L4xx_HAL_Driver/Src/stm32l4xx_hal_dma.c ****     /* Clear all flags */
 575:../Drivers/STM32L4xx_HAL_Driver/Src/stm32l4xx_hal_dma.c ****     hdma->DmaBaseAddress->IFCR = (DMA_ISR_GIF1 << (hdma->ChannelIndex & 0x1CU));
 576:../Drivers/STM32L4xx_HAL_Driver/Src/stm32l4xx_hal_dma.c **** 
 577:../Drivers/STM32L4xx_HAL_Driver/Src/stm32l4xx_hal_dma.c **** #if defined(DMAMUX1)
 578:../Drivers/STM32L4xx_HAL_Driver/Src/stm32l4xx_hal_dma.c ****     /* Clear the DMAMUX synchro overrun flag */
 579:../Drivers/STM32L4xx_HAL_Driver/Src/stm32l4xx_hal_dma.c ****     hdma->DMAmuxChannelStatus->CFR = hdma->DMAmuxChannelStatusMask;
 580:../Drivers/STM32L4xx_HAL_Driver/Src/stm32l4xx_hal_dma.c **** 
 581:../Drivers/STM32L4xx_HAL_Driver/Src/stm32l4xx_hal_dma.c ****     if (hdma->DMAmuxRequestGen != 0U)
 582:../Drivers/STM32L4xx_HAL_Driver/Src/stm32l4xx_hal_dma.c ****     {
 583:../Drivers/STM32L4xx_HAL_Driver/Src/stm32l4xx_hal_dma.c ****       /* if using DMAMUX request generator, disable the DMAMUX request generator overrun IT*/
 584:../Drivers/STM32L4xx_HAL_Driver/Src/stm32l4xx_hal_dma.c ****       /* disable the request gen overrun IT*/
 585:../Drivers/STM32L4xx_HAL_Driver/Src/stm32l4xx_hal_dma.c ****       hdma->DMAmuxRequestGen->RGCR &= ~DMAMUX_RGxCR_OIE;
 586:../Drivers/STM32L4xx_HAL_Driver/Src/stm32l4xx_hal_dma.c **** 
 587:../Drivers/STM32L4xx_HAL_Driver/Src/stm32l4xx_hal_dma.c ****       /* Clear the DMAMUX request generator overrun flag */
 588:../Drivers/STM32L4xx_HAL_Driver/Src/stm32l4xx_hal_dma.c ****       hdma->DMAmuxRequestGenStatus->RGCFR = hdma->DMAmuxRequestGenStatusMask;
 589:../Drivers/STM32L4xx_HAL_Driver/Src/stm32l4xx_hal_dma.c ****     }
 590:../Drivers/STM32L4xx_HAL_Driver/Src/stm32l4xx_hal_dma.c **** 
 591:../Drivers/STM32L4xx_HAL_Driver/Src/stm32l4xx_hal_dma.c **** #endif /* DMAMUX1 */
 592:../Drivers/STM32L4xx_HAL_Driver/Src/stm32l4xx_hal_dma.c **** 
 593:../Drivers/STM32L4xx_HAL_Driver/Src/stm32l4xx_hal_dma.c ****     /* Change the DMA state */
 594:../Drivers/STM32L4xx_HAL_Driver/Src/stm32l4xx_hal_dma.c ****     hdma->State = HAL_DMA_STATE_READY;
 595:../Drivers/STM32L4xx_HAL_Driver/Src/stm32l4xx_hal_dma.c **** 
 596:../Drivers/STM32L4xx_HAL_Driver/Src/stm32l4xx_hal_dma.c ****     /* Process Unlocked */
 597:../Drivers/STM32L4xx_HAL_Driver/Src/stm32l4xx_hal_dma.c ****     __HAL_UNLOCK(hdma);
 598:../Drivers/STM32L4xx_HAL_Driver/Src/stm32l4xx_hal_dma.c **** 
 599:../Drivers/STM32L4xx_HAL_Driver/Src/stm32l4xx_hal_dma.c ****     return status;
 600:../Drivers/STM32L4xx_HAL_Driver/Src/stm32l4xx_hal_dma.c ****   }
 601:../Drivers/STM32L4xx_HAL_Driver/Src/stm32l4xx_hal_dma.c **** }
 602:../Drivers/STM32L4xx_HAL_Driver/Src/stm32l4xx_hal_dma.c **** 
ARM GAS  Build/stm32l4xx_hal_dma.s 			page 12


 603:../Drivers/STM32L4xx_HAL_Driver/Src/stm32l4xx_hal_dma.c **** /**
 604:../Drivers/STM32L4xx_HAL_Driver/Src/stm32l4xx_hal_dma.c ****   * @brief  Aborts the DMA Transfer in Interrupt mode.
 605:../Drivers/STM32L4xx_HAL_Driver/Src/stm32l4xx_hal_dma.c ****   * @param  hdma pointer to a DMA_HandleTypeDef structure that contains
 606:../Drivers/STM32L4xx_HAL_Driver/Src/stm32l4xx_hal_dma.c ****   *                 the configuration information for the specified DMA Channel.
 607:../Drivers/STM32L4xx_HAL_Driver/Src/stm32l4xx_hal_dma.c ****   * @retval HAL status
 608:../Drivers/STM32L4xx_HAL_Driver/Src/stm32l4xx_hal_dma.c ****   */
 609:../Drivers/STM32L4xx_HAL_Driver/Src/stm32l4xx_hal_dma.c **** HAL_StatusTypeDef HAL_DMA_Abort_IT(DMA_HandleTypeDef *hdma)
 610:../Drivers/STM32L4xx_HAL_Driver/Src/stm32l4xx_hal_dma.c **** {
 611:../Drivers/STM32L4xx_HAL_Driver/Src/stm32l4xx_hal_dma.c ****   HAL_StatusTypeDef status = HAL_OK;
 612:../Drivers/STM32L4xx_HAL_Driver/Src/stm32l4xx_hal_dma.c **** 
 613:../Drivers/STM32L4xx_HAL_Driver/Src/stm32l4xx_hal_dma.c ****   if (HAL_DMA_STATE_BUSY != hdma->State)
 614:../Drivers/STM32L4xx_HAL_Driver/Src/stm32l4xx_hal_dma.c ****   {
 615:../Drivers/STM32L4xx_HAL_Driver/Src/stm32l4xx_hal_dma.c ****     /* no transfer ongoing */
 616:../Drivers/STM32L4xx_HAL_Driver/Src/stm32l4xx_hal_dma.c ****     hdma->ErrorCode = HAL_DMA_ERROR_NO_XFER;
 617:../Drivers/STM32L4xx_HAL_Driver/Src/stm32l4xx_hal_dma.c **** 
 618:../Drivers/STM32L4xx_HAL_Driver/Src/stm32l4xx_hal_dma.c ****     status = HAL_ERROR;
 619:../Drivers/STM32L4xx_HAL_Driver/Src/stm32l4xx_hal_dma.c ****   }
 620:../Drivers/STM32L4xx_HAL_Driver/Src/stm32l4xx_hal_dma.c ****   else
 621:../Drivers/STM32L4xx_HAL_Driver/Src/stm32l4xx_hal_dma.c ****   {
 622:../Drivers/STM32L4xx_HAL_Driver/Src/stm32l4xx_hal_dma.c ****     /* Disable DMA IT */
 623:../Drivers/STM32L4xx_HAL_Driver/Src/stm32l4xx_hal_dma.c ****     __HAL_DMA_DISABLE_IT(hdma, (DMA_IT_TC | DMA_IT_HT | DMA_IT_TE));
 624:../Drivers/STM32L4xx_HAL_Driver/Src/stm32l4xx_hal_dma.c **** 
 625:../Drivers/STM32L4xx_HAL_Driver/Src/stm32l4xx_hal_dma.c ****     /* Disable the channel */
 626:../Drivers/STM32L4xx_HAL_Driver/Src/stm32l4xx_hal_dma.c ****     __HAL_DMA_DISABLE(hdma);
 627:../Drivers/STM32L4xx_HAL_Driver/Src/stm32l4xx_hal_dma.c **** 
 628:../Drivers/STM32L4xx_HAL_Driver/Src/stm32l4xx_hal_dma.c **** #if defined(DMAMUX1)
 629:../Drivers/STM32L4xx_HAL_Driver/Src/stm32l4xx_hal_dma.c ****     /* disable the DMAMUX sync overrun IT*/
 630:../Drivers/STM32L4xx_HAL_Driver/Src/stm32l4xx_hal_dma.c ****     hdma->DMAmuxChannel->CCR &= ~DMAMUX_CxCR_SOIE;
 631:../Drivers/STM32L4xx_HAL_Driver/Src/stm32l4xx_hal_dma.c **** 
 632:../Drivers/STM32L4xx_HAL_Driver/Src/stm32l4xx_hal_dma.c ****     /* Clear all flags */
 633:../Drivers/STM32L4xx_HAL_Driver/Src/stm32l4xx_hal_dma.c ****     hdma->DmaBaseAddress->IFCR = (DMA_ISR_GIF1 << (hdma->ChannelIndex & 0x1CU));
 634:../Drivers/STM32L4xx_HAL_Driver/Src/stm32l4xx_hal_dma.c **** 
 635:../Drivers/STM32L4xx_HAL_Driver/Src/stm32l4xx_hal_dma.c ****     /* Clear the DMAMUX synchro overrun flag */
 636:../Drivers/STM32L4xx_HAL_Driver/Src/stm32l4xx_hal_dma.c ****     hdma->DMAmuxChannelStatus->CFR = hdma->DMAmuxChannelStatusMask;
 637:../Drivers/STM32L4xx_HAL_Driver/Src/stm32l4xx_hal_dma.c **** 
 638:../Drivers/STM32L4xx_HAL_Driver/Src/stm32l4xx_hal_dma.c ****     if (hdma->DMAmuxRequestGen != 0U)
 639:../Drivers/STM32L4xx_HAL_Driver/Src/stm32l4xx_hal_dma.c ****     {
 640:../Drivers/STM32L4xx_HAL_Driver/Src/stm32l4xx_hal_dma.c ****       /* if using DMAMUX request generator, disable the DMAMUX request generator overrun IT*/
 641:../Drivers/STM32L4xx_HAL_Driver/Src/stm32l4xx_hal_dma.c ****       /* disable the request gen overrun IT*/
 642:../Drivers/STM32L4xx_HAL_Driver/Src/stm32l4xx_hal_dma.c ****       hdma->DMAmuxRequestGen->RGCR &= ~DMAMUX_RGxCR_OIE;
 643:../Drivers/STM32L4xx_HAL_Driver/Src/stm32l4xx_hal_dma.c **** 
 644:../Drivers/STM32L4xx_HAL_Driver/Src/stm32l4xx_hal_dma.c ****       /* Clear the DMAMUX request generator overrun flag */
 645:../Drivers/STM32L4xx_HAL_Driver/Src/stm32l4xx_hal_dma.c ****       hdma->DMAmuxRequestGenStatus->RGCFR = hdma->DMAmuxRequestGenStatusMask;
 646:../Drivers/STM32L4xx_HAL_Driver/Src/stm32l4xx_hal_dma.c ****     }
 647:../Drivers/STM32L4xx_HAL_Driver/Src/stm32l4xx_hal_dma.c **** 
 648:../Drivers/STM32L4xx_HAL_Driver/Src/stm32l4xx_hal_dma.c **** #else
 649:../Drivers/STM32L4xx_HAL_Driver/Src/stm32l4xx_hal_dma.c ****     /* Clear all flags */
 650:../Drivers/STM32L4xx_HAL_Driver/Src/stm32l4xx_hal_dma.c ****     hdma->DmaBaseAddress->IFCR = (DMA_ISR_GIF1 << (hdma->ChannelIndex & 0x1CU));
 651:../Drivers/STM32L4xx_HAL_Driver/Src/stm32l4xx_hal_dma.c **** #endif /* DMAMUX1 */
 652:../Drivers/STM32L4xx_HAL_Driver/Src/stm32l4xx_hal_dma.c **** 
 653:../Drivers/STM32L4xx_HAL_Driver/Src/stm32l4xx_hal_dma.c ****     /* Change the DMA state */
 654:../Drivers/STM32L4xx_HAL_Driver/Src/stm32l4xx_hal_dma.c ****     hdma->State = HAL_DMA_STATE_READY;
 655:../Drivers/STM32L4xx_HAL_Driver/Src/stm32l4xx_hal_dma.c **** 
 656:../Drivers/STM32L4xx_HAL_Driver/Src/stm32l4xx_hal_dma.c ****     /* Process Unlocked */
 657:../Drivers/STM32L4xx_HAL_Driver/Src/stm32l4xx_hal_dma.c ****     __HAL_UNLOCK(hdma);
 658:../Drivers/STM32L4xx_HAL_Driver/Src/stm32l4xx_hal_dma.c **** 
 659:../Drivers/STM32L4xx_HAL_Driver/Src/stm32l4xx_hal_dma.c ****     /* Call User Abort callback */
ARM GAS  Build/stm32l4xx_hal_dma.s 			page 13


 660:../Drivers/STM32L4xx_HAL_Driver/Src/stm32l4xx_hal_dma.c ****     if (hdma->XferAbortCallback != NULL)
 661:../Drivers/STM32L4xx_HAL_Driver/Src/stm32l4xx_hal_dma.c ****     {
 662:../Drivers/STM32L4xx_HAL_Driver/Src/stm32l4xx_hal_dma.c ****       hdma->XferAbortCallback(hdma);
 663:../Drivers/STM32L4xx_HAL_Driver/Src/stm32l4xx_hal_dma.c ****     }
 664:../Drivers/STM32L4xx_HAL_Driver/Src/stm32l4xx_hal_dma.c ****   }
 665:../Drivers/STM32L4xx_HAL_Driver/Src/stm32l4xx_hal_dma.c ****   return status;
 666:../Drivers/STM32L4xx_HAL_Driver/Src/stm32l4xx_hal_dma.c **** }
 667:../Drivers/STM32L4xx_HAL_Driver/Src/stm32l4xx_hal_dma.c **** 
 668:../Drivers/STM32L4xx_HAL_Driver/Src/stm32l4xx_hal_dma.c **** /**
 669:../Drivers/STM32L4xx_HAL_Driver/Src/stm32l4xx_hal_dma.c ****   * @brief  Polling for transfer complete.
 670:../Drivers/STM32L4xx_HAL_Driver/Src/stm32l4xx_hal_dma.c ****   * @param  hdma pointer to a DMA_HandleTypeDef structure that contains
 671:../Drivers/STM32L4xx_HAL_Driver/Src/stm32l4xx_hal_dma.c ****   *                  the configuration information for the specified DMA Channel.
 672:../Drivers/STM32L4xx_HAL_Driver/Src/stm32l4xx_hal_dma.c ****   * @param  CompleteLevel Specifies the DMA level complete.
 673:../Drivers/STM32L4xx_HAL_Driver/Src/stm32l4xx_hal_dma.c ****   * @param  Timeout       Timeout duration.
 674:../Drivers/STM32L4xx_HAL_Driver/Src/stm32l4xx_hal_dma.c ****   * @retval HAL status
 675:../Drivers/STM32L4xx_HAL_Driver/Src/stm32l4xx_hal_dma.c ****   */
 676:../Drivers/STM32L4xx_HAL_Driver/Src/stm32l4xx_hal_dma.c **** HAL_StatusTypeDef HAL_DMA_PollForTransfer(DMA_HandleTypeDef *hdma, HAL_DMA_LevelCompleteTypeDef Com
 677:../Drivers/STM32L4xx_HAL_Driver/Src/stm32l4xx_hal_dma.c **** {
 678:../Drivers/STM32L4xx_HAL_Driver/Src/stm32l4xx_hal_dma.c ****   uint32_t temp;
 679:../Drivers/STM32L4xx_HAL_Driver/Src/stm32l4xx_hal_dma.c ****   uint32_t tickstart;
 680:../Drivers/STM32L4xx_HAL_Driver/Src/stm32l4xx_hal_dma.c **** 
 681:../Drivers/STM32L4xx_HAL_Driver/Src/stm32l4xx_hal_dma.c ****   if (HAL_DMA_STATE_BUSY != hdma->State)
 682:../Drivers/STM32L4xx_HAL_Driver/Src/stm32l4xx_hal_dma.c ****   {
 683:../Drivers/STM32L4xx_HAL_Driver/Src/stm32l4xx_hal_dma.c ****     /* no transfer ongoing */
 684:../Drivers/STM32L4xx_HAL_Driver/Src/stm32l4xx_hal_dma.c ****     hdma->ErrorCode = HAL_DMA_ERROR_NO_XFER;
 685:../Drivers/STM32L4xx_HAL_Driver/Src/stm32l4xx_hal_dma.c ****     __HAL_UNLOCK(hdma);
 686:../Drivers/STM32L4xx_HAL_Driver/Src/stm32l4xx_hal_dma.c ****     return HAL_ERROR;
 687:../Drivers/STM32L4xx_HAL_Driver/Src/stm32l4xx_hal_dma.c ****   }
 688:../Drivers/STM32L4xx_HAL_Driver/Src/stm32l4xx_hal_dma.c **** 
 689:../Drivers/STM32L4xx_HAL_Driver/Src/stm32l4xx_hal_dma.c ****   /* Polling mode not supported in circular mode */
 690:../Drivers/STM32L4xx_HAL_Driver/Src/stm32l4xx_hal_dma.c ****   if ((hdma->Instance->CCR & DMA_CCR_CIRC) != 0U)
 691:../Drivers/STM32L4xx_HAL_Driver/Src/stm32l4xx_hal_dma.c ****   {
 692:../Drivers/STM32L4xx_HAL_Driver/Src/stm32l4xx_hal_dma.c ****     hdma->ErrorCode = HAL_DMA_ERROR_NOT_SUPPORTED;
 693:../Drivers/STM32L4xx_HAL_Driver/Src/stm32l4xx_hal_dma.c ****     return HAL_ERROR;
 694:../Drivers/STM32L4xx_HAL_Driver/Src/stm32l4xx_hal_dma.c ****   }
 695:../Drivers/STM32L4xx_HAL_Driver/Src/stm32l4xx_hal_dma.c **** 
 696:../Drivers/STM32L4xx_HAL_Driver/Src/stm32l4xx_hal_dma.c ****   /* Get the level transfer complete flag */
 697:../Drivers/STM32L4xx_HAL_Driver/Src/stm32l4xx_hal_dma.c ****   if (HAL_DMA_FULL_TRANSFER == CompleteLevel)
 698:../Drivers/STM32L4xx_HAL_Driver/Src/stm32l4xx_hal_dma.c ****   {
 699:../Drivers/STM32L4xx_HAL_Driver/Src/stm32l4xx_hal_dma.c ****     /* Transfer Complete flag */
 700:../Drivers/STM32L4xx_HAL_Driver/Src/stm32l4xx_hal_dma.c ****     temp = DMA_FLAG_TC1 << (hdma->ChannelIndex & 0x1CU);
 701:../Drivers/STM32L4xx_HAL_Driver/Src/stm32l4xx_hal_dma.c ****   }
 702:../Drivers/STM32L4xx_HAL_Driver/Src/stm32l4xx_hal_dma.c ****   else
 703:../Drivers/STM32L4xx_HAL_Driver/Src/stm32l4xx_hal_dma.c ****   {
 704:../Drivers/STM32L4xx_HAL_Driver/Src/stm32l4xx_hal_dma.c ****     /* Half Transfer Complete flag */
 705:../Drivers/STM32L4xx_HAL_Driver/Src/stm32l4xx_hal_dma.c ****     temp = DMA_FLAG_HT1 << (hdma->ChannelIndex & 0x1CU);
 706:../Drivers/STM32L4xx_HAL_Driver/Src/stm32l4xx_hal_dma.c ****   }
 707:../Drivers/STM32L4xx_HAL_Driver/Src/stm32l4xx_hal_dma.c **** 
 708:../Drivers/STM32L4xx_HAL_Driver/Src/stm32l4xx_hal_dma.c ****   /* Get tick */
 709:../Drivers/STM32L4xx_HAL_Driver/Src/stm32l4xx_hal_dma.c ****   tickstart = HAL_GetTick();
 710:../Drivers/STM32L4xx_HAL_Driver/Src/stm32l4xx_hal_dma.c **** 
 711:../Drivers/STM32L4xx_HAL_Driver/Src/stm32l4xx_hal_dma.c ****   while ((hdma->DmaBaseAddress->ISR & temp) == 0U)
 712:../Drivers/STM32L4xx_HAL_Driver/Src/stm32l4xx_hal_dma.c ****   {
 713:../Drivers/STM32L4xx_HAL_Driver/Src/stm32l4xx_hal_dma.c ****     if ((hdma->DmaBaseAddress->ISR & (DMA_FLAG_TE1 << (hdma->ChannelIndex & 0x1CU))) != 0U)
 714:../Drivers/STM32L4xx_HAL_Driver/Src/stm32l4xx_hal_dma.c ****     {
 715:../Drivers/STM32L4xx_HAL_Driver/Src/stm32l4xx_hal_dma.c ****       /* When a DMA transfer error occurs */
 716:../Drivers/STM32L4xx_HAL_Driver/Src/stm32l4xx_hal_dma.c ****       /* A hardware clear of its EN bits is performed */
ARM GAS  Build/stm32l4xx_hal_dma.s 			page 14


 717:../Drivers/STM32L4xx_HAL_Driver/Src/stm32l4xx_hal_dma.c ****       /* Clear all flags */
 718:../Drivers/STM32L4xx_HAL_Driver/Src/stm32l4xx_hal_dma.c ****       hdma->DmaBaseAddress->IFCR = (DMA_ISR_GIF1 << (hdma->ChannelIndex & 0x1CU));
 719:../Drivers/STM32L4xx_HAL_Driver/Src/stm32l4xx_hal_dma.c **** 
 720:../Drivers/STM32L4xx_HAL_Driver/Src/stm32l4xx_hal_dma.c ****       /* Update error code */
 721:../Drivers/STM32L4xx_HAL_Driver/Src/stm32l4xx_hal_dma.c ****       hdma->ErrorCode = HAL_DMA_ERROR_TE;
 722:../Drivers/STM32L4xx_HAL_Driver/Src/stm32l4xx_hal_dma.c **** 
 723:../Drivers/STM32L4xx_HAL_Driver/Src/stm32l4xx_hal_dma.c ****       /* Change the DMA state */
 724:../Drivers/STM32L4xx_HAL_Driver/Src/stm32l4xx_hal_dma.c ****       hdma->State = HAL_DMA_STATE_READY;
 725:../Drivers/STM32L4xx_HAL_Driver/Src/stm32l4xx_hal_dma.c **** 
 726:../Drivers/STM32L4xx_HAL_Driver/Src/stm32l4xx_hal_dma.c ****       /* Process Unlocked */
 727:../Drivers/STM32L4xx_HAL_Driver/Src/stm32l4xx_hal_dma.c ****       __HAL_UNLOCK(hdma);
 728:../Drivers/STM32L4xx_HAL_Driver/Src/stm32l4xx_hal_dma.c **** 
 729:../Drivers/STM32L4xx_HAL_Driver/Src/stm32l4xx_hal_dma.c ****       return HAL_ERROR;
 730:../Drivers/STM32L4xx_HAL_Driver/Src/stm32l4xx_hal_dma.c ****     }
 731:../Drivers/STM32L4xx_HAL_Driver/Src/stm32l4xx_hal_dma.c ****     /* Check for the Timeout */
 732:../Drivers/STM32L4xx_HAL_Driver/Src/stm32l4xx_hal_dma.c ****     if (Timeout != HAL_MAX_DELAY)
 733:../Drivers/STM32L4xx_HAL_Driver/Src/stm32l4xx_hal_dma.c ****     {
 734:../Drivers/STM32L4xx_HAL_Driver/Src/stm32l4xx_hal_dma.c ****       if (((HAL_GetTick() - tickstart) > Timeout) || (Timeout == 0U))
 735:../Drivers/STM32L4xx_HAL_Driver/Src/stm32l4xx_hal_dma.c ****       {
 736:../Drivers/STM32L4xx_HAL_Driver/Src/stm32l4xx_hal_dma.c ****         /* Update error code */
 737:../Drivers/STM32L4xx_HAL_Driver/Src/stm32l4xx_hal_dma.c ****         hdma->ErrorCode = HAL_DMA_ERROR_TIMEOUT;
 738:../Drivers/STM32L4xx_HAL_Driver/Src/stm32l4xx_hal_dma.c **** 
 739:../Drivers/STM32L4xx_HAL_Driver/Src/stm32l4xx_hal_dma.c ****         /* Change the DMA state */
 740:../Drivers/STM32L4xx_HAL_Driver/Src/stm32l4xx_hal_dma.c ****         hdma->State = HAL_DMA_STATE_READY;
 741:../Drivers/STM32L4xx_HAL_Driver/Src/stm32l4xx_hal_dma.c **** 
 742:../Drivers/STM32L4xx_HAL_Driver/Src/stm32l4xx_hal_dma.c ****         /* Process Unlocked */
 743:../Drivers/STM32L4xx_HAL_Driver/Src/stm32l4xx_hal_dma.c ****         __HAL_UNLOCK(hdma);
 744:../Drivers/STM32L4xx_HAL_Driver/Src/stm32l4xx_hal_dma.c **** 
 745:../Drivers/STM32L4xx_HAL_Driver/Src/stm32l4xx_hal_dma.c ****         return HAL_ERROR;
 746:../Drivers/STM32L4xx_HAL_Driver/Src/stm32l4xx_hal_dma.c ****       }
 747:../Drivers/STM32L4xx_HAL_Driver/Src/stm32l4xx_hal_dma.c ****     }
 748:../Drivers/STM32L4xx_HAL_Driver/Src/stm32l4xx_hal_dma.c ****   }
 749:../Drivers/STM32L4xx_HAL_Driver/Src/stm32l4xx_hal_dma.c **** 
 750:../Drivers/STM32L4xx_HAL_Driver/Src/stm32l4xx_hal_dma.c **** #if defined(DMAMUX1)
 751:../Drivers/STM32L4xx_HAL_Driver/Src/stm32l4xx_hal_dma.c ****   /*Check for DMAMUX Request generator (if used) overrun status */
 752:../Drivers/STM32L4xx_HAL_Driver/Src/stm32l4xx_hal_dma.c ****   if (hdma->DMAmuxRequestGen != 0U)
 753:../Drivers/STM32L4xx_HAL_Driver/Src/stm32l4xx_hal_dma.c ****   {
 754:../Drivers/STM32L4xx_HAL_Driver/Src/stm32l4xx_hal_dma.c ****     /* if using DMAMUX request generator Check for DMAMUX request generator overrun */
 755:../Drivers/STM32L4xx_HAL_Driver/Src/stm32l4xx_hal_dma.c ****     if ((hdma->DMAmuxRequestGenStatus->RGSR & hdma->DMAmuxRequestGenStatusMask) != 0U)
 756:../Drivers/STM32L4xx_HAL_Driver/Src/stm32l4xx_hal_dma.c ****     {
 757:../Drivers/STM32L4xx_HAL_Driver/Src/stm32l4xx_hal_dma.c ****       /* Disable the request gen overrun interrupt */
 758:../Drivers/STM32L4xx_HAL_Driver/Src/stm32l4xx_hal_dma.c ****       hdma->DMAmuxRequestGen->RGCR |= DMAMUX_RGxCR_OIE;
 759:../Drivers/STM32L4xx_HAL_Driver/Src/stm32l4xx_hal_dma.c **** 
 760:../Drivers/STM32L4xx_HAL_Driver/Src/stm32l4xx_hal_dma.c ****       /* Clear the DMAMUX request generator overrun flag */
 761:../Drivers/STM32L4xx_HAL_Driver/Src/stm32l4xx_hal_dma.c ****       hdma->DMAmuxRequestGenStatus->RGCFR = hdma->DMAmuxRequestGenStatusMask;
 762:../Drivers/STM32L4xx_HAL_Driver/Src/stm32l4xx_hal_dma.c **** 
 763:../Drivers/STM32L4xx_HAL_Driver/Src/stm32l4xx_hal_dma.c ****       /* Update error code */
 764:../Drivers/STM32L4xx_HAL_Driver/Src/stm32l4xx_hal_dma.c ****       hdma->ErrorCode |= HAL_DMA_ERROR_REQGEN;
 765:../Drivers/STM32L4xx_HAL_Driver/Src/stm32l4xx_hal_dma.c ****     }
 766:../Drivers/STM32L4xx_HAL_Driver/Src/stm32l4xx_hal_dma.c ****   }
 767:../Drivers/STM32L4xx_HAL_Driver/Src/stm32l4xx_hal_dma.c **** 
 768:../Drivers/STM32L4xx_HAL_Driver/Src/stm32l4xx_hal_dma.c ****   /* Check for DMAMUX Synchronization overrun */
 769:../Drivers/STM32L4xx_HAL_Driver/Src/stm32l4xx_hal_dma.c ****   if ((hdma->DMAmuxChannelStatus->CSR & hdma->DMAmuxChannelStatusMask) != 0U)
 770:../Drivers/STM32L4xx_HAL_Driver/Src/stm32l4xx_hal_dma.c ****   {
 771:../Drivers/STM32L4xx_HAL_Driver/Src/stm32l4xx_hal_dma.c ****     /* Clear the DMAMUX synchro overrun flag */
 772:../Drivers/STM32L4xx_HAL_Driver/Src/stm32l4xx_hal_dma.c ****     hdma->DMAmuxChannelStatus->CFR = hdma->DMAmuxChannelStatusMask;
 773:../Drivers/STM32L4xx_HAL_Driver/Src/stm32l4xx_hal_dma.c **** 
ARM GAS  Build/stm32l4xx_hal_dma.s 			page 15


 774:../Drivers/STM32L4xx_HAL_Driver/Src/stm32l4xx_hal_dma.c ****     /* Update error code */
 775:../Drivers/STM32L4xx_HAL_Driver/Src/stm32l4xx_hal_dma.c ****     hdma->ErrorCode |= HAL_DMA_ERROR_SYNC;
 776:../Drivers/STM32L4xx_HAL_Driver/Src/stm32l4xx_hal_dma.c ****   }
 777:../Drivers/STM32L4xx_HAL_Driver/Src/stm32l4xx_hal_dma.c **** #endif /* DMAMUX1 */
 778:../Drivers/STM32L4xx_HAL_Driver/Src/stm32l4xx_hal_dma.c **** 
 779:../Drivers/STM32L4xx_HAL_Driver/Src/stm32l4xx_hal_dma.c ****   if (HAL_DMA_FULL_TRANSFER == CompleteLevel)
 780:../Drivers/STM32L4xx_HAL_Driver/Src/stm32l4xx_hal_dma.c ****   {
 781:../Drivers/STM32L4xx_HAL_Driver/Src/stm32l4xx_hal_dma.c ****     /* Clear the transfer complete flag */
 782:../Drivers/STM32L4xx_HAL_Driver/Src/stm32l4xx_hal_dma.c ****     hdma->DmaBaseAddress->IFCR = (DMA_FLAG_TC1 << (hdma->ChannelIndex & 0x1CU));
 783:../Drivers/STM32L4xx_HAL_Driver/Src/stm32l4xx_hal_dma.c **** 
 784:../Drivers/STM32L4xx_HAL_Driver/Src/stm32l4xx_hal_dma.c ****     /* Process unlocked */
 785:../Drivers/STM32L4xx_HAL_Driver/Src/stm32l4xx_hal_dma.c ****     __HAL_UNLOCK(hdma);
 786:../Drivers/STM32L4xx_HAL_Driver/Src/stm32l4xx_hal_dma.c **** 
 787:../Drivers/STM32L4xx_HAL_Driver/Src/stm32l4xx_hal_dma.c ****     /* The selected Channelx EN bit is cleared (DMA is disabled and
 788:../Drivers/STM32L4xx_HAL_Driver/Src/stm32l4xx_hal_dma.c ****     all transfers are complete) */
 789:../Drivers/STM32L4xx_HAL_Driver/Src/stm32l4xx_hal_dma.c ****     hdma->State = HAL_DMA_STATE_READY;
 790:../Drivers/STM32L4xx_HAL_Driver/Src/stm32l4xx_hal_dma.c ****   }
 791:../Drivers/STM32L4xx_HAL_Driver/Src/stm32l4xx_hal_dma.c ****   else
 792:../Drivers/STM32L4xx_HAL_Driver/Src/stm32l4xx_hal_dma.c ****   {
 793:../Drivers/STM32L4xx_HAL_Driver/Src/stm32l4xx_hal_dma.c ****     /* Clear the half transfer complete flag */
 794:../Drivers/STM32L4xx_HAL_Driver/Src/stm32l4xx_hal_dma.c ****     hdma->DmaBaseAddress->IFCR = (DMA_FLAG_HT1 << (hdma->ChannelIndex & 0x1CU));
 795:../Drivers/STM32L4xx_HAL_Driver/Src/stm32l4xx_hal_dma.c ****   }
 796:../Drivers/STM32L4xx_HAL_Driver/Src/stm32l4xx_hal_dma.c **** 
 797:../Drivers/STM32L4xx_HAL_Driver/Src/stm32l4xx_hal_dma.c ****   return HAL_OK;
 798:../Drivers/STM32L4xx_HAL_Driver/Src/stm32l4xx_hal_dma.c **** }
 799:../Drivers/STM32L4xx_HAL_Driver/Src/stm32l4xx_hal_dma.c **** 
 800:../Drivers/STM32L4xx_HAL_Driver/Src/stm32l4xx_hal_dma.c **** /**
 801:../Drivers/STM32L4xx_HAL_Driver/Src/stm32l4xx_hal_dma.c ****   * @brief  Handle DMA interrupt request.
 802:../Drivers/STM32L4xx_HAL_Driver/Src/stm32l4xx_hal_dma.c ****   * @param  hdma pointer to a DMA_HandleTypeDef structure that contains
 803:../Drivers/STM32L4xx_HAL_Driver/Src/stm32l4xx_hal_dma.c ****   *               the configuration information for the specified DMA Channel.
 804:../Drivers/STM32L4xx_HAL_Driver/Src/stm32l4xx_hal_dma.c ****   * @retval None
 805:../Drivers/STM32L4xx_HAL_Driver/Src/stm32l4xx_hal_dma.c ****   */
 806:../Drivers/STM32L4xx_HAL_Driver/Src/stm32l4xx_hal_dma.c **** void HAL_DMA_IRQHandler(DMA_HandleTypeDef *hdma)
 807:../Drivers/STM32L4xx_HAL_Driver/Src/stm32l4xx_hal_dma.c **** {
 808:../Drivers/STM32L4xx_HAL_Driver/Src/stm32l4xx_hal_dma.c ****   uint32_t flag_it = hdma->DmaBaseAddress->ISR;
 809:../Drivers/STM32L4xx_HAL_Driver/Src/stm32l4xx_hal_dma.c ****   uint32_t source_it = hdma->Instance->CCR;
 810:../Drivers/STM32L4xx_HAL_Driver/Src/stm32l4xx_hal_dma.c **** 
 811:../Drivers/STM32L4xx_HAL_Driver/Src/stm32l4xx_hal_dma.c ****   /* Half Transfer Complete Interrupt management ******************************/
 812:../Drivers/STM32L4xx_HAL_Driver/Src/stm32l4xx_hal_dma.c ****   if (((flag_it & (DMA_FLAG_HT1 << (hdma->ChannelIndex & 0x1CU))) != 0U) && ((source_it & DMA_IT_HT
 813:../Drivers/STM32L4xx_HAL_Driver/Src/stm32l4xx_hal_dma.c ****   {
 814:../Drivers/STM32L4xx_HAL_Driver/Src/stm32l4xx_hal_dma.c ****     /* Disable the half transfer interrupt if the DMA mode is not CIRCULAR */
 815:../Drivers/STM32L4xx_HAL_Driver/Src/stm32l4xx_hal_dma.c ****     if ((hdma->Instance->CCR & DMA_CCR_CIRC) == 0U)
 816:../Drivers/STM32L4xx_HAL_Driver/Src/stm32l4xx_hal_dma.c ****     {
 817:../Drivers/STM32L4xx_HAL_Driver/Src/stm32l4xx_hal_dma.c ****       /* Disable the half transfer interrupt */
 818:../Drivers/STM32L4xx_HAL_Driver/Src/stm32l4xx_hal_dma.c ****       __HAL_DMA_DISABLE_IT(hdma, DMA_IT_HT);
 819:../Drivers/STM32L4xx_HAL_Driver/Src/stm32l4xx_hal_dma.c ****     }
 820:../Drivers/STM32L4xx_HAL_Driver/Src/stm32l4xx_hal_dma.c ****     /* Clear the half transfer complete flag */
 821:../Drivers/STM32L4xx_HAL_Driver/Src/stm32l4xx_hal_dma.c ****     hdma->DmaBaseAddress->IFCR = DMA_ISR_HTIF1 << (hdma->ChannelIndex & 0x1CU);
 822:../Drivers/STM32L4xx_HAL_Driver/Src/stm32l4xx_hal_dma.c **** 
 823:../Drivers/STM32L4xx_HAL_Driver/Src/stm32l4xx_hal_dma.c ****     /* DMA peripheral state is not updated in Half Transfer */
 824:../Drivers/STM32L4xx_HAL_Driver/Src/stm32l4xx_hal_dma.c ****     /* but in Transfer Complete case */
 825:../Drivers/STM32L4xx_HAL_Driver/Src/stm32l4xx_hal_dma.c **** 
 826:../Drivers/STM32L4xx_HAL_Driver/Src/stm32l4xx_hal_dma.c ****     if (hdma->XferHalfCpltCallback != NULL)
 827:../Drivers/STM32L4xx_HAL_Driver/Src/stm32l4xx_hal_dma.c ****     {
 828:../Drivers/STM32L4xx_HAL_Driver/Src/stm32l4xx_hal_dma.c ****       /* Half transfer callback */
 829:../Drivers/STM32L4xx_HAL_Driver/Src/stm32l4xx_hal_dma.c ****       hdma->XferHalfCpltCallback(hdma);
 830:../Drivers/STM32L4xx_HAL_Driver/Src/stm32l4xx_hal_dma.c ****     }
ARM GAS  Build/stm32l4xx_hal_dma.s 			page 16


 831:../Drivers/STM32L4xx_HAL_Driver/Src/stm32l4xx_hal_dma.c ****   }
 832:../Drivers/STM32L4xx_HAL_Driver/Src/stm32l4xx_hal_dma.c **** 
 833:../Drivers/STM32L4xx_HAL_Driver/Src/stm32l4xx_hal_dma.c ****   /* Transfer Complete Interrupt management ***********************************/
 834:../Drivers/STM32L4xx_HAL_Driver/Src/stm32l4xx_hal_dma.c ****   else if (((flag_it & (DMA_FLAG_TC1 << (hdma->ChannelIndex & 0x1CU))) != 0U) && ((source_it & DMA_
 835:../Drivers/STM32L4xx_HAL_Driver/Src/stm32l4xx_hal_dma.c ****   {
 836:../Drivers/STM32L4xx_HAL_Driver/Src/stm32l4xx_hal_dma.c ****     if ((hdma->Instance->CCR & DMA_CCR_CIRC) == 0U)
 837:../Drivers/STM32L4xx_HAL_Driver/Src/stm32l4xx_hal_dma.c ****     {
 838:../Drivers/STM32L4xx_HAL_Driver/Src/stm32l4xx_hal_dma.c ****       /* Disable the transfer complete interrupt if the DMA mode is not CIRCULAR */
 839:../Drivers/STM32L4xx_HAL_Driver/Src/stm32l4xx_hal_dma.c ****       /* Disable the transfer complete and error interrupt */
 840:../Drivers/STM32L4xx_HAL_Driver/Src/stm32l4xx_hal_dma.c ****       /* if the DMA mode is not CIRCULAR  */
 841:../Drivers/STM32L4xx_HAL_Driver/Src/stm32l4xx_hal_dma.c ****       __HAL_DMA_DISABLE_IT(hdma, DMA_IT_TE | DMA_IT_TC);
 842:../Drivers/STM32L4xx_HAL_Driver/Src/stm32l4xx_hal_dma.c **** 
 843:../Drivers/STM32L4xx_HAL_Driver/Src/stm32l4xx_hal_dma.c ****       /* Change the DMA state */
 844:../Drivers/STM32L4xx_HAL_Driver/Src/stm32l4xx_hal_dma.c ****       hdma->State = HAL_DMA_STATE_READY;
 845:../Drivers/STM32L4xx_HAL_Driver/Src/stm32l4xx_hal_dma.c ****     }
 846:../Drivers/STM32L4xx_HAL_Driver/Src/stm32l4xx_hal_dma.c ****     /* Clear the transfer complete flag */
 847:../Drivers/STM32L4xx_HAL_Driver/Src/stm32l4xx_hal_dma.c ****     hdma->DmaBaseAddress->IFCR = (DMA_ISR_TCIF1 << (hdma->ChannelIndex & 0x1CU));
 848:../Drivers/STM32L4xx_HAL_Driver/Src/stm32l4xx_hal_dma.c **** 
 849:../Drivers/STM32L4xx_HAL_Driver/Src/stm32l4xx_hal_dma.c ****     /* Process Unlocked */
 850:../Drivers/STM32L4xx_HAL_Driver/Src/stm32l4xx_hal_dma.c ****     __HAL_UNLOCK(hdma);
 851:../Drivers/STM32L4xx_HAL_Driver/Src/stm32l4xx_hal_dma.c **** 
 852:../Drivers/STM32L4xx_HAL_Driver/Src/stm32l4xx_hal_dma.c ****     if (hdma->XferCpltCallback != NULL)
 853:../Drivers/STM32L4xx_HAL_Driver/Src/stm32l4xx_hal_dma.c ****     {
 854:../Drivers/STM32L4xx_HAL_Driver/Src/stm32l4xx_hal_dma.c ****       /* Transfer complete callback */
 855:../Drivers/STM32L4xx_HAL_Driver/Src/stm32l4xx_hal_dma.c ****       hdma->XferCpltCallback(hdma);
 856:../Drivers/STM32L4xx_HAL_Driver/Src/stm32l4xx_hal_dma.c ****     }
 857:../Drivers/STM32L4xx_HAL_Driver/Src/stm32l4xx_hal_dma.c ****   }
 858:../Drivers/STM32L4xx_HAL_Driver/Src/stm32l4xx_hal_dma.c **** 
 859:../Drivers/STM32L4xx_HAL_Driver/Src/stm32l4xx_hal_dma.c ****   /* Transfer Error Interrupt management **************************************/
 860:../Drivers/STM32L4xx_HAL_Driver/Src/stm32l4xx_hal_dma.c ****   else if (((flag_it & (DMA_FLAG_TE1 << (hdma->ChannelIndex & 0x1CU))) != 0U) && ((source_it & DMA_
 861:../Drivers/STM32L4xx_HAL_Driver/Src/stm32l4xx_hal_dma.c ****   {
 862:../Drivers/STM32L4xx_HAL_Driver/Src/stm32l4xx_hal_dma.c ****     /* When a DMA transfer error occurs */
 863:../Drivers/STM32L4xx_HAL_Driver/Src/stm32l4xx_hal_dma.c ****     /* A hardware clear of its EN bits is performed */
 864:../Drivers/STM32L4xx_HAL_Driver/Src/stm32l4xx_hal_dma.c ****     /* Disable ALL DMA IT */
 865:../Drivers/STM32L4xx_HAL_Driver/Src/stm32l4xx_hal_dma.c ****     __HAL_DMA_DISABLE_IT(hdma, (DMA_IT_TC | DMA_IT_HT | DMA_IT_TE));
 866:../Drivers/STM32L4xx_HAL_Driver/Src/stm32l4xx_hal_dma.c **** 
 867:../Drivers/STM32L4xx_HAL_Driver/Src/stm32l4xx_hal_dma.c ****     /* Clear all flags */
 868:../Drivers/STM32L4xx_HAL_Driver/Src/stm32l4xx_hal_dma.c ****     hdma->DmaBaseAddress->IFCR = (DMA_ISR_GIF1 << (hdma->ChannelIndex & 0x1CU));
 869:../Drivers/STM32L4xx_HAL_Driver/Src/stm32l4xx_hal_dma.c **** 
 870:../Drivers/STM32L4xx_HAL_Driver/Src/stm32l4xx_hal_dma.c ****     /* Update error code */
 871:../Drivers/STM32L4xx_HAL_Driver/Src/stm32l4xx_hal_dma.c ****     hdma->ErrorCode = HAL_DMA_ERROR_TE;
 872:../Drivers/STM32L4xx_HAL_Driver/Src/stm32l4xx_hal_dma.c **** 
 873:../Drivers/STM32L4xx_HAL_Driver/Src/stm32l4xx_hal_dma.c ****     /* Change the DMA state */
 874:../Drivers/STM32L4xx_HAL_Driver/Src/stm32l4xx_hal_dma.c ****     hdma->State = HAL_DMA_STATE_READY;
 875:../Drivers/STM32L4xx_HAL_Driver/Src/stm32l4xx_hal_dma.c **** 
 876:../Drivers/STM32L4xx_HAL_Driver/Src/stm32l4xx_hal_dma.c ****     /* Process Unlocked */
 877:../Drivers/STM32L4xx_HAL_Driver/Src/stm32l4xx_hal_dma.c ****     __HAL_UNLOCK(hdma);
 878:../Drivers/STM32L4xx_HAL_Driver/Src/stm32l4xx_hal_dma.c **** 
 879:../Drivers/STM32L4xx_HAL_Driver/Src/stm32l4xx_hal_dma.c ****     if (hdma->XferErrorCallback != NULL)
 880:../Drivers/STM32L4xx_HAL_Driver/Src/stm32l4xx_hal_dma.c ****     {
 881:../Drivers/STM32L4xx_HAL_Driver/Src/stm32l4xx_hal_dma.c ****       /* Transfer error callback */
 882:../Drivers/STM32L4xx_HAL_Driver/Src/stm32l4xx_hal_dma.c ****       hdma->XferErrorCallback(hdma);
 883:../Drivers/STM32L4xx_HAL_Driver/Src/stm32l4xx_hal_dma.c ****     }
 884:../Drivers/STM32L4xx_HAL_Driver/Src/stm32l4xx_hal_dma.c ****   }
 885:../Drivers/STM32L4xx_HAL_Driver/Src/stm32l4xx_hal_dma.c ****   else
 886:../Drivers/STM32L4xx_HAL_Driver/Src/stm32l4xx_hal_dma.c ****   {
 887:../Drivers/STM32L4xx_HAL_Driver/Src/stm32l4xx_hal_dma.c ****     /* Nothing To Do */
ARM GAS  Build/stm32l4xx_hal_dma.s 			page 17


 888:../Drivers/STM32L4xx_HAL_Driver/Src/stm32l4xx_hal_dma.c ****   }
 889:../Drivers/STM32L4xx_HAL_Driver/Src/stm32l4xx_hal_dma.c ****   return;
 890:../Drivers/STM32L4xx_HAL_Driver/Src/stm32l4xx_hal_dma.c **** }
 891:../Drivers/STM32L4xx_HAL_Driver/Src/stm32l4xx_hal_dma.c **** 
 892:../Drivers/STM32L4xx_HAL_Driver/Src/stm32l4xx_hal_dma.c **** /**
 893:../Drivers/STM32L4xx_HAL_Driver/Src/stm32l4xx_hal_dma.c ****   * @brief  Register callbacks
 894:../Drivers/STM32L4xx_HAL_Driver/Src/stm32l4xx_hal_dma.c ****   * @param  hdma                 pointer to a DMA_HandleTypeDef structure that contains
 895:../Drivers/STM32L4xx_HAL_Driver/Src/stm32l4xx_hal_dma.c ****   *                               the configuration information for the specified DMA Channel.
 896:../Drivers/STM32L4xx_HAL_Driver/Src/stm32l4xx_hal_dma.c ****   * @param  CallbackID           User Callback identifier
 897:../Drivers/STM32L4xx_HAL_Driver/Src/stm32l4xx_hal_dma.c ****   *                               a HAL_DMA_CallbackIDTypeDef ENUM as parameter.
 898:../Drivers/STM32L4xx_HAL_Driver/Src/stm32l4xx_hal_dma.c ****   * @param  pCallback            pointer to private callback function which has pointer to
 899:../Drivers/STM32L4xx_HAL_Driver/Src/stm32l4xx_hal_dma.c ****   *                               a DMA_HandleTypeDef structure as parameter.
 900:../Drivers/STM32L4xx_HAL_Driver/Src/stm32l4xx_hal_dma.c ****   * @retval HAL status
 901:../Drivers/STM32L4xx_HAL_Driver/Src/stm32l4xx_hal_dma.c ****   */
 902:../Drivers/STM32L4xx_HAL_Driver/Src/stm32l4xx_hal_dma.c **** HAL_StatusTypeDef HAL_DMA_RegisterCallback(DMA_HandleTypeDef *hdma, HAL_DMA_CallbackIDTypeDef Callb
 903:../Drivers/STM32L4xx_HAL_Driver/Src/stm32l4xx_hal_dma.c **** {
 904:../Drivers/STM32L4xx_HAL_Driver/Src/stm32l4xx_hal_dma.c ****   HAL_StatusTypeDef status = HAL_OK;
 905:../Drivers/STM32L4xx_HAL_Driver/Src/stm32l4xx_hal_dma.c **** 
 906:../Drivers/STM32L4xx_HAL_Driver/Src/stm32l4xx_hal_dma.c ****   /* Process locked */
 907:../Drivers/STM32L4xx_HAL_Driver/Src/stm32l4xx_hal_dma.c ****   __HAL_LOCK(hdma);
 908:../Drivers/STM32L4xx_HAL_Driver/Src/stm32l4xx_hal_dma.c **** 
 909:../Drivers/STM32L4xx_HAL_Driver/Src/stm32l4xx_hal_dma.c ****   if (HAL_DMA_STATE_READY == hdma->State)
 910:../Drivers/STM32L4xx_HAL_Driver/Src/stm32l4xx_hal_dma.c ****   {
 911:../Drivers/STM32L4xx_HAL_Driver/Src/stm32l4xx_hal_dma.c ****     switch (CallbackID)
 912:../Drivers/STM32L4xx_HAL_Driver/Src/stm32l4xx_hal_dma.c ****     {
 913:../Drivers/STM32L4xx_HAL_Driver/Src/stm32l4xx_hal_dma.c ****       case  HAL_DMA_XFER_CPLT_CB_ID:
 914:../Drivers/STM32L4xx_HAL_Driver/Src/stm32l4xx_hal_dma.c ****         hdma->XferCpltCallback = pCallback;
 915:../Drivers/STM32L4xx_HAL_Driver/Src/stm32l4xx_hal_dma.c ****         break;
 916:../Drivers/STM32L4xx_HAL_Driver/Src/stm32l4xx_hal_dma.c **** 
 917:../Drivers/STM32L4xx_HAL_Driver/Src/stm32l4xx_hal_dma.c ****       case  HAL_DMA_XFER_HALFCPLT_CB_ID:
 918:../Drivers/STM32L4xx_HAL_Driver/Src/stm32l4xx_hal_dma.c ****         hdma->XferHalfCpltCallback = pCallback;
 919:../Drivers/STM32L4xx_HAL_Driver/Src/stm32l4xx_hal_dma.c ****         break;
 920:../Drivers/STM32L4xx_HAL_Driver/Src/stm32l4xx_hal_dma.c **** 
 921:../Drivers/STM32L4xx_HAL_Driver/Src/stm32l4xx_hal_dma.c ****       case  HAL_DMA_XFER_ERROR_CB_ID:
 922:../Drivers/STM32L4xx_HAL_Driver/Src/stm32l4xx_hal_dma.c ****         hdma->XferErrorCallback = pCallback;
 923:../Drivers/STM32L4xx_HAL_Driver/Src/stm32l4xx_hal_dma.c ****         break;
 924:../Drivers/STM32L4xx_HAL_Driver/Src/stm32l4xx_hal_dma.c **** 
 925:../Drivers/STM32L4xx_HAL_Driver/Src/stm32l4xx_hal_dma.c ****       case  HAL_DMA_XFER_ABORT_CB_ID:
 926:../Drivers/STM32L4xx_HAL_Driver/Src/stm32l4xx_hal_dma.c ****         hdma->XferAbortCallback = pCallback;
 927:../Drivers/STM32L4xx_HAL_Driver/Src/stm32l4xx_hal_dma.c ****         break;
 928:../Drivers/STM32L4xx_HAL_Driver/Src/stm32l4xx_hal_dma.c **** 
 929:../Drivers/STM32L4xx_HAL_Driver/Src/stm32l4xx_hal_dma.c ****       default:
 930:../Drivers/STM32L4xx_HAL_Driver/Src/stm32l4xx_hal_dma.c ****         status = HAL_ERROR;
 931:../Drivers/STM32L4xx_HAL_Driver/Src/stm32l4xx_hal_dma.c ****         break;
 932:../Drivers/STM32L4xx_HAL_Driver/Src/stm32l4xx_hal_dma.c ****     }
 933:../Drivers/STM32L4xx_HAL_Driver/Src/stm32l4xx_hal_dma.c ****   }
 934:../Drivers/STM32L4xx_HAL_Driver/Src/stm32l4xx_hal_dma.c ****   else
 935:../Drivers/STM32L4xx_HAL_Driver/Src/stm32l4xx_hal_dma.c ****   {
 936:../Drivers/STM32L4xx_HAL_Driver/Src/stm32l4xx_hal_dma.c ****     status = HAL_ERROR;
 937:../Drivers/STM32L4xx_HAL_Driver/Src/stm32l4xx_hal_dma.c ****   }
 938:../Drivers/STM32L4xx_HAL_Driver/Src/stm32l4xx_hal_dma.c **** 
 939:../Drivers/STM32L4xx_HAL_Driver/Src/stm32l4xx_hal_dma.c ****   /* Release Lock */
 940:../Drivers/STM32L4xx_HAL_Driver/Src/stm32l4xx_hal_dma.c ****   __HAL_UNLOCK(hdma);
 941:../Drivers/STM32L4xx_HAL_Driver/Src/stm32l4xx_hal_dma.c **** 
 942:../Drivers/STM32L4xx_HAL_Driver/Src/stm32l4xx_hal_dma.c ****   return status;
 943:../Drivers/STM32L4xx_HAL_Driver/Src/stm32l4xx_hal_dma.c **** }
 944:../Drivers/STM32L4xx_HAL_Driver/Src/stm32l4xx_hal_dma.c **** 
ARM GAS  Build/stm32l4xx_hal_dma.s 			page 18


 945:../Drivers/STM32L4xx_HAL_Driver/Src/stm32l4xx_hal_dma.c **** /**
 946:../Drivers/STM32L4xx_HAL_Driver/Src/stm32l4xx_hal_dma.c ****   * @brief  UnRegister callbacks
 947:../Drivers/STM32L4xx_HAL_Driver/Src/stm32l4xx_hal_dma.c ****   * @param  hdma                 pointer to a DMA_HandleTypeDef structure that contains
 948:../Drivers/STM32L4xx_HAL_Driver/Src/stm32l4xx_hal_dma.c ****   *                               the configuration information for the specified DMA Channel.
 949:../Drivers/STM32L4xx_HAL_Driver/Src/stm32l4xx_hal_dma.c ****   * @param  CallbackID           User Callback identifier
 950:../Drivers/STM32L4xx_HAL_Driver/Src/stm32l4xx_hal_dma.c ****   *                               a HAL_DMA_CallbackIDTypeDef ENUM as parameter.
 951:../Drivers/STM32L4xx_HAL_Driver/Src/stm32l4xx_hal_dma.c ****   * @retval HAL status
 952:../Drivers/STM32L4xx_HAL_Driver/Src/stm32l4xx_hal_dma.c ****   */
 953:../Drivers/STM32L4xx_HAL_Driver/Src/stm32l4xx_hal_dma.c **** HAL_StatusTypeDef HAL_DMA_UnRegisterCallback(DMA_HandleTypeDef *hdma, HAL_DMA_CallbackIDTypeDef Cal
 954:../Drivers/STM32L4xx_HAL_Driver/Src/stm32l4xx_hal_dma.c **** {
 955:../Drivers/STM32L4xx_HAL_Driver/Src/stm32l4xx_hal_dma.c ****   HAL_StatusTypeDef status = HAL_OK;
 956:../Drivers/STM32L4xx_HAL_Driver/Src/stm32l4xx_hal_dma.c **** 
 957:../Drivers/STM32L4xx_HAL_Driver/Src/stm32l4xx_hal_dma.c ****   /* Process locked */
 958:../Drivers/STM32L4xx_HAL_Driver/Src/stm32l4xx_hal_dma.c ****   __HAL_LOCK(hdma);
 959:../Drivers/STM32L4xx_HAL_Driver/Src/stm32l4xx_hal_dma.c **** 
 960:../Drivers/STM32L4xx_HAL_Driver/Src/stm32l4xx_hal_dma.c ****   if (HAL_DMA_STATE_READY == hdma->State)
 961:../Drivers/STM32L4xx_HAL_Driver/Src/stm32l4xx_hal_dma.c ****   {
 962:../Drivers/STM32L4xx_HAL_Driver/Src/stm32l4xx_hal_dma.c ****     switch (CallbackID)
 963:../Drivers/STM32L4xx_HAL_Driver/Src/stm32l4xx_hal_dma.c ****     {
 964:../Drivers/STM32L4xx_HAL_Driver/Src/stm32l4xx_hal_dma.c ****       case  HAL_DMA_XFER_CPLT_CB_ID:
 965:../Drivers/STM32L4xx_HAL_Driver/Src/stm32l4xx_hal_dma.c ****         hdma->XferCpltCallback = NULL;
 966:../Drivers/STM32L4xx_HAL_Driver/Src/stm32l4xx_hal_dma.c ****         break;
 967:../Drivers/STM32L4xx_HAL_Driver/Src/stm32l4xx_hal_dma.c **** 
 968:../Drivers/STM32L4xx_HAL_Driver/Src/stm32l4xx_hal_dma.c ****       case  HAL_DMA_XFER_HALFCPLT_CB_ID:
 969:../Drivers/STM32L4xx_HAL_Driver/Src/stm32l4xx_hal_dma.c ****         hdma->XferHalfCpltCallback = NULL;
 970:../Drivers/STM32L4xx_HAL_Driver/Src/stm32l4xx_hal_dma.c ****         break;
 971:../Drivers/STM32L4xx_HAL_Driver/Src/stm32l4xx_hal_dma.c **** 
 972:../Drivers/STM32L4xx_HAL_Driver/Src/stm32l4xx_hal_dma.c ****       case  HAL_DMA_XFER_ERROR_CB_ID:
 973:../Drivers/STM32L4xx_HAL_Driver/Src/stm32l4xx_hal_dma.c ****         hdma->XferErrorCallback = NULL;
 974:../Drivers/STM32L4xx_HAL_Driver/Src/stm32l4xx_hal_dma.c ****         break;
 975:../Drivers/STM32L4xx_HAL_Driver/Src/stm32l4xx_hal_dma.c **** 
 976:../Drivers/STM32L4xx_HAL_Driver/Src/stm32l4xx_hal_dma.c ****       case  HAL_DMA_XFER_ABORT_CB_ID:
 977:../Drivers/STM32L4xx_HAL_Driver/Src/stm32l4xx_hal_dma.c ****         hdma->XferAbortCallback = NULL;
 978:../Drivers/STM32L4xx_HAL_Driver/Src/stm32l4xx_hal_dma.c ****         break;
 979:../Drivers/STM32L4xx_HAL_Driver/Src/stm32l4xx_hal_dma.c **** 
 980:../Drivers/STM32L4xx_HAL_Driver/Src/stm32l4xx_hal_dma.c ****       case   HAL_DMA_XFER_ALL_CB_ID:
 981:../Drivers/STM32L4xx_HAL_Driver/Src/stm32l4xx_hal_dma.c ****         hdma->XferCpltCallback = NULL;
 982:../Drivers/STM32L4xx_HAL_Driver/Src/stm32l4xx_hal_dma.c ****         hdma->XferHalfCpltCallback = NULL;
 983:../Drivers/STM32L4xx_HAL_Driver/Src/stm32l4xx_hal_dma.c ****         hdma->XferErrorCallback = NULL;
 984:../Drivers/STM32L4xx_HAL_Driver/Src/stm32l4xx_hal_dma.c ****         hdma->XferAbortCallback = NULL;
 985:../Drivers/STM32L4xx_HAL_Driver/Src/stm32l4xx_hal_dma.c ****         break;
 986:../Drivers/STM32L4xx_HAL_Driver/Src/stm32l4xx_hal_dma.c **** 
 987:../Drivers/STM32L4xx_HAL_Driver/Src/stm32l4xx_hal_dma.c ****       default:
 988:../Drivers/STM32L4xx_HAL_Driver/Src/stm32l4xx_hal_dma.c ****         status = HAL_ERROR;
 989:../Drivers/STM32L4xx_HAL_Driver/Src/stm32l4xx_hal_dma.c ****         break;
 990:../Drivers/STM32L4xx_HAL_Driver/Src/stm32l4xx_hal_dma.c ****     }
 991:../Drivers/STM32L4xx_HAL_Driver/Src/stm32l4xx_hal_dma.c ****   }
 992:../Drivers/STM32L4xx_HAL_Driver/Src/stm32l4xx_hal_dma.c ****   else
 993:../Drivers/STM32L4xx_HAL_Driver/Src/stm32l4xx_hal_dma.c ****   {
 994:../Drivers/STM32L4xx_HAL_Driver/Src/stm32l4xx_hal_dma.c ****     status = HAL_ERROR;
 995:../Drivers/STM32L4xx_HAL_Driver/Src/stm32l4xx_hal_dma.c ****   }
 996:../Drivers/STM32L4xx_HAL_Driver/Src/stm32l4xx_hal_dma.c **** 
 997:../Drivers/STM32L4xx_HAL_Driver/Src/stm32l4xx_hal_dma.c ****   /* Release Lock */
 998:../Drivers/STM32L4xx_HAL_Driver/Src/stm32l4xx_hal_dma.c ****   __HAL_UNLOCK(hdma);
 999:../Drivers/STM32L4xx_HAL_Driver/Src/stm32l4xx_hal_dma.c **** 
1000:../Drivers/STM32L4xx_HAL_Driver/Src/stm32l4xx_hal_dma.c ****   return status;
1001:../Drivers/STM32L4xx_HAL_Driver/Src/stm32l4xx_hal_dma.c **** }
ARM GAS  Build/stm32l4xx_hal_dma.s 			page 19


1002:../Drivers/STM32L4xx_HAL_Driver/Src/stm32l4xx_hal_dma.c **** 
1003:../Drivers/STM32L4xx_HAL_Driver/Src/stm32l4xx_hal_dma.c **** /**
1004:../Drivers/STM32L4xx_HAL_Driver/Src/stm32l4xx_hal_dma.c ****   * @}
1005:../Drivers/STM32L4xx_HAL_Driver/Src/stm32l4xx_hal_dma.c ****   */
1006:../Drivers/STM32L4xx_HAL_Driver/Src/stm32l4xx_hal_dma.c **** 
1007:../Drivers/STM32L4xx_HAL_Driver/Src/stm32l4xx_hal_dma.c **** 
1008:../Drivers/STM32L4xx_HAL_Driver/Src/stm32l4xx_hal_dma.c **** 
1009:../Drivers/STM32L4xx_HAL_Driver/Src/stm32l4xx_hal_dma.c **** /** @defgroup DMA_Exported_Functions_Group3 Peripheral State and Errors functions
1010:../Drivers/STM32L4xx_HAL_Driver/Src/stm32l4xx_hal_dma.c ****  *  @brief    Peripheral State and Errors functions
1011:../Drivers/STM32L4xx_HAL_Driver/Src/stm32l4xx_hal_dma.c ****  *
1012:../Drivers/STM32L4xx_HAL_Driver/Src/stm32l4xx_hal_dma.c **** @verbatim
1013:../Drivers/STM32L4xx_HAL_Driver/Src/stm32l4xx_hal_dma.c ****  ===============================================================================
1014:../Drivers/STM32L4xx_HAL_Driver/Src/stm32l4xx_hal_dma.c ****             ##### Peripheral State and Errors functions #####
1015:../Drivers/STM32L4xx_HAL_Driver/Src/stm32l4xx_hal_dma.c ****  ===============================================================================
1016:../Drivers/STM32L4xx_HAL_Driver/Src/stm32l4xx_hal_dma.c ****     [..]
1017:../Drivers/STM32L4xx_HAL_Driver/Src/stm32l4xx_hal_dma.c ****     This subsection provides functions allowing to
1018:../Drivers/STM32L4xx_HAL_Driver/Src/stm32l4xx_hal_dma.c ****       (+) Check the DMA state
1019:../Drivers/STM32L4xx_HAL_Driver/Src/stm32l4xx_hal_dma.c ****       (+) Get error code
1020:../Drivers/STM32L4xx_HAL_Driver/Src/stm32l4xx_hal_dma.c **** 
1021:../Drivers/STM32L4xx_HAL_Driver/Src/stm32l4xx_hal_dma.c **** @endverbatim
1022:../Drivers/STM32L4xx_HAL_Driver/Src/stm32l4xx_hal_dma.c ****   * @{
1023:../Drivers/STM32L4xx_HAL_Driver/Src/stm32l4xx_hal_dma.c ****   */
1024:../Drivers/STM32L4xx_HAL_Driver/Src/stm32l4xx_hal_dma.c **** 
1025:../Drivers/STM32L4xx_HAL_Driver/Src/stm32l4xx_hal_dma.c **** /**
1026:../Drivers/STM32L4xx_HAL_Driver/Src/stm32l4xx_hal_dma.c ****   * @brief  Return the DMA handle state.
1027:../Drivers/STM32L4xx_HAL_Driver/Src/stm32l4xx_hal_dma.c ****   * @param  hdma pointer to a DMA_HandleTypeDef structure that contains
1028:../Drivers/STM32L4xx_HAL_Driver/Src/stm32l4xx_hal_dma.c ****   *               the configuration information for the specified DMA Channel.
1029:../Drivers/STM32L4xx_HAL_Driver/Src/stm32l4xx_hal_dma.c ****   * @retval HAL state
1030:../Drivers/STM32L4xx_HAL_Driver/Src/stm32l4xx_hal_dma.c ****   */
1031:../Drivers/STM32L4xx_HAL_Driver/Src/stm32l4xx_hal_dma.c **** HAL_DMA_StateTypeDef HAL_DMA_GetState(DMA_HandleTypeDef *hdma)
1032:../Drivers/STM32L4xx_HAL_Driver/Src/stm32l4xx_hal_dma.c **** {
1033:../Drivers/STM32L4xx_HAL_Driver/Src/stm32l4xx_hal_dma.c ****   /* Return DMA handle state */
1034:../Drivers/STM32L4xx_HAL_Driver/Src/stm32l4xx_hal_dma.c ****   return hdma->State;
1035:../Drivers/STM32L4xx_HAL_Driver/Src/stm32l4xx_hal_dma.c **** }
1036:../Drivers/STM32L4xx_HAL_Driver/Src/stm32l4xx_hal_dma.c **** 
1037:../Drivers/STM32L4xx_HAL_Driver/Src/stm32l4xx_hal_dma.c **** /**
1038:../Drivers/STM32L4xx_HAL_Driver/Src/stm32l4xx_hal_dma.c ****   * @brief  Return the DMA error code.
1039:../Drivers/STM32L4xx_HAL_Driver/Src/stm32l4xx_hal_dma.c ****   * @param  hdma : pointer to a DMA_HandleTypeDef structure that contains
1040:../Drivers/STM32L4xx_HAL_Driver/Src/stm32l4xx_hal_dma.c ****   *              the configuration information for the specified DMA Channel.
1041:../Drivers/STM32L4xx_HAL_Driver/Src/stm32l4xx_hal_dma.c ****   * @retval DMA Error Code
1042:../Drivers/STM32L4xx_HAL_Driver/Src/stm32l4xx_hal_dma.c ****   */
1043:../Drivers/STM32L4xx_HAL_Driver/Src/stm32l4xx_hal_dma.c **** uint32_t HAL_DMA_GetError(DMA_HandleTypeDef *hdma)
1044:../Drivers/STM32L4xx_HAL_Driver/Src/stm32l4xx_hal_dma.c **** {
1045:../Drivers/STM32L4xx_HAL_Driver/Src/stm32l4xx_hal_dma.c ****   return hdma->ErrorCode;
1046:../Drivers/STM32L4xx_HAL_Driver/Src/stm32l4xx_hal_dma.c **** }
1047:../Drivers/STM32L4xx_HAL_Driver/Src/stm32l4xx_hal_dma.c **** 
1048:../Drivers/STM32L4xx_HAL_Driver/Src/stm32l4xx_hal_dma.c **** /**
1049:../Drivers/STM32L4xx_HAL_Driver/Src/stm32l4xx_hal_dma.c ****   * @}
1050:../Drivers/STM32L4xx_HAL_Driver/Src/stm32l4xx_hal_dma.c ****   */
1051:../Drivers/STM32L4xx_HAL_Driver/Src/stm32l4xx_hal_dma.c **** 
1052:../Drivers/STM32L4xx_HAL_Driver/Src/stm32l4xx_hal_dma.c **** /**
1053:../Drivers/STM32L4xx_HAL_Driver/Src/stm32l4xx_hal_dma.c ****   * @}
1054:../Drivers/STM32L4xx_HAL_Driver/Src/stm32l4xx_hal_dma.c ****   */
1055:../Drivers/STM32L4xx_HAL_Driver/Src/stm32l4xx_hal_dma.c **** 
1056:../Drivers/STM32L4xx_HAL_Driver/Src/stm32l4xx_hal_dma.c **** /** @addtogroup DMA_Private_Functions
1057:../Drivers/STM32L4xx_HAL_Driver/Src/stm32l4xx_hal_dma.c ****   * @{
1058:../Drivers/STM32L4xx_HAL_Driver/Src/stm32l4xx_hal_dma.c ****   */
ARM GAS  Build/stm32l4xx_hal_dma.s 			page 20


1059:../Drivers/STM32L4xx_HAL_Driver/Src/stm32l4xx_hal_dma.c **** 
1060:../Drivers/STM32L4xx_HAL_Driver/Src/stm32l4xx_hal_dma.c **** /**
1061:../Drivers/STM32L4xx_HAL_Driver/Src/stm32l4xx_hal_dma.c ****   * @brief  Sets the DMA Transfer parameter.
1062:../Drivers/STM32L4xx_HAL_Driver/Src/stm32l4xx_hal_dma.c ****   * @param  hdma       pointer to a DMA_HandleTypeDef structure that contains
1063:../Drivers/STM32L4xx_HAL_Driver/Src/stm32l4xx_hal_dma.c ****   *                     the configuration information for the specified DMA Channel.
1064:../Drivers/STM32L4xx_HAL_Driver/Src/stm32l4xx_hal_dma.c ****   * @param  SrcAddress The source memory Buffer address
1065:../Drivers/STM32L4xx_HAL_Driver/Src/stm32l4xx_hal_dma.c ****   * @param  DstAddress The destination memory Buffer address
1066:../Drivers/STM32L4xx_HAL_Driver/Src/stm32l4xx_hal_dma.c ****   * @param  DataLength The length of data to be transferred from source to destination
1067:../Drivers/STM32L4xx_HAL_Driver/Src/stm32l4xx_hal_dma.c ****   * @retval HAL status
1068:../Drivers/STM32L4xx_HAL_Driver/Src/stm32l4xx_hal_dma.c ****   */
1069:../Drivers/STM32L4xx_HAL_Driver/Src/stm32l4xx_hal_dma.c **** static void DMA_SetConfig(DMA_HandleTypeDef *hdma, uint32_t SrcAddress, uint32_t DstAddress, uint32
1070:../Drivers/STM32L4xx_HAL_Driver/Src/stm32l4xx_hal_dma.c **** {
  27              		.loc 1 1070 1 view -0
  28              		.cfi_startproc
  29              		@ args = 0, pretend = 0, frame = 0
  30              		@ frame_needed = 0, uses_anonymous_args = 0
  31              		@ link register save eliminated.
  32              		.loc 1 1070 1 is_stmt 0 view .LVU1
  33 0000 10B4     		push	{r4}
  34              	.LCFI0:
  35              		.cfi_def_cfa_offset 4
  36              		.cfi_offset 4, -4
1071:../Drivers/STM32L4xx_HAL_Driver/Src/stm32l4xx_hal_dma.c **** #if defined(DMAMUX1)
1072:../Drivers/STM32L4xx_HAL_Driver/Src/stm32l4xx_hal_dma.c ****   /* Clear the DMAMUX synchro overrun flag */
1073:../Drivers/STM32L4xx_HAL_Driver/Src/stm32l4xx_hal_dma.c ****   hdma->DMAmuxChannelStatus->CFR = hdma->DMAmuxChannelStatusMask;
1074:../Drivers/STM32L4xx_HAL_Driver/Src/stm32l4xx_hal_dma.c **** 
1075:../Drivers/STM32L4xx_HAL_Driver/Src/stm32l4xx_hal_dma.c ****   if (hdma->DMAmuxRequestGen != 0U)
1076:../Drivers/STM32L4xx_HAL_Driver/Src/stm32l4xx_hal_dma.c ****   {
1077:../Drivers/STM32L4xx_HAL_Driver/Src/stm32l4xx_hal_dma.c ****     /* Clear the DMAMUX request generator overrun flag */
1078:../Drivers/STM32L4xx_HAL_Driver/Src/stm32l4xx_hal_dma.c ****     hdma->DMAmuxRequestGenStatus->RGCFR = hdma->DMAmuxRequestGenStatusMask;
1079:../Drivers/STM32L4xx_HAL_Driver/Src/stm32l4xx_hal_dma.c ****   }
1080:../Drivers/STM32L4xx_HAL_Driver/Src/stm32l4xx_hal_dma.c **** #endif
1081:../Drivers/STM32L4xx_HAL_Driver/Src/stm32l4xx_hal_dma.c **** 
1082:../Drivers/STM32L4xx_HAL_Driver/Src/stm32l4xx_hal_dma.c ****   /* Clear all flags */
1083:../Drivers/STM32L4xx_HAL_Driver/Src/stm32l4xx_hal_dma.c ****   hdma->DmaBaseAddress->IFCR = (DMA_ISR_GIF1 << (hdma->ChannelIndex & 0x1CU));
  37              		.loc 1 1083 3 is_stmt 1 view .LVU2
  38              		.loc 1 1083 54 is_stmt 0 view .LVU3
  39 0002 446C     		ldr	r4, [r0, #68]
  40              		.loc 1 1083 69 view .LVU4
  41 0004 04F01C0C 		and	ip, r4, #28
  42              		.loc 1 1083 46 view .LVU5
  43 0008 0124     		movs	r4, #1
  44 000a 04FA0CF4 		lsl	r4, r4, ip
  45              		.loc 1 1083 30 view .LVU6
  46 000e D0F840C0 		ldr	ip, [r0, #64]
  47 0012 CCF80440 		str	r4, [ip, #4]
1084:../Drivers/STM32L4xx_HAL_Driver/Src/stm32l4xx_hal_dma.c **** 
1085:../Drivers/STM32L4xx_HAL_Driver/Src/stm32l4xx_hal_dma.c ****   /* Configure DMA Channel data length */
1086:../Drivers/STM32L4xx_HAL_Driver/Src/stm32l4xx_hal_dma.c ****   hdma->Instance->CNDTR = DataLength;
  48              		.loc 1 1086 3 is_stmt 1 view .LVU7
  49              		.loc 1 1086 7 is_stmt 0 view .LVU8
  50 0016 0468     		ldr	r4, [r0]
  51              		.loc 1 1086 25 view .LVU9
  52 0018 6360     		str	r3, [r4, #4]
1087:../Drivers/STM32L4xx_HAL_Driver/Src/stm32l4xx_hal_dma.c **** 
1088:../Drivers/STM32L4xx_HAL_Driver/Src/stm32l4xx_hal_dma.c ****   /* Memory to Peripheral */
1089:../Drivers/STM32L4xx_HAL_Driver/Src/stm32l4xx_hal_dma.c ****   if ((hdma->Init.Direction) == DMA_MEMORY_TO_PERIPH)
ARM GAS  Build/stm32l4xx_hal_dma.s 			page 21


  53              		.loc 1 1089 3 is_stmt 1 view .LVU10
  54              		.loc 1 1089 18 is_stmt 0 view .LVU11
  55 001a 8368     		ldr	r3, [r0, #8]
  56              	.LVL1:
  57              		.loc 1 1089 6 view .LVU12
  58 001c 102B     		cmp	r3, #16
  59 001e 05D0     		beq	.L5
1090:../Drivers/STM32L4xx_HAL_Driver/Src/stm32l4xx_hal_dma.c ****   {
1091:../Drivers/STM32L4xx_HAL_Driver/Src/stm32l4xx_hal_dma.c ****     /* Configure DMA Channel destination address */
1092:../Drivers/STM32L4xx_HAL_Driver/Src/stm32l4xx_hal_dma.c ****     hdma->Instance->CPAR = DstAddress;
1093:../Drivers/STM32L4xx_HAL_Driver/Src/stm32l4xx_hal_dma.c **** 
1094:../Drivers/STM32L4xx_HAL_Driver/Src/stm32l4xx_hal_dma.c ****     /* Configure DMA Channel source address */
1095:../Drivers/STM32L4xx_HAL_Driver/Src/stm32l4xx_hal_dma.c ****     hdma->Instance->CMAR = SrcAddress;
1096:../Drivers/STM32L4xx_HAL_Driver/Src/stm32l4xx_hal_dma.c ****   }
1097:../Drivers/STM32L4xx_HAL_Driver/Src/stm32l4xx_hal_dma.c ****   /* Peripheral to Memory */
1098:../Drivers/STM32L4xx_HAL_Driver/Src/stm32l4xx_hal_dma.c ****   else
1099:../Drivers/STM32L4xx_HAL_Driver/Src/stm32l4xx_hal_dma.c ****   {
1100:../Drivers/STM32L4xx_HAL_Driver/Src/stm32l4xx_hal_dma.c ****     /* Configure DMA Channel source address */
1101:../Drivers/STM32L4xx_HAL_Driver/Src/stm32l4xx_hal_dma.c ****     hdma->Instance->CPAR = SrcAddress;
  60              		.loc 1 1101 5 is_stmt 1 view .LVU13
  61              		.loc 1 1101 9 is_stmt 0 view .LVU14
  62 0020 0368     		ldr	r3, [r0]
  63              		.loc 1 1101 26 view .LVU15
  64 0022 9960     		str	r1, [r3, #8]
  65              	.LVL2:
1102:../Drivers/STM32L4xx_HAL_Driver/Src/stm32l4xx_hal_dma.c **** 
1103:../Drivers/STM32L4xx_HAL_Driver/Src/stm32l4xx_hal_dma.c ****     /* Configure DMA Channel destination address */
1104:../Drivers/STM32L4xx_HAL_Driver/Src/stm32l4xx_hal_dma.c ****     hdma->Instance->CMAR = DstAddress;
  66              		.loc 1 1104 5 is_stmt 1 view .LVU16
  67              		.loc 1 1104 9 is_stmt 0 view .LVU17
  68 0024 0368     		ldr	r3, [r0]
  69              		.loc 1 1104 26 view .LVU18
  70 0026 DA60     		str	r2, [r3, #12]
  71              	.L1:
1105:../Drivers/STM32L4xx_HAL_Driver/Src/stm32l4xx_hal_dma.c ****   }
1106:../Drivers/STM32L4xx_HAL_Driver/Src/stm32l4xx_hal_dma.c **** }
  72              		.loc 1 1106 1 view .LVU19
  73 0028 10BC     		pop	{r4}
  74              	.LCFI1:
  75              		.cfi_remember_state
  76              		.cfi_restore 4
  77              		.cfi_def_cfa_offset 0
  78 002a 7047     		bx	lr
  79              	.LVL3:
  80              	.L5:
  81              	.LCFI2:
  82              		.cfi_restore_state
1092:../Drivers/STM32L4xx_HAL_Driver/Src/stm32l4xx_hal_dma.c **** 
  83              		.loc 1 1092 5 is_stmt 1 view .LVU20
1092:../Drivers/STM32L4xx_HAL_Driver/Src/stm32l4xx_hal_dma.c **** 
  84              		.loc 1 1092 9 is_stmt 0 view .LVU21
  85 002c 0368     		ldr	r3, [r0]
1092:../Drivers/STM32L4xx_HAL_Driver/Src/stm32l4xx_hal_dma.c **** 
  86              		.loc 1 1092 26 view .LVU22
  87 002e 9A60     		str	r2, [r3, #8]
  88              	.LVL4:
1095:../Drivers/STM32L4xx_HAL_Driver/Src/stm32l4xx_hal_dma.c ****   }
ARM GAS  Build/stm32l4xx_hal_dma.s 			page 22


  89              		.loc 1 1095 5 is_stmt 1 view .LVU23
1095:../Drivers/STM32L4xx_HAL_Driver/Src/stm32l4xx_hal_dma.c ****   }
  90              		.loc 1 1095 9 is_stmt 0 view .LVU24
  91 0030 0368     		ldr	r3, [r0]
1095:../Drivers/STM32L4xx_HAL_Driver/Src/stm32l4xx_hal_dma.c ****   }
  92              		.loc 1 1095 26 view .LVU25
  93 0032 D960     		str	r1, [r3, #12]
  94 0034 F8E7     		b	.L1
  95              		.cfi_endproc
  96              	.LFE86:
  98              		.section	.text.HAL_DMA_Init,"ax",%progbits
  99              		.align	1
 100              		.global	HAL_DMA_Init
 101              		.syntax unified
 102              		.thumb
 103              		.thumb_func
 105              	HAL_DMA_Init:
 106              	.LVL5:
 107              	.LFB74:
 155:../Drivers/STM32L4xx_HAL_Driver/Src/stm32l4xx_hal_dma.c ****   uint32_t tmp;
 108              		.loc 1 155 1 is_stmt 1 view -0
 109              		.cfi_startproc
 110              		@ args = 0, pretend = 0, frame = 0
 111              		@ frame_needed = 0, uses_anonymous_args = 0
 112              		@ link register save eliminated.
 156:../Drivers/STM32L4xx_HAL_Driver/Src/stm32l4xx_hal_dma.c **** 
 113              		.loc 1 156 3 view .LVU27
 159:../Drivers/STM32L4xx_HAL_Driver/Src/stm32l4xx_hal_dma.c ****   {
 114              		.loc 1 159 3 view .LVU28
 159:../Drivers/STM32L4xx_HAL_Driver/Src/stm32l4xx_hal_dma.c ****   {
 115              		.loc 1 159 6 is_stmt 0 view .LVU29
 116 0000 0028     		cmp	r0, #0
 117 0002 72D0     		beq	.L12
 155:../Drivers/STM32L4xx_HAL_Driver/Src/stm32l4xx_hal_dma.c ****   uint32_t tmp;
 118              		.loc 1 155 1 view .LVU30
 119 0004 10B4     		push	{r4}
 120              	.LCFI3:
 121              		.cfi_def_cfa_offset 4
 122              		.cfi_offset 4, -4
 123 0006 0346     		mov	r3, r0
 165:../Drivers/STM32L4xx_HAL_Driver/Src/stm32l4xx_hal_dma.c ****   assert_param(IS_DMA_DIRECTION(hdma->Init.Direction));
 124              		.loc 1 165 3 is_stmt 1 view .LVU31
 166:../Drivers/STM32L4xx_HAL_Driver/Src/stm32l4xx_hal_dma.c ****   assert_param(IS_DMA_PERIPHERAL_INC_STATE(hdma->Init.PeriphInc));
 125              		.loc 1 166 3 view .LVU32
 167:../Drivers/STM32L4xx_HAL_Driver/Src/stm32l4xx_hal_dma.c ****   assert_param(IS_DMA_MEMORY_INC_STATE(hdma->Init.MemInc));
 126              		.loc 1 167 3 view .LVU33
 168:../Drivers/STM32L4xx_HAL_Driver/Src/stm32l4xx_hal_dma.c ****   assert_param(IS_DMA_PERIPHERAL_DATA_SIZE(hdma->Init.PeriphDataAlignment));
 127              		.loc 1 168 3 view .LVU34
 169:../Drivers/STM32L4xx_HAL_Driver/Src/stm32l4xx_hal_dma.c ****   assert_param(IS_DMA_MEMORY_DATA_SIZE(hdma->Init.MemDataAlignment));
 128              		.loc 1 169 3 view .LVU35
 170:../Drivers/STM32L4xx_HAL_Driver/Src/stm32l4xx_hal_dma.c ****   assert_param(IS_DMA_MODE(hdma->Init.Mode));
 129              		.loc 1 170 3 view .LVU36
 171:../Drivers/STM32L4xx_HAL_Driver/Src/stm32l4xx_hal_dma.c ****   assert_param(IS_DMA_PRIORITY(hdma->Init.Priority));
 130              		.loc 1 171 3 view .LVU37
 172:../Drivers/STM32L4xx_HAL_Driver/Src/stm32l4xx_hal_dma.c **** 
 131              		.loc 1 172 3 view .LVU38
 174:../Drivers/STM32L4xx_HAL_Driver/Src/stm32l4xx_hal_dma.c **** 
ARM GAS  Build/stm32l4xx_hal_dma.s 			page 23


 132              		.loc 1 174 3 view .LVU39
 177:../Drivers/STM32L4xx_HAL_Driver/Src/stm32l4xx_hal_dma.c ****   {
 133              		.loc 1 177 3 view .LVU40
 177:../Drivers/STM32L4xx_HAL_Driver/Src/stm32l4xx_hal_dma.c ****   {
 134              		.loc 1 177 22 is_stmt 0 view .LVU41
 135 0008 0068     		ldr	r0, [r0]
 136              	.LVL6:
 177:../Drivers/STM32L4xx_HAL_Driver/Src/stm32l4xx_hal_dma.c ****   {
 137              		.loc 1 177 6 view .LVU42
 138 000a 394A     		ldr	r2, .L18
 139 000c 9042     		cmp	r0, r2
 140 000e 49D8     		bhi	.L8
 180:../Drivers/STM32L4xx_HAL_Driver/Src/stm32l4xx_hal_dma.c ****     hdma->DmaBaseAddress = DMA1;
 141              		.loc 1 180 5 is_stmt 1 view .LVU43
 180:../Drivers/STM32L4xx_HAL_Driver/Src/stm32l4xx_hal_dma.c ****     hdma->DmaBaseAddress = DMA1;
 142              		.loc 1 180 53 is_stmt 0 view .LVU44
 143 0010 384A     		ldr	r2, .L18+4
 144 0012 0244     		add	r2, r2, r0
 180:../Drivers/STM32L4xx_HAL_Driver/Src/stm32l4xx_hal_dma.c ****     hdma->DmaBaseAddress = DMA1;
 145              		.loc 1 180 80 view .LVU45
 146 0014 3849     		ldr	r1, .L18+8
 147 0016 A1FB0212 		umull	r1, r2, r1, r2
 148 001a 1209     		lsrs	r2, r2, #4
 180:../Drivers/STM32L4xx_HAL_Driver/Src/stm32l4xx_hal_dma.c ****     hdma->DmaBaseAddress = DMA1;
 149              		.loc 1 180 135 view .LVU46
 150 001c 9200     		lsls	r2, r2, #2
 180:../Drivers/STM32L4xx_HAL_Driver/Src/stm32l4xx_hal_dma.c ****     hdma->DmaBaseAddress = DMA1;
 151              		.loc 1 180 24 view .LVU47
 152 001e 5A64     		str	r2, [r3, #68]
 181:../Drivers/STM32L4xx_HAL_Driver/Src/stm32l4xx_hal_dma.c ****   }
 153              		.loc 1 181 5 is_stmt 1 view .LVU48
 181:../Drivers/STM32L4xx_HAL_Driver/Src/stm32l4xx_hal_dma.c ****   }
 154              		.loc 1 181 26 is_stmt 0 view .LVU49
 155 0020 364A     		ldr	r2, .L18+12
 156 0022 1A64     		str	r2, [r3, #64]
 157              	.L9:
 191:../Drivers/STM32L4xx_HAL_Driver/Src/stm32l4xx_hal_dma.c **** 
 158              		.loc 1 191 3 is_stmt 1 view .LVU50
 191:../Drivers/STM32L4xx_HAL_Driver/Src/stm32l4xx_hal_dma.c **** 
 159              		.loc 1 191 15 is_stmt 0 view .LVU51
 160 0024 0222     		movs	r2, #2
 161 0026 83F82520 		strb	r2, [r3, #37]
 194:../Drivers/STM32L4xx_HAL_Driver/Src/stm32l4xx_hal_dma.c **** 
 162              		.loc 1 194 3 is_stmt 1 view .LVU52
 194:../Drivers/STM32L4xx_HAL_Driver/Src/stm32l4xx_hal_dma.c **** 
 163              		.loc 1 194 7 is_stmt 0 view .LVU53
 164 002a 0168     		ldr	r1, [r0]
 165              	.LVL7:
 197:../Drivers/STM32L4xx_HAL_Driver/Src/stm32l4xx_hal_dma.c ****                       DMA_CCR_MINC  | DMA_CCR_PINC   | DMA_CCR_CIRC   |
 166              		.loc 1 197 3 is_stmt 1 view .LVU54
 197:../Drivers/STM32L4xx_HAL_Driver/Src/stm32l4xx_hal_dma.c ****                       DMA_CCR_MINC  | DMA_CCR_PINC   | DMA_CCR_CIRC   |
 167              		.loc 1 197 7 is_stmt 0 view .LVU55
 168 002c 21F4FF41 		bic	r1, r1, #32640
 169              	.LVL8:
 197:../Drivers/STM32L4xx_HAL_Driver/Src/stm32l4xx_hal_dma.c ****                       DMA_CCR_MINC  | DMA_CCR_PINC   | DMA_CCR_CIRC   |
 170              		.loc 1 197 7 view .LVU56
 171 0030 21F07001 		bic	r1, r1, #112
ARM GAS  Build/stm32l4xx_hal_dma.s 			page 24


 172              	.LVL9:
 202:../Drivers/STM32L4xx_HAL_Driver/Src/stm32l4xx_hal_dma.c ****           hdma->Init.PeriphInc           | hdma->Init.MemInc           |
 173              		.loc 1 202 3 is_stmt 1 view .LVU57
 202:../Drivers/STM32L4xx_HAL_Driver/Src/stm32l4xx_hal_dma.c ****           hdma->Init.PeriphInc           | hdma->Init.MemInc           |
 174              		.loc 1 202 21 is_stmt 0 view .LVU58
 175 0034 9A68     		ldr	r2, [r3, #8]
 202:../Drivers/STM32L4xx_HAL_Driver/Src/stm32l4xx_hal_dma.c ****           hdma->Init.PeriphInc           | hdma->Init.MemInc           |
 176              		.loc 1 202 39 view .LVU59
 177 0036 DC68     		ldr	r4, [r3, #12]
 178 0038 2243     		orrs	r2, r2, r4
 203:../Drivers/STM32L4xx_HAL_Driver/Src/stm32l4xx_hal_dma.c ****           hdma->Init.PeriphDataAlignment | hdma->Init.MemDataAlignment |
 179              		.loc 1 203 42 view .LVU60
 180 003a 1C69     		ldr	r4, [r3, #16]
 181 003c 2243     		orrs	r2, r2, r4
 203:../Drivers/STM32L4xx_HAL_Driver/Src/stm32l4xx_hal_dma.c ****           hdma->Init.PeriphDataAlignment | hdma->Init.MemDataAlignment |
 182              		.loc 1 203 72 view .LVU61
 183 003e 5C69     		ldr	r4, [r3, #20]
 184 0040 2243     		orrs	r2, r2, r4
 204:../Drivers/STM32L4xx_HAL_Driver/Src/stm32l4xx_hal_dma.c ****           hdma->Init.Mode                | hdma->Init.Priority;
 185              		.loc 1 204 42 view .LVU62
 186 0042 9C69     		ldr	r4, [r3, #24]
 187 0044 2243     		orrs	r2, r2, r4
 204:../Drivers/STM32L4xx_HAL_Driver/Src/stm32l4xx_hal_dma.c ****           hdma->Init.Mode                | hdma->Init.Priority;
 188              		.loc 1 204 72 view .LVU63
 189 0046 DC69     		ldr	r4, [r3, #28]
 190 0048 2243     		orrs	r2, r2, r4
 205:../Drivers/STM32L4xx_HAL_Driver/Src/stm32l4xx_hal_dma.c **** 
 191              		.loc 1 205 42 view .LVU64
 192 004a 1C6A     		ldr	r4, [r3, #32]
 193 004c 2243     		orrs	r2, r2, r4
 202:../Drivers/STM32L4xx_HAL_Driver/Src/stm32l4xx_hal_dma.c ****           hdma->Init.PeriphInc           | hdma->Init.MemInc           |
 194              		.loc 1 202 7 view .LVU65
 195 004e 0A43     		orrs	r2, r2, r1
 196              	.LVL10:
 208:../Drivers/STM32L4xx_HAL_Driver/Src/stm32l4xx_hal_dma.c **** 
 197              		.loc 1 208 3 is_stmt 1 view .LVU66
 208:../Drivers/STM32L4xx_HAL_Driver/Src/stm32l4xx_hal_dma.c **** 
 198              		.loc 1 208 23 is_stmt 0 view .LVU67
 199 0050 0260     		str	r2, [r0]
 252:../Drivers/STM32L4xx_HAL_Driver/Src/stm32l4xx_hal_dma.c ****   {
 200              		.loc 1 252 3 is_stmt 1 view .LVU68
 252:../Drivers/STM32L4xx_HAL_Driver/Src/stm32l4xx_hal_dma.c ****   {
 201              		.loc 1 252 17 is_stmt 0 view .LVU69
 202 0052 9A68     		ldr	r2, [r3, #8]
 203              	.LVL11:
 252:../Drivers/STM32L4xx_HAL_Driver/Src/stm32l4xx_hal_dma.c ****   {
 204              		.loc 1 252 6 view .LVU70
 205 0054 B2F5804F 		cmp	r2, #16384
 206 0058 1BD0     		beq	.L10
 255:../Drivers/STM32L4xx_HAL_Driver/Src/stm32l4xx_hal_dma.c ****     {
 207              		.loc 1 255 5 is_stmt 1 view .LVU71
 255:../Drivers/STM32L4xx_HAL_Driver/Src/stm32l4xx_hal_dma.c ****     {
 208              		.loc 1 255 21 is_stmt 0 view .LVU72
 209 005a 196C     		ldr	r1, [r3, #64]
 255:../Drivers/STM32L4xx_HAL_Driver/Src/stm32l4xx_hal_dma.c ****     {
 210              		.loc 1 255 8 view .LVU73
 211 005c 274A     		ldr	r2, .L18+12
ARM GAS  Build/stm32l4xx_hal_dma.s 			page 25


 212 005e 9142     		cmp	r1, r2
 213 0060 2BD0     		beq	.L17
 266:../Drivers/STM32L4xx_HAL_Driver/Src/stm32l4xx_hal_dma.c **** 
 214              		.loc 1 266 7 is_stmt 1 view .LVU74
 266:../Drivers/STM32L4xx_HAL_Driver/Src/stm32l4xx_hal_dma.c **** 
 215              		.loc 1 266 17 is_stmt 0 view .LVU75
 216 0062 264A     		ldr	r2, .L18+12
 217 0064 D2F8A814 		ldr	r1, [r2, #1192]
 266:../Drivers/STM32L4xx_HAL_Driver/Src/stm32l4xx_hal_dma.c **** 
 218              		.loc 1 266 52 view .LVU76
 219 0068 586C     		ldr	r0, [r3, #68]
 220              	.LVL12:
 266:../Drivers/STM32L4xx_HAL_Driver/Src/stm32l4xx_hal_dma.c **** 
 221              		.loc 1 266 67 view .LVU77
 222 006a 00F01C0C 		and	ip, r0, #28
 266:../Drivers/STM32L4xx_HAL_Driver/Src/stm32l4xx_hal_dma.c **** 
 223              		.loc 1 266 44 view .LVU78
 224 006e 0F20     		movs	r0, #15
 225 0070 00FA0CF0 		lsl	r0, r0, ip
 266:../Drivers/STM32L4xx_HAL_Driver/Src/stm32l4xx_hal_dma.c **** 
 226              		.loc 1 266 25 view .LVU79
 227 0074 21EA0001 		bic	r1, r1, r0
 228 0078 C2F8A814 		str	r1, [r2, #1192]
 269:../Drivers/STM32L4xx_HAL_Driver/Src/stm32l4xx_hal_dma.c ****     }
 229              		.loc 1 269 7 is_stmt 1 view .LVU80
 269:../Drivers/STM32L4xx_HAL_Driver/Src/stm32l4xx_hal_dma.c ****     }
 230              		.loc 1 269 17 is_stmt 0 view .LVU81
 231 007c D2F8A814 		ldr	r1, [r2, #1192]
 269:../Drivers/STM32L4xx_HAL_Driver/Src/stm32l4xx_hal_dma.c ****     }
 232              		.loc 1 269 49 view .LVU82
 233 0080 5868     		ldr	r0, [r3, #4]
 269:../Drivers/STM32L4xx_HAL_Driver/Src/stm32l4xx_hal_dma.c ****     }
 234              		.loc 1 269 81 view .LVU83
 235 0082 5C6C     		ldr	r4, [r3, #68]
 236 0084 04F01C0C 		and	ip, r4, #28
 269:../Drivers/STM32L4xx_HAL_Driver/Src/stm32l4xx_hal_dma.c ****     }
 237              		.loc 1 269 58 view .LVU84
 238 0088 00FA0CF0 		lsl	r0, r0, ip
 269:../Drivers/STM32L4xx_HAL_Driver/Src/stm32l4xx_hal_dma.c ****     }
 239              		.loc 1 269 25 view .LVU85
 240 008c 0143     		orrs	r1, r1, r0
 241 008e C2F8A814 		str	r1, [r2, #1192]
 242              	.L10:
 278:../Drivers/STM32L4xx_HAL_Driver/Src/stm32l4xx_hal_dma.c **** 
 243              		.loc 1 278 3 is_stmt 1 view .LVU86
 278:../Drivers/STM32L4xx_HAL_Driver/Src/stm32l4xx_hal_dma.c **** 
 244              		.loc 1 278 19 is_stmt 0 view .LVU87
 245 0092 0020     		movs	r0, #0
 246 0094 D863     		str	r0, [r3, #60]
 281:../Drivers/STM32L4xx_HAL_Driver/Src/stm32l4xx_hal_dma.c **** 
 247              		.loc 1 281 3 is_stmt 1 view .LVU88
 281:../Drivers/STM32L4xx_HAL_Driver/Src/stm32l4xx_hal_dma.c **** 
 248              		.loc 1 281 15 is_stmt 0 view .LVU89
 249 0096 0122     		movs	r2, #1
 250 0098 83F82520 		strb	r2, [r3, #37]
 284:../Drivers/STM32L4xx_HAL_Driver/Src/stm32l4xx_hal_dma.c **** 
 251              		.loc 1 284 3 is_stmt 1 view .LVU90
ARM GAS  Build/stm32l4xx_hal_dma.s 			page 26


 284:../Drivers/STM32L4xx_HAL_Driver/Src/stm32l4xx_hal_dma.c **** 
 252              		.loc 1 284 14 is_stmt 0 view .LVU91
 253 009c 83F82400 		strb	r0, [r3, #36]
 286:../Drivers/STM32L4xx_HAL_Driver/Src/stm32l4xx_hal_dma.c **** }
 254              		.loc 1 286 3 is_stmt 1 view .LVU92
 287:../Drivers/STM32L4xx_HAL_Driver/Src/stm32l4xx_hal_dma.c **** 
 255              		.loc 1 287 1 is_stmt 0 view .LVU93
 256 00a0 10BC     		pop	{r4}
 257              	.LCFI4:
 258              		.cfi_remember_state
 259              		.cfi_restore 4
 260              		.cfi_def_cfa_offset 0
 261 00a2 7047     		bx	lr
 262              	.LVL13:
 263              	.L8:
 264              	.LCFI5:
 265              		.cfi_restore_state
 186:../Drivers/STM32L4xx_HAL_Driver/Src/stm32l4xx_hal_dma.c ****     hdma->DmaBaseAddress = DMA2;
 266              		.loc 1 186 5 is_stmt 1 view .LVU94
 186:../Drivers/STM32L4xx_HAL_Driver/Src/stm32l4xx_hal_dma.c ****     hdma->DmaBaseAddress = DMA2;
 267              		.loc 1 186 53 is_stmt 0 view .LVU95
 268 00a4 164A     		ldr	r2, .L18+16
 269 00a6 0244     		add	r2, r2, r0
 186:../Drivers/STM32L4xx_HAL_Driver/Src/stm32l4xx_hal_dma.c ****     hdma->DmaBaseAddress = DMA2;
 270              		.loc 1 186 80 view .LVU96
 271 00a8 1349     		ldr	r1, .L18+8
 272 00aa A1FB0212 		umull	r1, r2, r1, r2
 273 00ae 1209     		lsrs	r2, r2, #4
 186:../Drivers/STM32L4xx_HAL_Driver/Src/stm32l4xx_hal_dma.c ****     hdma->DmaBaseAddress = DMA2;
 274              		.loc 1 186 135 view .LVU97
 275 00b0 9200     		lsls	r2, r2, #2
 186:../Drivers/STM32L4xx_HAL_Driver/Src/stm32l4xx_hal_dma.c ****     hdma->DmaBaseAddress = DMA2;
 276              		.loc 1 186 24 view .LVU98
 277 00b2 5A64     		str	r2, [r3, #68]
 187:../Drivers/STM32L4xx_HAL_Driver/Src/stm32l4xx_hal_dma.c ****   }
 278              		.loc 1 187 5 is_stmt 1 view .LVU99
 187:../Drivers/STM32L4xx_HAL_Driver/Src/stm32l4xx_hal_dma.c ****   }
 279              		.loc 1 187 26 is_stmt 0 view .LVU100
 280 00b4 134A     		ldr	r2, .L18+20
 281 00b6 1A64     		str	r2, [r3, #64]
 282 00b8 B4E7     		b	.L9
 283              	.LVL14:
 284              	.L17:
 258:../Drivers/STM32L4xx_HAL_Driver/Src/stm32l4xx_hal_dma.c **** 
 285              		.loc 1 258 7 is_stmt 1 view .LVU101
 258:../Drivers/STM32L4xx_HAL_Driver/Src/stm32l4xx_hal_dma.c **** 
 286              		.loc 1 258 17 is_stmt 0 view .LVU102
 287 00ba D2F8A810 		ldr	r1, [r2, #168]
 258:../Drivers/STM32L4xx_HAL_Driver/Src/stm32l4xx_hal_dma.c **** 
 288              		.loc 1 258 52 view .LVU103
 289 00be 586C     		ldr	r0, [r3, #68]
 290              	.LVL15:
 258:../Drivers/STM32L4xx_HAL_Driver/Src/stm32l4xx_hal_dma.c **** 
 291              		.loc 1 258 67 view .LVU104
 292 00c0 00F01C0C 		and	ip, r0, #28
 258:../Drivers/STM32L4xx_HAL_Driver/Src/stm32l4xx_hal_dma.c **** 
 293              		.loc 1 258 44 view .LVU105
ARM GAS  Build/stm32l4xx_hal_dma.s 			page 27


 294 00c4 0F20     		movs	r0, #15
 295 00c6 00FA0CF0 		lsl	r0, r0, ip
 258:../Drivers/STM32L4xx_HAL_Driver/Src/stm32l4xx_hal_dma.c **** 
 296              		.loc 1 258 25 view .LVU106
 297 00ca 21EA0001 		bic	r1, r1, r0
 298 00ce C2F8A810 		str	r1, [r2, #168]
 261:../Drivers/STM32L4xx_HAL_Driver/Src/stm32l4xx_hal_dma.c ****     }
 299              		.loc 1 261 7 is_stmt 1 view .LVU107
 261:../Drivers/STM32L4xx_HAL_Driver/Src/stm32l4xx_hal_dma.c ****     }
 300              		.loc 1 261 17 is_stmt 0 view .LVU108
 301 00d2 D2F8A810 		ldr	r1, [r2, #168]
 261:../Drivers/STM32L4xx_HAL_Driver/Src/stm32l4xx_hal_dma.c ****     }
 302              		.loc 1 261 49 view .LVU109
 303 00d6 5868     		ldr	r0, [r3, #4]
 261:../Drivers/STM32L4xx_HAL_Driver/Src/stm32l4xx_hal_dma.c ****     }
 304              		.loc 1 261 81 view .LVU110
 305 00d8 5C6C     		ldr	r4, [r3, #68]
 306 00da 04F01C0C 		and	ip, r4, #28
 261:../Drivers/STM32L4xx_HAL_Driver/Src/stm32l4xx_hal_dma.c ****     }
 307              		.loc 1 261 58 view .LVU111
 308 00de 00FA0CF0 		lsl	r0, r0, ip
 261:../Drivers/STM32L4xx_HAL_Driver/Src/stm32l4xx_hal_dma.c ****     }
 309              		.loc 1 261 25 view .LVU112
 310 00e2 0143     		orrs	r1, r1, r0
 311 00e4 C2F8A810 		str	r1, [r2, #168]
 312 00e8 D3E7     		b	.L10
 313              	.LVL16:
 314              	.L12:
 315              	.LCFI6:
 316              		.cfi_def_cfa_offset 0
 317              		.cfi_restore 4
 161:../Drivers/STM32L4xx_HAL_Driver/Src/stm32l4xx_hal_dma.c ****   }
 318              		.loc 1 161 12 view .LVU113
 319 00ea 0120     		movs	r0, #1
 320              	.LVL17:
 287:../Drivers/STM32L4xx_HAL_Driver/Src/stm32l4xx_hal_dma.c **** 
 321              		.loc 1 287 1 view .LVU114
 322 00ec 7047     		bx	lr
 323              	.L19:
 324 00ee 00BF     		.align	2
 325              	.L18:
 326 00f0 07040240 		.word	1073873927
 327 00f4 F8FFFDBF 		.word	-1073872904
 328 00f8 CDCCCCCC 		.word	-858993459
 329 00fc 00000240 		.word	1073872896
 330 0100 F8FBFDBF 		.word	-1073873928
 331 0104 00040240 		.word	1073873920
 332              		.cfi_endproc
 333              	.LFE74:
 335              		.section	.text.HAL_DMA_DeInit,"ax",%progbits
 336              		.align	1
 337              		.global	HAL_DMA_DeInit
 338              		.syntax unified
 339              		.thumb
 340              		.thumb_func
 342              	HAL_DMA_DeInit:
 343              	.LVL18:
ARM GAS  Build/stm32l4xx_hal_dma.s 			page 28


 344              	.LFB75:
 296:../Drivers/STM32L4xx_HAL_Driver/Src/stm32l4xx_hal_dma.c **** 
 345              		.loc 1 296 1 is_stmt 1 view -0
 346              		.cfi_startproc
 347              		@ args = 0, pretend = 0, frame = 0
 348              		@ frame_needed = 0, uses_anonymous_args = 0
 349              		@ link register save eliminated.
 299:../Drivers/STM32L4xx_HAL_Driver/Src/stm32l4xx_hal_dma.c ****   {
 350              		.loc 1 299 3 view .LVU116
 299:../Drivers/STM32L4xx_HAL_Driver/Src/stm32l4xx_hal_dma.c ****   {
 351              		.loc 1 299 6 is_stmt 0 view .LVU117
 352 0000 0028     		cmp	r0, #0
 353 0002 51D0     		beq	.L26
 296:../Drivers/STM32L4xx_HAL_Driver/Src/stm32l4xx_hal_dma.c **** 
 354              		.loc 1 296 1 view .LVU118
 355 0004 10B4     		push	{r4}
 356              	.LCFI7:
 357              		.cfi_def_cfa_offset 4
 358              		.cfi_offset 4, -4
 359 0006 0346     		mov	r3, r0
 305:../Drivers/STM32L4xx_HAL_Driver/Src/stm32l4xx_hal_dma.c **** 
 360              		.loc 1 305 3 is_stmt 1 view .LVU119
 308:../Drivers/STM32L4xx_HAL_Driver/Src/stm32l4xx_hal_dma.c **** 
 361              		.loc 1 308 3 view .LVU120
 362 0008 0168     		ldr	r1, [r0]
 363 000a 0A68     		ldr	r2, [r1]
 364 000c 22F00102 		bic	r2, r2, #1
 365 0010 0A60     		str	r2, [r1]
 311:../Drivers/STM32L4xx_HAL_Driver/Src/stm32l4xx_hal_dma.c ****   {
 366              		.loc 1 311 3 view .LVU121
 311:../Drivers/STM32L4xx_HAL_Driver/Src/stm32l4xx_hal_dma.c ****   {
 367              		.loc 1 311 22 is_stmt 0 view .LVU122
 368 0012 0168     		ldr	r1, [r0]
 311:../Drivers/STM32L4xx_HAL_Driver/Src/stm32l4xx_hal_dma.c ****   {
 369              		.loc 1 311 6 view .LVU123
 370 0014 254A     		ldr	r2, .L32
 371 0016 9142     		cmp	r1, r2
 372 0018 2ED8     		bhi	.L22
 314:../Drivers/STM32L4xx_HAL_Driver/Src/stm32l4xx_hal_dma.c ****     hdma->DmaBaseAddress = DMA1;
 373              		.loc 1 314 5 is_stmt 1 view .LVU124
 314:../Drivers/STM32L4xx_HAL_Driver/Src/stm32l4xx_hal_dma.c ****     hdma->DmaBaseAddress = DMA1;
 374              		.loc 1 314 53 is_stmt 0 view .LVU125
 375 001a 254A     		ldr	r2, .L32+4
 376 001c 0A44     		add	r2, r2, r1
 314:../Drivers/STM32L4xx_HAL_Driver/Src/stm32l4xx_hal_dma.c ****     hdma->DmaBaseAddress = DMA1;
 377              		.loc 1 314 80 view .LVU126
 378 001e 2548     		ldr	r0, .L32+8
 379              	.LVL19:
 314:../Drivers/STM32L4xx_HAL_Driver/Src/stm32l4xx_hal_dma.c ****     hdma->DmaBaseAddress = DMA1;
 380              		.loc 1 314 80 view .LVU127
 381 0020 A0FB0202 		umull	r0, r2, r0, r2
 382 0024 1209     		lsrs	r2, r2, #4
 314:../Drivers/STM32L4xx_HAL_Driver/Src/stm32l4xx_hal_dma.c ****     hdma->DmaBaseAddress = DMA1;
 383              		.loc 1 314 135 view .LVU128
 384 0026 9200     		lsls	r2, r2, #2
 314:../Drivers/STM32L4xx_HAL_Driver/Src/stm32l4xx_hal_dma.c ****     hdma->DmaBaseAddress = DMA1;
 385              		.loc 1 314 24 view .LVU129
ARM GAS  Build/stm32l4xx_hal_dma.s 			page 29


 386 0028 5A64     		str	r2, [r3, #68]
 315:../Drivers/STM32L4xx_HAL_Driver/Src/stm32l4xx_hal_dma.c ****   }
 387              		.loc 1 315 5 is_stmt 1 view .LVU130
 315:../Drivers/STM32L4xx_HAL_Driver/Src/stm32l4xx_hal_dma.c ****   }
 388              		.loc 1 315 26 is_stmt 0 view .LVU131
 389 002a 234A     		ldr	r2, .L32+12
 390 002c 1A64     		str	r2, [r3, #64]
 391              	.L23:
 325:../Drivers/STM32L4xx_HAL_Driver/Src/stm32l4xx_hal_dma.c **** 
 392              		.loc 1 325 3 is_stmt 1 view .LVU132
 325:../Drivers/STM32L4xx_HAL_Driver/Src/stm32l4xx_hal_dma.c **** 
 393              		.loc 1 325 23 is_stmt 0 view .LVU133
 394 002e 0022     		movs	r2, #0
 395 0030 0A60     		str	r2, [r1]
 328:../Drivers/STM32L4xx_HAL_Driver/Src/stm32l4xx_hal_dma.c **** 
 396              		.loc 1 328 3 is_stmt 1 view .LVU134
 328:../Drivers/STM32L4xx_HAL_Driver/Src/stm32l4xx_hal_dma.c **** 
 397              		.loc 1 328 54 is_stmt 0 view .LVU135
 398 0032 5A6C     		ldr	r2, [r3, #68]
 328:../Drivers/STM32L4xx_HAL_Driver/Src/stm32l4xx_hal_dma.c **** 
 399              		.loc 1 328 69 view .LVU136
 400 0034 02F01C01 		and	r1, r2, #28
 328:../Drivers/STM32L4xx_HAL_Driver/Src/stm32l4xx_hal_dma.c **** 
 401              		.loc 1 328 7 view .LVU137
 402 0038 186C     		ldr	r0, [r3, #64]
 328:../Drivers/STM32L4xx_HAL_Driver/Src/stm32l4xx_hal_dma.c **** 
 403              		.loc 1 328 46 view .LVU138
 404 003a 0122     		movs	r2, #1
 405 003c 8A40     		lsls	r2, r2, r1
 328:../Drivers/STM32L4xx_HAL_Driver/Src/stm32l4xx_hal_dma.c **** 
 406              		.loc 1 328 30 view .LVU139
 407 003e 4260     		str	r2, [r0, #4]
 333:../Drivers/STM32L4xx_HAL_Driver/Src/stm32l4xx_hal_dma.c ****   {
 408              		.loc 1 333 3 is_stmt 1 view .LVU140
 333:../Drivers/STM32L4xx_HAL_Driver/Src/stm32l4xx_hal_dma.c ****   {
 409              		.loc 1 333 19 is_stmt 0 view .LVU141
 410 0040 196C     		ldr	r1, [r3, #64]
 333:../Drivers/STM32L4xx_HAL_Driver/Src/stm32l4xx_hal_dma.c ****   {
 411              		.loc 1 333 6 view .LVU142
 412 0042 1D4A     		ldr	r2, .L32+12
 413 0044 9142     		cmp	r1, r2
 414 0046 22D0     		beq	.L31
 341:../Drivers/STM32L4xx_HAL_Driver/Src/stm32l4xx_hal_dma.c ****   }
 415              		.loc 1 341 5 is_stmt 1 view .LVU143
 341:../Drivers/STM32L4xx_HAL_Driver/Src/stm32l4xx_hal_dma.c ****   }
 416              		.loc 1 341 15 is_stmt 0 view .LVU144
 417 0048 1B4C     		ldr	r4, .L32+12
 418 004a D4F8A824 		ldr	r2, [r4, #1192]
 341:../Drivers/STM32L4xx_HAL_Driver/Src/stm32l4xx_hal_dma.c ****   }
 419              		.loc 1 341 50 view .LVU145
 420 004e 596C     		ldr	r1, [r3, #68]
 341:../Drivers/STM32L4xx_HAL_Driver/Src/stm32l4xx_hal_dma.c ****   }
 421              		.loc 1 341 65 view .LVU146
 422 0050 01F01C00 		and	r0, r1, #28
 341:../Drivers/STM32L4xx_HAL_Driver/Src/stm32l4xx_hal_dma.c ****   }
 423              		.loc 1 341 42 view .LVU147
 424 0054 0F21     		movs	r1, #15
ARM GAS  Build/stm32l4xx_hal_dma.s 			page 30


 425 0056 8140     		lsls	r1, r1, r0
 341:../Drivers/STM32L4xx_HAL_Driver/Src/stm32l4xx_hal_dma.c ****   }
 426              		.loc 1 341 23 view .LVU148
 427 0058 22EA0102 		bic	r2, r2, r1
 428 005c C4F8A824 		str	r2, [r4, #1192]
 429              	.L25:
 382:../Drivers/STM32L4xx_HAL_Driver/Src/stm32l4xx_hal_dma.c ****   hdma->XferHalfCpltCallback = NULL;
 430              		.loc 1 382 3 is_stmt 1 view .LVU149
 382:../Drivers/STM32L4xx_HAL_Driver/Src/stm32l4xx_hal_dma.c ****   hdma->XferHalfCpltCallback = NULL;
 431              		.loc 1 382 26 is_stmt 0 view .LVU150
 432 0060 0020     		movs	r0, #0
 433 0062 D862     		str	r0, [r3, #44]
 383:../Drivers/STM32L4xx_HAL_Driver/Src/stm32l4xx_hal_dma.c ****   hdma->XferErrorCallback = NULL;
 434              		.loc 1 383 3 is_stmt 1 view .LVU151
 383:../Drivers/STM32L4xx_HAL_Driver/Src/stm32l4xx_hal_dma.c ****   hdma->XferErrorCallback = NULL;
 435              		.loc 1 383 30 is_stmt 0 view .LVU152
 436 0064 1863     		str	r0, [r3, #48]
 384:../Drivers/STM32L4xx_HAL_Driver/Src/stm32l4xx_hal_dma.c ****   hdma->XferAbortCallback = NULL;
 437              		.loc 1 384 3 is_stmt 1 view .LVU153
 384:../Drivers/STM32L4xx_HAL_Driver/Src/stm32l4xx_hal_dma.c ****   hdma->XferAbortCallback = NULL;
 438              		.loc 1 384 27 is_stmt 0 view .LVU154
 439 0066 5863     		str	r0, [r3, #52]
 385:../Drivers/STM32L4xx_HAL_Driver/Src/stm32l4xx_hal_dma.c **** 
 440              		.loc 1 385 3 is_stmt 1 view .LVU155
 385:../Drivers/STM32L4xx_HAL_Driver/Src/stm32l4xx_hal_dma.c **** 
 441              		.loc 1 385 27 is_stmt 0 view .LVU156
 442 0068 9863     		str	r0, [r3, #56]
 388:../Drivers/STM32L4xx_HAL_Driver/Src/stm32l4xx_hal_dma.c **** 
 443              		.loc 1 388 3 is_stmt 1 view .LVU157
 388:../Drivers/STM32L4xx_HAL_Driver/Src/stm32l4xx_hal_dma.c **** 
 444              		.loc 1 388 19 is_stmt 0 view .LVU158
 445 006a D863     		str	r0, [r3, #60]
 391:../Drivers/STM32L4xx_HAL_Driver/Src/stm32l4xx_hal_dma.c **** 
 446              		.loc 1 391 3 is_stmt 1 view .LVU159
 391:../Drivers/STM32L4xx_HAL_Driver/Src/stm32l4xx_hal_dma.c **** 
 447              		.loc 1 391 15 is_stmt 0 view .LVU160
 448 006c 83F82500 		strb	r0, [r3, #37]
 394:../Drivers/STM32L4xx_HAL_Driver/Src/stm32l4xx_hal_dma.c **** 
 449              		.loc 1 394 3 is_stmt 1 view .LVU161
 394:../Drivers/STM32L4xx_HAL_Driver/Src/stm32l4xx_hal_dma.c **** 
 450              		.loc 1 394 3 view .LVU162
 451 0070 83F82400 		strb	r0, [r3, #36]
 394:../Drivers/STM32L4xx_HAL_Driver/Src/stm32l4xx_hal_dma.c **** 
 452              		.loc 1 394 3 view .LVU163
 396:../Drivers/STM32L4xx_HAL_Driver/Src/stm32l4xx_hal_dma.c **** }
 453              		.loc 1 396 3 view .LVU164
 397:../Drivers/STM32L4xx_HAL_Driver/Src/stm32l4xx_hal_dma.c **** 
 454              		.loc 1 397 1 is_stmt 0 view .LVU165
 455 0074 10BC     		pop	{r4}
 456              	.LCFI8:
 457              		.cfi_remember_state
 458              		.cfi_restore 4
 459              		.cfi_def_cfa_offset 0
 460 0076 7047     		bx	lr
 461              	.LVL20:
 462              	.L22:
 463              	.LCFI9:
ARM GAS  Build/stm32l4xx_hal_dma.s 			page 31


 464              		.cfi_restore_state
 320:../Drivers/STM32L4xx_HAL_Driver/Src/stm32l4xx_hal_dma.c ****     hdma->DmaBaseAddress = DMA2;
 465              		.loc 1 320 5 is_stmt 1 view .LVU166
 320:../Drivers/STM32L4xx_HAL_Driver/Src/stm32l4xx_hal_dma.c ****     hdma->DmaBaseAddress = DMA2;
 466              		.loc 1 320 53 is_stmt 0 view .LVU167
 467 0078 104A     		ldr	r2, .L32+16
 468 007a 0A44     		add	r2, r2, r1
 320:../Drivers/STM32L4xx_HAL_Driver/Src/stm32l4xx_hal_dma.c ****     hdma->DmaBaseAddress = DMA2;
 469              		.loc 1 320 80 view .LVU168
 470 007c 0D48     		ldr	r0, .L32+8
 471              	.LVL21:
 320:../Drivers/STM32L4xx_HAL_Driver/Src/stm32l4xx_hal_dma.c ****     hdma->DmaBaseAddress = DMA2;
 472              		.loc 1 320 80 view .LVU169
 473 007e A0FB0202 		umull	r0, r2, r0, r2
 474 0082 1209     		lsrs	r2, r2, #4
 320:../Drivers/STM32L4xx_HAL_Driver/Src/stm32l4xx_hal_dma.c ****     hdma->DmaBaseAddress = DMA2;
 475              		.loc 1 320 135 view .LVU170
 476 0084 9200     		lsls	r2, r2, #2
 320:../Drivers/STM32L4xx_HAL_Driver/Src/stm32l4xx_hal_dma.c ****     hdma->DmaBaseAddress = DMA2;
 477              		.loc 1 320 24 view .LVU171
 478 0086 5A64     		str	r2, [r3, #68]
 321:../Drivers/STM32L4xx_HAL_Driver/Src/stm32l4xx_hal_dma.c ****   }
 479              		.loc 1 321 5 is_stmt 1 view .LVU172
 321:../Drivers/STM32L4xx_HAL_Driver/Src/stm32l4xx_hal_dma.c ****   }
 480              		.loc 1 321 26 is_stmt 0 view .LVU173
 481 0088 0D4A     		ldr	r2, .L32+20
 482 008a 1A64     		str	r2, [r3, #64]
 483 008c CFE7     		b	.L23
 484              	.L31:
 336:../Drivers/STM32L4xx_HAL_Driver/Src/stm32l4xx_hal_dma.c ****   }
 485              		.loc 1 336 5 is_stmt 1 view .LVU174
 336:../Drivers/STM32L4xx_HAL_Driver/Src/stm32l4xx_hal_dma.c ****   }
 486              		.loc 1 336 15 is_stmt 0 view .LVU175
 487 008e 1446     		mov	r4, r2
 488 0090 D2F8A820 		ldr	r2, [r2, #168]
 336:../Drivers/STM32L4xx_HAL_Driver/Src/stm32l4xx_hal_dma.c ****   }
 489              		.loc 1 336 50 view .LVU176
 490 0094 596C     		ldr	r1, [r3, #68]
 336:../Drivers/STM32L4xx_HAL_Driver/Src/stm32l4xx_hal_dma.c ****   }
 491              		.loc 1 336 65 view .LVU177
 492 0096 01F01C00 		and	r0, r1, #28
 336:../Drivers/STM32L4xx_HAL_Driver/Src/stm32l4xx_hal_dma.c ****   }
 493              		.loc 1 336 42 view .LVU178
 494 009a 0F21     		movs	r1, #15
 495 009c 8140     		lsls	r1, r1, r0
 336:../Drivers/STM32L4xx_HAL_Driver/Src/stm32l4xx_hal_dma.c ****   }
 496              		.loc 1 336 23 view .LVU179
 497 009e 22EA0102 		bic	r2, r2, r1
 498 00a2 C4F8A820 		str	r2, [r4, #168]
 499 00a6 DBE7     		b	.L25
 500              	.LVL22:
 501              	.L26:
 502              	.LCFI10:
 503              		.cfi_def_cfa_offset 0
 504              		.cfi_restore 4
 301:../Drivers/STM32L4xx_HAL_Driver/Src/stm32l4xx_hal_dma.c ****   }
 505              		.loc 1 301 12 view .LVU180
ARM GAS  Build/stm32l4xx_hal_dma.s 			page 32


 506 00a8 0120     		movs	r0, #1
 507              	.LVL23:
 397:../Drivers/STM32L4xx_HAL_Driver/Src/stm32l4xx_hal_dma.c **** 
 508              		.loc 1 397 1 view .LVU181
 509 00aa 7047     		bx	lr
 510              	.L33:
 511              		.align	2
 512              	.L32:
 513 00ac 07040240 		.word	1073873927
 514 00b0 F8FFFDBF 		.word	-1073872904
 515 00b4 CDCCCCCC 		.word	-858993459
 516 00b8 00000240 		.word	1073872896
 517 00bc F8FBFDBF 		.word	-1073873928
 518 00c0 00040240 		.word	1073873920
 519              		.cfi_endproc
 520              	.LFE75:
 522              		.section	.text.HAL_DMA_Start,"ax",%progbits
 523              		.align	1
 524              		.global	HAL_DMA_Start
 525              		.syntax unified
 526              		.thumb
 527              		.thumb_func
 529              	HAL_DMA_Start:
 530              	.LVL24:
 531              	.LFB76:
 432:../Drivers/STM32L4xx_HAL_Driver/Src/stm32l4xx_hal_dma.c ****   HAL_StatusTypeDef status = HAL_OK;
 532              		.loc 1 432 1 is_stmt 1 view -0
 533              		.cfi_startproc
 534              		@ args = 0, pretend = 0, frame = 0
 535              		@ frame_needed = 0, uses_anonymous_args = 0
 432:../Drivers/STM32L4xx_HAL_Driver/Src/stm32l4xx_hal_dma.c ****   HAL_StatusTypeDef status = HAL_OK;
 536              		.loc 1 432 1 is_stmt 0 view .LVU183
 537 0000 70B5     		push	{r4, r5, r6, lr}
 538              	.LCFI11:
 539              		.cfi_def_cfa_offset 16
 540              		.cfi_offset 4, -16
 541              		.cfi_offset 5, -12
 542              		.cfi_offset 6, -8
 543              		.cfi_offset 14, -4
 544 0002 0446     		mov	r4, r0
 433:../Drivers/STM32L4xx_HAL_Driver/Src/stm32l4xx_hal_dma.c **** 
 545              		.loc 1 433 3 is_stmt 1 view .LVU184
 546              	.LVL25:
 436:../Drivers/STM32L4xx_HAL_Driver/Src/stm32l4xx_hal_dma.c **** 
 547              		.loc 1 436 3 view .LVU185
 439:../Drivers/STM32L4xx_HAL_Driver/Src/stm32l4xx_hal_dma.c **** 
 548              		.loc 1 439 3 view .LVU186
 439:../Drivers/STM32L4xx_HAL_Driver/Src/stm32l4xx_hal_dma.c **** 
 549              		.loc 1 439 3 view .LVU187
 550 0004 90F82400 		ldrb	r0, [r0, #36]	@ zero_extendqisi2
 551              	.LVL26:
 439:../Drivers/STM32L4xx_HAL_Driver/Src/stm32l4xx_hal_dma.c **** 
 552              		.loc 1 439 3 is_stmt 0 view .LVU188
 553 0008 0128     		cmp	r0, #1
 554 000a 20D0     		beq	.L37
 439:../Drivers/STM32L4xx_HAL_Driver/Src/stm32l4xx_hal_dma.c **** 
 555              		.loc 1 439 3 is_stmt 1 discriminator 2 view .LVU189
ARM GAS  Build/stm32l4xx_hal_dma.s 			page 33


 556 000c 0120     		movs	r0, #1
 557 000e 84F82400 		strb	r0, [r4, #36]
 439:../Drivers/STM32L4xx_HAL_Driver/Src/stm32l4xx_hal_dma.c **** 
 558              		.loc 1 439 3 discriminator 2 view .LVU190
 441:../Drivers/STM32L4xx_HAL_Driver/Src/stm32l4xx_hal_dma.c ****   {
 559              		.loc 1 441 3 discriminator 2 view .LVU191
 441:../Drivers/STM32L4xx_HAL_Driver/Src/stm32l4xx_hal_dma.c ****   {
 560              		.loc 1 441 34 is_stmt 0 discriminator 2 view .LVU192
 561 0012 94F82500 		ldrb	r0, [r4, #37]	@ zero_extendqisi2
 562 0016 C0B2     		uxtb	r0, r0
 441:../Drivers/STM32L4xx_HAL_Driver/Src/stm32l4xx_hal_dma.c ****   {
 563              		.loc 1 441 6 discriminator 2 view .LVU193
 564 0018 0128     		cmp	r0, #1
 565 001a 04D0     		beq	.L39
 459:../Drivers/STM32L4xx_HAL_Driver/Src/stm32l4xx_hal_dma.c ****     status = HAL_BUSY;
 566              		.loc 1 459 5 is_stmt 1 view .LVU194
 459:../Drivers/STM32L4xx_HAL_Driver/Src/stm32l4xx_hal_dma.c ****     status = HAL_BUSY;
 567              		.loc 1 459 5 view .LVU195
 568 001c 0023     		movs	r3, #0
 569              	.LVL27:
 459:../Drivers/STM32L4xx_HAL_Driver/Src/stm32l4xx_hal_dma.c ****     status = HAL_BUSY;
 570              		.loc 1 459 5 is_stmt 0 view .LVU196
 571 001e 84F82430 		strb	r3, [r4, #36]
 459:../Drivers/STM32L4xx_HAL_Driver/Src/stm32l4xx_hal_dma.c ****     status = HAL_BUSY;
 572              		.loc 1 459 5 is_stmt 1 view .LVU197
 460:../Drivers/STM32L4xx_HAL_Driver/Src/stm32l4xx_hal_dma.c ****   }
 573              		.loc 1 460 5 view .LVU198
 574              	.LVL28:
 460:../Drivers/STM32L4xx_HAL_Driver/Src/stm32l4xx_hal_dma.c ****   }
 575              		.loc 1 460 12 is_stmt 0 view .LVU199
 576 0022 0220     		movs	r0, #2
 577              	.LVL29:
 578              	.L35:
 463:../Drivers/STM32L4xx_HAL_Driver/Src/stm32l4xx_hal_dma.c **** 
 579              		.loc 1 463 1 view .LVU200
 580 0024 70BD     		pop	{r4, r5, r6, pc}
 581              	.LVL30:
 582              	.L39:
 444:../Drivers/STM32L4xx_HAL_Driver/Src/stm32l4xx_hal_dma.c ****     hdma->ErrorCode = HAL_DMA_ERROR_NONE;
 583              		.loc 1 444 5 is_stmt 1 view .LVU201
 444:../Drivers/STM32L4xx_HAL_Driver/Src/stm32l4xx_hal_dma.c ****     hdma->ErrorCode = HAL_DMA_ERROR_NONE;
 584              		.loc 1 444 17 is_stmt 0 view .LVU202
 585 0026 0220     		movs	r0, #2
 586 0028 84F82500 		strb	r0, [r4, #37]
 445:../Drivers/STM32L4xx_HAL_Driver/Src/stm32l4xx_hal_dma.c **** 
 587              		.loc 1 445 5 is_stmt 1 view .LVU203
 445:../Drivers/STM32L4xx_HAL_Driver/Src/stm32l4xx_hal_dma.c **** 
 588              		.loc 1 445 21 is_stmt 0 view .LVU204
 589 002c 0025     		movs	r5, #0
 590 002e E563     		str	r5, [r4, #60]
 448:../Drivers/STM32L4xx_HAL_Driver/Src/stm32l4xx_hal_dma.c **** 
 591              		.loc 1 448 5 is_stmt 1 view .LVU205
 592 0030 2668     		ldr	r6, [r4]
 593 0032 3068     		ldr	r0, [r6]
 594 0034 20F00100 		bic	r0, r0, #1
 595 0038 3060     		str	r0, [r6]
 451:../Drivers/STM32L4xx_HAL_Driver/Src/stm32l4xx_hal_dma.c **** 
ARM GAS  Build/stm32l4xx_hal_dma.s 			page 34


 596              		.loc 1 451 5 view .LVU206
 597 003a 2046     		mov	r0, r4
 598 003c FFF7FEFF 		bl	DMA_SetConfig
 599              	.LVL31:
 454:../Drivers/STM32L4xx_HAL_Driver/Src/stm32l4xx_hal_dma.c ****   }
 600              		.loc 1 454 5 view .LVU207
 601 0040 2268     		ldr	r2, [r4]
 602 0042 1368     		ldr	r3, [r2]
 603 0044 43F00103 		orr	r3, r3, #1
 604 0048 1360     		str	r3, [r2]
 433:../Drivers/STM32L4xx_HAL_Driver/Src/stm32l4xx_hal_dma.c **** 
 605              		.loc 1 433 21 is_stmt 0 view .LVU208
 606 004a 2846     		mov	r0, r5
 607 004c EAE7     		b	.L35
 608              	.LVL32:
 609              	.L37:
 439:../Drivers/STM32L4xx_HAL_Driver/Src/stm32l4xx_hal_dma.c **** 
 610              		.loc 1 439 3 view .LVU209
 611 004e 0220     		movs	r0, #2
 612 0050 E8E7     		b	.L35
 613              		.cfi_endproc
 614              	.LFE76:
 616              		.section	.text.HAL_DMA_Start_IT,"ax",%progbits
 617              		.align	1
 618              		.global	HAL_DMA_Start_IT
 619              		.syntax unified
 620              		.thumb
 621              		.thumb_func
 623              	HAL_DMA_Start_IT:
 624              	.LVL33:
 625              	.LFB77:
 475:../Drivers/STM32L4xx_HAL_Driver/Src/stm32l4xx_hal_dma.c ****   HAL_StatusTypeDef status = HAL_OK;
 626              		.loc 1 475 1 is_stmt 1 view -0
 627              		.cfi_startproc
 628              		@ args = 0, pretend = 0, frame = 0
 629              		@ frame_needed = 0, uses_anonymous_args = 0
 475:../Drivers/STM32L4xx_HAL_Driver/Src/stm32l4xx_hal_dma.c ****   HAL_StatusTypeDef status = HAL_OK;
 630              		.loc 1 475 1 is_stmt 0 view .LVU211
 631 0000 38B5     		push	{r3, r4, r5, lr}
 632              	.LCFI12:
 633              		.cfi_def_cfa_offset 16
 634              		.cfi_offset 3, -16
 635              		.cfi_offset 4, -12
 636              		.cfi_offset 5, -8
 637              		.cfi_offset 14, -4
 638 0002 0446     		mov	r4, r0
 476:../Drivers/STM32L4xx_HAL_Driver/Src/stm32l4xx_hal_dma.c **** 
 639              		.loc 1 476 3 is_stmt 1 view .LVU212
 640              	.LVL34:
 479:../Drivers/STM32L4xx_HAL_Driver/Src/stm32l4xx_hal_dma.c **** 
 641              		.loc 1 479 3 view .LVU213
 482:../Drivers/STM32L4xx_HAL_Driver/Src/stm32l4xx_hal_dma.c **** 
 642              		.loc 1 482 3 view .LVU214
 482:../Drivers/STM32L4xx_HAL_Driver/Src/stm32l4xx_hal_dma.c **** 
 643              		.loc 1 482 3 view .LVU215
 644 0004 90F82400 		ldrb	r0, [r0, #36]	@ zero_extendqisi2
 645              	.LVL35:
ARM GAS  Build/stm32l4xx_hal_dma.s 			page 35


 482:../Drivers/STM32L4xx_HAL_Driver/Src/stm32l4xx_hal_dma.c **** 
 646              		.loc 1 482 3 is_stmt 0 view .LVU216
 647 0008 0128     		cmp	r0, #1
 648 000a 32D0     		beq	.L45
 482:../Drivers/STM32L4xx_HAL_Driver/Src/stm32l4xx_hal_dma.c **** 
 649              		.loc 1 482 3 is_stmt 1 discriminator 2 view .LVU217
 650 000c 0120     		movs	r0, #1
 651 000e 84F82400 		strb	r0, [r4, #36]
 482:../Drivers/STM32L4xx_HAL_Driver/Src/stm32l4xx_hal_dma.c **** 
 652              		.loc 1 482 3 discriminator 2 view .LVU218
 484:../Drivers/STM32L4xx_HAL_Driver/Src/stm32l4xx_hal_dma.c ****   {
 653              		.loc 1 484 3 discriminator 2 view .LVU219
 484:../Drivers/STM32L4xx_HAL_Driver/Src/stm32l4xx_hal_dma.c ****   {
 654              		.loc 1 484 34 is_stmt 0 discriminator 2 view .LVU220
 655 0012 94F82500 		ldrb	r0, [r4, #37]	@ zero_extendqisi2
 656 0016 C0B2     		uxtb	r0, r0
 484:../Drivers/STM32L4xx_HAL_Driver/Src/stm32l4xx_hal_dma.c ****   {
 657              		.loc 1 484 6 discriminator 2 view .LVU221
 658 0018 0128     		cmp	r0, #1
 659 001a 04D0     		beq	.L47
 533:../Drivers/STM32L4xx_HAL_Driver/Src/stm32l4xx_hal_dma.c **** 
 660              		.loc 1 533 5 is_stmt 1 view .LVU222
 533:../Drivers/STM32L4xx_HAL_Driver/Src/stm32l4xx_hal_dma.c **** 
 661              		.loc 1 533 5 view .LVU223
 662 001c 0023     		movs	r3, #0
 663              	.LVL36:
 533:../Drivers/STM32L4xx_HAL_Driver/Src/stm32l4xx_hal_dma.c **** 
 664              		.loc 1 533 5 is_stmt 0 view .LVU224
 665 001e 84F82430 		strb	r3, [r4, #36]
 533:../Drivers/STM32L4xx_HAL_Driver/Src/stm32l4xx_hal_dma.c **** 
 666              		.loc 1 533 5 is_stmt 1 view .LVU225
 536:../Drivers/STM32L4xx_HAL_Driver/Src/stm32l4xx_hal_dma.c ****   }
 667              		.loc 1 536 5 view .LVU226
 668              	.LVL37:
 536:../Drivers/STM32L4xx_HAL_Driver/Src/stm32l4xx_hal_dma.c ****   }
 669              		.loc 1 536 12 is_stmt 0 view .LVU227
 670 0022 0220     		movs	r0, #2
 671              	.LVL38:
 672              	.L41:
 539:../Drivers/STM32L4xx_HAL_Driver/Src/stm32l4xx_hal_dma.c **** 
 673              		.loc 1 539 1 view .LVU228
 674 0024 38BD     		pop	{r3, r4, r5, pc}
 675              	.LVL39:
 676              	.L47:
 487:../Drivers/STM32L4xx_HAL_Driver/Src/stm32l4xx_hal_dma.c ****     hdma->ErrorCode = HAL_DMA_ERROR_NONE;
 677              		.loc 1 487 5 is_stmt 1 view .LVU229
 487:../Drivers/STM32L4xx_HAL_Driver/Src/stm32l4xx_hal_dma.c ****     hdma->ErrorCode = HAL_DMA_ERROR_NONE;
 678              		.loc 1 487 17 is_stmt 0 view .LVU230
 679 0026 0220     		movs	r0, #2
 680 0028 84F82500 		strb	r0, [r4, #37]
 488:../Drivers/STM32L4xx_HAL_Driver/Src/stm32l4xx_hal_dma.c **** 
 681              		.loc 1 488 5 is_stmt 1 view .LVU231
 488:../Drivers/STM32L4xx_HAL_Driver/Src/stm32l4xx_hal_dma.c **** 
 682              		.loc 1 488 21 is_stmt 0 view .LVU232
 683 002c 0020     		movs	r0, #0
 684 002e E063     		str	r0, [r4, #60]
 491:../Drivers/STM32L4xx_HAL_Driver/Src/stm32l4xx_hal_dma.c **** 
ARM GAS  Build/stm32l4xx_hal_dma.s 			page 36


 685              		.loc 1 491 5 is_stmt 1 view .LVU233
 686 0030 2568     		ldr	r5, [r4]
 687 0032 2868     		ldr	r0, [r5]
 688 0034 20F00100 		bic	r0, r0, #1
 689 0038 2860     		str	r0, [r5]
 494:../Drivers/STM32L4xx_HAL_Driver/Src/stm32l4xx_hal_dma.c **** 
 690              		.loc 1 494 5 view .LVU234
 691 003a 2046     		mov	r0, r4
 692 003c FFF7FEFF 		bl	DMA_SetConfig
 693              	.LVL40:
 498:../Drivers/STM32L4xx_HAL_Driver/Src/stm32l4xx_hal_dma.c ****     {
 694              		.loc 1 498 5 view .LVU235
 498:../Drivers/STM32L4xx_HAL_Driver/Src/stm32l4xx_hal_dma.c ****     {
 695              		.loc 1 498 21 is_stmt 0 view .LVU236
 696 0040 236B     		ldr	r3, [r4, #48]
 498:../Drivers/STM32L4xx_HAL_Driver/Src/stm32l4xx_hal_dma.c ****     {
 697              		.loc 1 498 8 view .LVU237
 698 0042 5BB1     		cbz	r3, .L43
 501:../Drivers/STM32L4xx_HAL_Driver/Src/stm32l4xx_hal_dma.c ****     }
 699              		.loc 1 501 7 is_stmt 1 view .LVU238
 700 0044 2268     		ldr	r2, [r4]
 701 0046 1368     		ldr	r3, [r2]
 702 0048 43F00E03 		orr	r3, r3, #14
 703 004c 1360     		str	r3, [r2]
 704              	.L44:
 528:../Drivers/STM32L4xx_HAL_Driver/Src/stm32l4xx_hal_dma.c ****   }
 705              		.loc 1 528 5 view .LVU239
 706 004e 2268     		ldr	r2, [r4]
 707 0050 1368     		ldr	r3, [r2]
 708 0052 43F00103 		orr	r3, r3, #1
 709 0056 1360     		str	r3, [r2]
 476:../Drivers/STM32L4xx_HAL_Driver/Src/stm32l4xx_hal_dma.c **** 
 710              		.loc 1 476 21 is_stmt 0 view .LVU240
 711 0058 0020     		movs	r0, #0
 712 005a E3E7     		b	.L41
 713              	.L43:
 505:../Drivers/STM32L4xx_HAL_Driver/Src/stm32l4xx_hal_dma.c ****       __HAL_DMA_ENABLE_IT(hdma, (DMA_IT_TC | DMA_IT_TE));
 714              		.loc 1 505 7 is_stmt 1 view .LVU241
 715 005c 2268     		ldr	r2, [r4]
 716 005e 1368     		ldr	r3, [r2]
 717 0060 23F00403 		bic	r3, r3, #4
 718 0064 1360     		str	r3, [r2]
 506:../Drivers/STM32L4xx_HAL_Driver/Src/stm32l4xx_hal_dma.c ****     }
 719              		.loc 1 506 7 view .LVU242
 720 0066 2268     		ldr	r2, [r4]
 721 0068 1368     		ldr	r3, [r2]
 722 006a 43F00A03 		orr	r3, r3, #10
 723 006e 1360     		str	r3, [r2]
 724 0070 EDE7     		b	.L44
 725              	.LVL41:
 726              	.L45:
 482:../Drivers/STM32L4xx_HAL_Driver/Src/stm32l4xx_hal_dma.c **** 
 727              		.loc 1 482 3 is_stmt 0 view .LVU243
 728 0072 0220     		movs	r0, #2
 729 0074 D6E7     		b	.L41
 730              		.cfi_endproc
 731              	.LFE77:
ARM GAS  Build/stm32l4xx_hal_dma.s 			page 37


 733              		.section	.text.HAL_DMA_Abort,"ax",%progbits
 734              		.align	1
 735              		.global	HAL_DMA_Abort
 736              		.syntax unified
 737              		.thumb
 738              		.thumb_func
 740              	HAL_DMA_Abort:
 741              	.LVL42:
 742              	.LFB78:
 548:../Drivers/STM32L4xx_HAL_Driver/Src/stm32l4xx_hal_dma.c ****   HAL_StatusTypeDef status = HAL_OK;
 743              		.loc 1 548 1 is_stmt 1 view -0
 744              		.cfi_startproc
 745              		@ args = 0, pretend = 0, frame = 0
 746              		@ frame_needed = 0, uses_anonymous_args = 0
 747              		@ link register save eliminated.
 549:../Drivers/STM32L4xx_HAL_Driver/Src/stm32l4xx_hal_dma.c **** 
 748              		.loc 1 549 3 view .LVU245
 552:../Drivers/STM32L4xx_HAL_Driver/Src/stm32l4xx_hal_dma.c ****   {
 749              		.loc 1 552 3 view .LVU246
 552:../Drivers/STM32L4xx_HAL_Driver/Src/stm32l4xx_hal_dma.c ****   {
 750              		.loc 1 552 11 is_stmt 0 view .LVU247
 751 0000 90F82530 		ldrb	r3, [r0, #37]	@ zero_extendqisi2
 752 0004 DBB2     		uxtb	r3, r3
 552:../Drivers/STM32L4xx_HAL_Driver/Src/stm32l4xx_hal_dma.c ****   {
 753              		.loc 1 552 6 view .LVU248
 754 0006 022B     		cmp	r3, #2
 755 0008 06D0     		beq	.L49
 554:../Drivers/STM32L4xx_HAL_Driver/Src/stm32l4xx_hal_dma.c **** 
 756              		.loc 1 554 5 is_stmt 1 view .LVU249
 554:../Drivers/STM32L4xx_HAL_Driver/Src/stm32l4xx_hal_dma.c **** 
 757              		.loc 1 554 21 is_stmt 0 view .LVU250
 758 000a 0423     		movs	r3, #4
 759 000c C363     		str	r3, [r0, #60]
 557:../Drivers/STM32L4xx_HAL_Driver/Src/stm32l4xx_hal_dma.c **** 
 760              		.loc 1 557 5 is_stmt 1 view .LVU251
 557:../Drivers/STM32L4xx_HAL_Driver/Src/stm32l4xx_hal_dma.c **** 
 761              		.loc 1 557 5 view .LVU252
 762 000e 0023     		movs	r3, #0
 763 0010 80F82430 		strb	r3, [r0, #36]
 557:../Drivers/STM32L4xx_HAL_Driver/Src/stm32l4xx_hal_dma.c **** 
 764              		.loc 1 557 5 view .LVU253
 559:../Drivers/STM32L4xx_HAL_Driver/Src/stm32l4xx_hal_dma.c ****   }
 765              		.loc 1 559 5 view .LVU254
 559:../Drivers/STM32L4xx_HAL_Driver/Src/stm32l4xx_hal_dma.c ****   }
 766              		.loc 1 559 12 is_stmt 0 view .LVU255
 767 0014 0120     		movs	r0, #1
 768              	.LVL43:
 559:../Drivers/STM32L4xx_HAL_Driver/Src/stm32l4xx_hal_dma.c ****   }
 769              		.loc 1 559 12 view .LVU256
 770 0016 7047     		bx	lr
 771              	.LVL44:
 772              	.L49:
 564:../Drivers/STM32L4xx_HAL_Driver/Src/stm32l4xx_hal_dma.c **** 
 773              		.loc 1 564 5 is_stmt 1 view .LVU257
 774 0018 0268     		ldr	r2, [r0]
 775 001a 1368     		ldr	r3, [r2]
 776 001c 23F00E03 		bic	r3, r3, #14
ARM GAS  Build/stm32l4xx_hal_dma.s 			page 38


 777 0020 1360     		str	r3, [r2]
 572:../Drivers/STM32L4xx_HAL_Driver/Src/stm32l4xx_hal_dma.c **** 
 778              		.loc 1 572 5 view .LVU258
 779 0022 0268     		ldr	r2, [r0]
 780 0024 1368     		ldr	r3, [r2]
 781 0026 23F00103 		bic	r3, r3, #1
 782 002a 1360     		str	r3, [r2]
 575:../Drivers/STM32L4xx_HAL_Driver/Src/stm32l4xx_hal_dma.c **** 
 783              		.loc 1 575 5 view .LVU259
 575:../Drivers/STM32L4xx_HAL_Driver/Src/stm32l4xx_hal_dma.c **** 
 784              		.loc 1 575 56 is_stmt 0 view .LVU260
 785 002c 436C     		ldr	r3, [r0, #68]
 575:../Drivers/STM32L4xx_HAL_Driver/Src/stm32l4xx_hal_dma.c **** 
 786              		.loc 1 575 71 view .LVU261
 787 002e 03F01C03 		and	r3, r3, #28
 575:../Drivers/STM32L4xx_HAL_Driver/Src/stm32l4xx_hal_dma.c **** 
 788              		.loc 1 575 9 view .LVU262
 789 0032 016C     		ldr	r1, [r0, #64]
 575:../Drivers/STM32L4xx_HAL_Driver/Src/stm32l4xx_hal_dma.c **** 
 790              		.loc 1 575 48 view .LVU263
 791 0034 0122     		movs	r2, #1
 792 0036 02FA03F3 		lsl	r3, r2, r3
 575:../Drivers/STM32L4xx_HAL_Driver/Src/stm32l4xx_hal_dma.c **** 
 793              		.loc 1 575 32 view .LVU264
 794 003a 4B60     		str	r3, [r1, #4]
 594:../Drivers/STM32L4xx_HAL_Driver/Src/stm32l4xx_hal_dma.c **** 
 795              		.loc 1 594 5 is_stmt 1 view .LVU265
 594:../Drivers/STM32L4xx_HAL_Driver/Src/stm32l4xx_hal_dma.c **** 
 796              		.loc 1 594 17 is_stmt 0 view .LVU266
 797 003c 80F82520 		strb	r2, [r0, #37]
 597:../Drivers/STM32L4xx_HAL_Driver/Src/stm32l4xx_hal_dma.c **** 
 798              		.loc 1 597 5 is_stmt 1 view .LVU267
 597:../Drivers/STM32L4xx_HAL_Driver/Src/stm32l4xx_hal_dma.c **** 
 799              		.loc 1 597 5 view .LVU268
 800 0040 0023     		movs	r3, #0
 801 0042 80F82430 		strb	r3, [r0, #36]
 597:../Drivers/STM32L4xx_HAL_Driver/Src/stm32l4xx_hal_dma.c **** 
 802              		.loc 1 597 5 view .LVU269
 599:../Drivers/STM32L4xx_HAL_Driver/Src/stm32l4xx_hal_dma.c ****   }
 803              		.loc 1 599 5 view .LVU270
 599:../Drivers/STM32L4xx_HAL_Driver/Src/stm32l4xx_hal_dma.c ****   }
 804              		.loc 1 599 12 is_stmt 0 view .LVU271
 805 0046 1846     		mov	r0, r3
 806              	.LVL45:
 601:../Drivers/STM32L4xx_HAL_Driver/Src/stm32l4xx_hal_dma.c **** 
 807              		.loc 1 601 1 view .LVU272
 808 0048 7047     		bx	lr
 809              		.cfi_endproc
 810              	.LFE78:
 812              		.section	.text.HAL_DMA_Abort_IT,"ax",%progbits
 813              		.align	1
 814              		.global	HAL_DMA_Abort_IT
 815              		.syntax unified
 816              		.thumb
 817              		.thumb_func
 819              	HAL_DMA_Abort_IT:
 820              	.LVL46:
ARM GAS  Build/stm32l4xx_hal_dma.s 			page 39


 821              	.LFB79:
 610:../Drivers/STM32L4xx_HAL_Driver/Src/stm32l4xx_hal_dma.c ****   HAL_StatusTypeDef status = HAL_OK;
 822              		.loc 1 610 1 is_stmt 1 view -0
 823              		.cfi_startproc
 824              		@ args = 0, pretend = 0, frame = 0
 825              		@ frame_needed = 0, uses_anonymous_args = 0
 610:../Drivers/STM32L4xx_HAL_Driver/Src/stm32l4xx_hal_dma.c ****   HAL_StatusTypeDef status = HAL_OK;
 826              		.loc 1 610 1 is_stmt 0 view .LVU274
 827 0000 08B5     		push	{r3, lr}
 828              	.LCFI13:
 829              		.cfi_def_cfa_offset 8
 830              		.cfi_offset 3, -8
 831              		.cfi_offset 14, -4
 611:../Drivers/STM32L4xx_HAL_Driver/Src/stm32l4xx_hal_dma.c **** 
 832              		.loc 1 611 3 is_stmt 1 view .LVU275
 833              	.LVL47:
 613:../Drivers/STM32L4xx_HAL_Driver/Src/stm32l4xx_hal_dma.c ****   {
 834              		.loc 1 613 3 view .LVU276
 613:../Drivers/STM32L4xx_HAL_Driver/Src/stm32l4xx_hal_dma.c ****   {
 835              		.loc 1 613 33 is_stmt 0 view .LVU277
 836 0002 90F82530 		ldrb	r3, [r0, #37]	@ zero_extendqisi2
 837 0006 DBB2     		uxtb	r3, r3
 613:../Drivers/STM32L4xx_HAL_Driver/Src/stm32l4xx_hal_dma.c ****   {
 838              		.loc 1 613 6 view .LVU278
 839 0008 022B     		cmp	r3, #2
 840 000a 03D0     		beq	.L52
 616:../Drivers/STM32L4xx_HAL_Driver/Src/stm32l4xx_hal_dma.c **** 
 841              		.loc 1 616 5 is_stmt 1 view .LVU279
 616:../Drivers/STM32L4xx_HAL_Driver/Src/stm32l4xx_hal_dma.c **** 
 842              		.loc 1 616 21 is_stmt 0 view .LVU280
 843 000c 0423     		movs	r3, #4
 844 000e C363     		str	r3, [r0, #60]
 618:../Drivers/STM32L4xx_HAL_Driver/Src/stm32l4xx_hal_dma.c ****   }
 845              		.loc 1 618 5 is_stmt 1 view .LVU281
 846              	.LVL48:
 618:../Drivers/STM32L4xx_HAL_Driver/Src/stm32l4xx_hal_dma.c ****   }
 847              		.loc 1 618 12 is_stmt 0 view .LVU282
 848 0010 0120     		movs	r0, #1
 849              	.LVL49:
 850              	.L53:
 665:../Drivers/STM32L4xx_HAL_Driver/Src/stm32l4xx_hal_dma.c **** }
 851              		.loc 1 665 3 is_stmt 1 view .LVU283
 666:../Drivers/STM32L4xx_HAL_Driver/Src/stm32l4xx_hal_dma.c **** 
 852              		.loc 1 666 1 is_stmt 0 view .LVU284
 853 0012 08BD     		pop	{r3, pc}
 854              	.LVL50:
 855              	.L52:
 623:../Drivers/STM32L4xx_HAL_Driver/Src/stm32l4xx_hal_dma.c **** 
 856              		.loc 1 623 5 is_stmt 1 view .LVU285
 857 0014 0268     		ldr	r2, [r0]
 858 0016 1368     		ldr	r3, [r2]
 859 0018 23F00E03 		bic	r3, r3, #14
 860 001c 1360     		str	r3, [r2]
 626:../Drivers/STM32L4xx_HAL_Driver/Src/stm32l4xx_hal_dma.c **** 
 861              		.loc 1 626 5 view .LVU286
 862 001e 0268     		ldr	r2, [r0]
 863 0020 1368     		ldr	r3, [r2]
ARM GAS  Build/stm32l4xx_hal_dma.s 			page 40


 864 0022 23F00103 		bic	r3, r3, #1
 865 0026 1360     		str	r3, [r2]
 650:../Drivers/STM32L4xx_HAL_Driver/Src/stm32l4xx_hal_dma.c **** #endif /* DMAMUX1 */
 866              		.loc 1 650 5 view .LVU287
 650:../Drivers/STM32L4xx_HAL_Driver/Src/stm32l4xx_hal_dma.c **** #endif /* DMAMUX1 */
 867              		.loc 1 650 56 is_stmt 0 view .LVU288
 868 0028 436C     		ldr	r3, [r0, #68]
 650:../Drivers/STM32L4xx_HAL_Driver/Src/stm32l4xx_hal_dma.c **** #endif /* DMAMUX1 */
 869              		.loc 1 650 71 view .LVU289
 870 002a 03F01C03 		and	r3, r3, #28
 650:../Drivers/STM32L4xx_HAL_Driver/Src/stm32l4xx_hal_dma.c **** #endif /* DMAMUX1 */
 871              		.loc 1 650 9 view .LVU290
 872 002e 016C     		ldr	r1, [r0, #64]
 650:../Drivers/STM32L4xx_HAL_Driver/Src/stm32l4xx_hal_dma.c **** #endif /* DMAMUX1 */
 873              		.loc 1 650 48 view .LVU291
 874 0030 0122     		movs	r2, #1
 875 0032 02FA03F3 		lsl	r3, r2, r3
 650:../Drivers/STM32L4xx_HAL_Driver/Src/stm32l4xx_hal_dma.c **** #endif /* DMAMUX1 */
 876              		.loc 1 650 32 view .LVU292
 877 0036 4B60     		str	r3, [r1, #4]
 654:../Drivers/STM32L4xx_HAL_Driver/Src/stm32l4xx_hal_dma.c **** 
 878              		.loc 1 654 5 is_stmt 1 view .LVU293
 654:../Drivers/STM32L4xx_HAL_Driver/Src/stm32l4xx_hal_dma.c **** 
 879              		.loc 1 654 17 is_stmt 0 view .LVU294
 880 0038 80F82520 		strb	r2, [r0, #37]
 657:../Drivers/STM32L4xx_HAL_Driver/Src/stm32l4xx_hal_dma.c **** 
 881              		.loc 1 657 5 is_stmt 1 view .LVU295
 657:../Drivers/STM32L4xx_HAL_Driver/Src/stm32l4xx_hal_dma.c **** 
 882              		.loc 1 657 5 view .LVU296
 883 003c 0023     		movs	r3, #0
 884 003e 80F82430 		strb	r3, [r0, #36]
 657:../Drivers/STM32L4xx_HAL_Driver/Src/stm32l4xx_hal_dma.c **** 
 885              		.loc 1 657 5 view .LVU297
 660:../Drivers/STM32L4xx_HAL_Driver/Src/stm32l4xx_hal_dma.c ****     {
 886              		.loc 1 660 5 view .LVU298
 660:../Drivers/STM32L4xx_HAL_Driver/Src/stm32l4xx_hal_dma.c ****     {
 887              		.loc 1 660 13 is_stmt 0 view .LVU299
 888 0042 836B     		ldr	r3, [r0, #56]
 660:../Drivers/STM32L4xx_HAL_Driver/Src/stm32l4xx_hal_dma.c ****     {
 889              		.loc 1 660 8 view .LVU300
 890 0044 13B1     		cbz	r3, .L54
 662:../Drivers/STM32L4xx_HAL_Driver/Src/stm32l4xx_hal_dma.c ****     }
 891              		.loc 1 662 7 is_stmt 1 view .LVU301
 892 0046 9847     		blx	r3
 893              	.LVL51:
 611:../Drivers/STM32L4xx_HAL_Driver/Src/stm32l4xx_hal_dma.c **** 
 894              		.loc 1 611 21 is_stmt 0 view .LVU302
 895 0048 0020     		movs	r0, #0
 896 004a E2E7     		b	.L53
 897              	.LVL52:
 898              	.L54:
 611:../Drivers/STM32L4xx_HAL_Driver/Src/stm32l4xx_hal_dma.c **** 
 899              		.loc 1 611 21 view .LVU303
 900 004c 0020     		movs	r0, #0
 901              	.LVL53:
 611:../Drivers/STM32L4xx_HAL_Driver/Src/stm32l4xx_hal_dma.c **** 
 902              		.loc 1 611 21 view .LVU304
ARM GAS  Build/stm32l4xx_hal_dma.s 			page 41


 903 004e E0E7     		b	.L53
 904              		.cfi_endproc
 905              	.LFE79:
 907              		.section	.text.HAL_DMA_PollForTransfer,"ax",%progbits
 908              		.align	1
 909              		.global	HAL_DMA_PollForTransfer
 910              		.syntax unified
 911              		.thumb
 912              		.thumb_func
 914              	HAL_DMA_PollForTransfer:
 915              	.LVL54:
 916              	.LFB80:
 677:../Drivers/STM32L4xx_HAL_Driver/Src/stm32l4xx_hal_dma.c ****   uint32_t temp;
 917              		.loc 1 677 1 is_stmt 1 view -0
 918              		.cfi_startproc
 919              		@ args = 0, pretend = 0, frame = 0
 920              		@ frame_needed = 0, uses_anonymous_args = 0
 677:../Drivers/STM32L4xx_HAL_Driver/Src/stm32l4xx_hal_dma.c ****   uint32_t temp;
 921              		.loc 1 677 1 is_stmt 0 view .LVU306
 922 0000 2DE9F041 		push	{r4, r5, r6, r7, r8, lr}
 923              	.LCFI14:
 924              		.cfi_def_cfa_offset 24
 925              		.cfi_offset 4, -24
 926              		.cfi_offset 5, -20
 927              		.cfi_offset 6, -16
 928              		.cfi_offset 7, -12
 929              		.cfi_offset 8, -8
 930              		.cfi_offset 14, -4
 931 0004 0446     		mov	r4, r0
 678:../Drivers/STM32L4xx_HAL_Driver/Src/stm32l4xx_hal_dma.c ****   uint32_t tickstart;
 932              		.loc 1 678 3 is_stmt 1 view .LVU307
 679:../Drivers/STM32L4xx_HAL_Driver/Src/stm32l4xx_hal_dma.c **** 
 933              		.loc 1 679 3 view .LVU308
 681:../Drivers/STM32L4xx_HAL_Driver/Src/stm32l4xx_hal_dma.c ****   {
 934              		.loc 1 681 3 view .LVU309
 681:../Drivers/STM32L4xx_HAL_Driver/Src/stm32l4xx_hal_dma.c ****   {
 935              		.loc 1 681 33 is_stmt 0 view .LVU310
 936 0006 90F82530 		ldrb	r3, [r0, #37]	@ zero_extendqisi2
 937 000a DBB2     		uxtb	r3, r3
 681:../Drivers/STM32L4xx_HAL_Driver/Src/stm32l4xx_hal_dma.c ****   {
 938              		.loc 1 681 6 view .LVU311
 939 000c 022B     		cmp	r3, #2
 940 000e 07D0     		beq	.L57
 684:../Drivers/STM32L4xx_HAL_Driver/Src/stm32l4xx_hal_dma.c ****     __HAL_UNLOCK(hdma);
 941              		.loc 1 684 5 is_stmt 1 view .LVU312
 684:../Drivers/STM32L4xx_HAL_Driver/Src/stm32l4xx_hal_dma.c ****     __HAL_UNLOCK(hdma);
 942              		.loc 1 684 21 is_stmt 0 view .LVU313
 943 0010 0423     		movs	r3, #4
 944 0012 C363     		str	r3, [r0, #60]
 685:../Drivers/STM32L4xx_HAL_Driver/Src/stm32l4xx_hal_dma.c ****     return HAL_ERROR;
 945              		.loc 1 685 5 is_stmt 1 view .LVU314
 685:../Drivers/STM32L4xx_HAL_Driver/Src/stm32l4xx_hal_dma.c ****     return HAL_ERROR;
 946              		.loc 1 685 5 view .LVU315
 947 0014 0023     		movs	r3, #0
 948 0016 80F82430 		strb	r3, [r0, #36]
 685:../Drivers/STM32L4xx_HAL_Driver/Src/stm32l4xx_hal_dma.c ****     return HAL_ERROR;
 949              		.loc 1 685 5 view .LVU316
ARM GAS  Build/stm32l4xx_hal_dma.s 			page 42


 686:../Drivers/STM32L4xx_HAL_Driver/Src/stm32l4xx_hal_dma.c ****   }
 950              		.loc 1 686 5 view .LVU317
 686:../Drivers/STM32L4xx_HAL_Driver/Src/stm32l4xx_hal_dma.c ****   }
 951              		.loc 1 686 12 is_stmt 0 view .LVU318
 952 001a 0120     		movs	r0, #1
 953              	.LVL55:
 954              	.L58:
 798:../Drivers/STM32L4xx_HAL_Driver/Src/stm32l4xx_hal_dma.c **** 
 955              		.loc 1 798 1 view .LVU319
 956 001c BDE8F081 		pop	{r4, r5, r6, r7, r8, pc}
 957              	.LVL56:
 958              	.L57:
 798:../Drivers/STM32L4xx_HAL_Driver/Src/stm32l4xx_hal_dma.c **** 
 959              		.loc 1 798 1 view .LVU320
 960 0020 0E46     		mov	r6, r1
 961 0022 1546     		mov	r5, r2
 690:../Drivers/STM32L4xx_HAL_Driver/Src/stm32l4xx_hal_dma.c ****   {
 962              		.loc 1 690 3 is_stmt 1 view .LVU321
 690:../Drivers/STM32L4xx_HAL_Driver/Src/stm32l4xx_hal_dma.c ****   {
 963              		.loc 1 690 12 is_stmt 0 view .LVU322
 964 0024 0368     		ldr	r3, [r0]
 690:../Drivers/STM32L4xx_HAL_Driver/Src/stm32l4xx_hal_dma.c ****   {
 965              		.loc 1 690 22 view .LVU323
 966 0026 1B68     		ldr	r3, [r3]
 690:../Drivers/STM32L4xx_HAL_Driver/Src/stm32l4xx_hal_dma.c ****   {
 967              		.loc 1 690 6 view .LVU324
 968 0028 13F0200F 		tst	r3, #32
 969 002c 2BD1     		bne	.L69
 697:../Drivers/STM32L4xx_HAL_Driver/Src/stm32l4xx_hal_dma.c ****   {
 970              		.loc 1 697 3 is_stmt 1 view .LVU325
 697:../Drivers/STM32L4xx_HAL_Driver/Src/stm32l4xx_hal_dma.c ****   {
 971              		.loc 1 697 6 is_stmt 0 view .LVU326
 972 002e 79BB     		cbnz	r1, .L60
 700:../Drivers/STM32L4xx_HAL_Driver/Src/stm32l4xx_hal_dma.c ****   }
 973              		.loc 1 700 5 is_stmt 1 view .LVU327
 700:../Drivers/STM32L4xx_HAL_Driver/Src/stm32l4xx_hal_dma.c ****   }
 974              		.loc 1 700 33 is_stmt 0 view .LVU328
 975 0030 436C     		ldr	r3, [r0, #68]
 700:../Drivers/STM32L4xx_HAL_Driver/Src/stm32l4xx_hal_dma.c ****   }
 976              		.loc 1 700 48 view .LVU329
 977 0032 03F01C03 		and	r3, r3, #28
 700:../Drivers/STM32L4xx_HAL_Driver/Src/stm32l4xx_hal_dma.c ****   }
 978              		.loc 1 700 10 view .LVU330
 979 0036 0227     		movs	r7, #2
 980 0038 9F40     		lsls	r7, r7, r3
 981              	.LVL57:
 982              	.L61:
 709:../Drivers/STM32L4xx_HAL_Driver/Src/stm32l4xx_hal_dma.c **** 
 983              		.loc 1 709 3 is_stmt 1 view .LVU331
 709:../Drivers/STM32L4xx_HAL_Driver/Src/stm32l4xx_hal_dma.c **** 
 984              		.loc 1 709 15 is_stmt 0 view .LVU332
 985 003a FFF7FEFF 		bl	HAL_GetTick
 986              	.LVL58:
 709:../Drivers/STM32L4xx_HAL_Driver/Src/stm32l4xx_hal_dma.c **** 
 987              		.loc 1 709 15 view .LVU333
 988 003e 8046     		mov	r8, r0
 989              	.LVL59:
ARM GAS  Build/stm32l4xx_hal_dma.s 			page 43


 711:../Drivers/STM32L4xx_HAL_Driver/Src/stm32l4xx_hal_dma.c ****   {
 990              		.loc 1 711 3 is_stmt 1 view .LVU334
 991              	.L64:
 711:../Drivers/STM32L4xx_HAL_Driver/Src/stm32l4xx_hal_dma.c ****   {
 992              		.loc 1 711 45 view .LVU335
 711:../Drivers/STM32L4xx_HAL_Driver/Src/stm32l4xx_hal_dma.c ****   {
 993              		.loc 1 711 15 is_stmt 0 view .LVU336
 994 0040 226C     		ldr	r2, [r4, #64]
 711:../Drivers/STM32L4xx_HAL_Driver/Src/stm32l4xx_hal_dma.c ****   {
 995              		.loc 1 711 31 view .LVU337
 996 0042 1368     		ldr	r3, [r2]
 711:../Drivers/STM32L4xx_HAL_Driver/Src/stm32l4xx_hal_dma.c ****   {
 997              		.loc 1 711 45 view .LVU338
 998 0044 3B42     		tst	r3, r7
 999 0046 34D1     		bne	.L70
 713:../Drivers/STM32L4xx_HAL_Driver/Src/stm32l4xx_hal_dma.c ****     {
 1000              		.loc 1 713 5 is_stmt 1 view .LVU339
 713:../Drivers/STM32L4xx_HAL_Driver/Src/stm32l4xx_hal_dma.c ****     {
 1001              		.loc 1 713 30 is_stmt 0 view .LVU340
 1002 0048 1168     		ldr	r1, [r2]
 713:../Drivers/STM32L4xx_HAL_Driver/Src/stm32l4xx_hal_dma.c ****     {
 1003              		.loc 1 713 60 view .LVU341
 1004 004a 636C     		ldr	r3, [r4, #68]
 713:../Drivers/STM32L4xx_HAL_Driver/Src/stm32l4xx_hal_dma.c ****     {
 1005              		.loc 1 713 75 view .LVU342
 1006 004c 03F01C03 		and	r3, r3, #28
 713:../Drivers/STM32L4xx_HAL_Driver/Src/stm32l4xx_hal_dma.c ****     {
 1007              		.loc 1 713 52 view .LVU343
 1008 0050 4FF0080C 		mov	ip, #8
 1009 0054 0CFA03FC 		lsl	ip, ip, r3
 713:../Drivers/STM32L4xx_HAL_Driver/Src/stm32l4xx_hal_dma.c ****     {
 1010              		.loc 1 713 8 view .LVU344
 1011 0058 11EA0C0F 		tst	r1, ip
 1012 005c 1ED1     		bne	.L71
 732:../Drivers/STM32L4xx_HAL_Driver/Src/stm32l4xx_hal_dma.c ****     {
 1013              		.loc 1 732 5 is_stmt 1 view .LVU345
 732:../Drivers/STM32L4xx_HAL_Driver/Src/stm32l4xx_hal_dma.c ****     {
 1014              		.loc 1 732 8 is_stmt 0 view .LVU346
 1015 005e B5F1FF3F 		cmp	r5, #-1
 1016 0062 EDD0     		beq	.L64
 734:../Drivers/STM32L4xx_HAL_Driver/Src/stm32l4xx_hal_dma.c ****       {
 1017              		.loc 1 734 7 is_stmt 1 view .LVU347
 734:../Drivers/STM32L4xx_HAL_Driver/Src/stm32l4xx_hal_dma.c ****       {
 1018              		.loc 1 734 13 is_stmt 0 view .LVU348
 1019 0064 FFF7FEFF 		bl	HAL_GetTick
 1020              	.LVL60:
 734:../Drivers/STM32L4xx_HAL_Driver/Src/stm32l4xx_hal_dma.c ****       {
 1021              		.loc 1 734 27 view .LVU349
 1022 0068 A0EB0800 		sub	r0, r0, r8
 734:../Drivers/STM32L4xx_HAL_Driver/Src/stm32l4xx_hal_dma.c ****       {
 1023              		.loc 1 734 10 view .LVU350
 1024 006c A842     		cmp	r0, r5
 1025 006e 01D8     		bhi	.L65
 734:../Drivers/STM32L4xx_HAL_Driver/Src/stm32l4xx_hal_dma.c ****       {
 1026              		.loc 1 734 51 discriminator 1 view .LVU351
 1027 0070 002D     		cmp	r5, #0
 1028 0072 E5D1     		bne	.L64
ARM GAS  Build/stm32l4xx_hal_dma.s 			page 44


 1029              	.L65:
 737:../Drivers/STM32L4xx_HAL_Driver/Src/stm32l4xx_hal_dma.c **** 
 1030              		.loc 1 737 9 is_stmt 1 view .LVU352
 737:../Drivers/STM32L4xx_HAL_Driver/Src/stm32l4xx_hal_dma.c **** 
 1031              		.loc 1 737 25 is_stmt 0 view .LVU353
 1032 0074 2023     		movs	r3, #32
 1033 0076 E363     		str	r3, [r4, #60]
 740:../Drivers/STM32L4xx_HAL_Driver/Src/stm32l4xx_hal_dma.c **** 
 1034              		.loc 1 740 9 is_stmt 1 view .LVU354
 740:../Drivers/STM32L4xx_HAL_Driver/Src/stm32l4xx_hal_dma.c **** 
 1035              		.loc 1 740 21 is_stmt 0 view .LVU355
 1036 0078 0120     		movs	r0, #1
 1037 007a 84F82500 		strb	r0, [r4, #37]
 743:../Drivers/STM32L4xx_HAL_Driver/Src/stm32l4xx_hal_dma.c **** 
 1038              		.loc 1 743 9 is_stmt 1 view .LVU356
 743:../Drivers/STM32L4xx_HAL_Driver/Src/stm32l4xx_hal_dma.c **** 
 1039              		.loc 1 743 9 view .LVU357
 1040 007e 0023     		movs	r3, #0
 1041 0080 84F82430 		strb	r3, [r4, #36]
 743:../Drivers/STM32L4xx_HAL_Driver/Src/stm32l4xx_hal_dma.c **** 
 1042              		.loc 1 743 9 view .LVU358
 745:../Drivers/STM32L4xx_HAL_Driver/Src/stm32l4xx_hal_dma.c ****       }
 1043              		.loc 1 745 9 view .LVU359
 745:../Drivers/STM32L4xx_HAL_Driver/Src/stm32l4xx_hal_dma.c ****       }
 1044              		.loc 1 745 16 is_stmt 0 view .LVU360
 1045 0084 CAE7     		b	.L58
 1046              	.LVL61:
 1047              	.L69:
 692:../Drivers/STM32L4xx_HAL_Driver/Src/stm32l4xx_hal_dma.c ****     return HAL_ERROR;
 1048              		.loc 1 692 5 is_stmt 1 view .LVU361
 692:../Drivers/STM32L4xx_HAL_Driver/Src/stm32l4xx_hal_dma.c ****     return HAL_ERROR;
 1049              		.loc 1 692 21 is_stmt 0 view .LVU362
 1050 0086 4FF48073 		mov	r3, #256
 1051 008a C363     		str	r3, [r0, #60]
 693:../Drivers/STM32L4xx_HAL_Driver/Src/stm32l4xx_hal_dma.c ****   }
 1052              		.loc 1 693 5 is_stmt 1 view .LVU363
 693:../Drivers/STM32L4xx_HAL_Driver/Src/stm32l4xx_hal_dma.c ****   }
 1053              		.loc 1 693 12 is_stmt 0 view .LVU364
 1054 008c 0120     		movs	r0, #1
 1055              	.LVL62:
 693:../Drivers/STM32L4xx_HAL_Driver/Src/stm32l4xx_hal_dma.c ****   }
 1056              		.loc 1 693 12 view .LVU365
 1057 008e C5E7     		b	.L58
 1058              	.LVL63:
 1059              	.L60:
 705:../Drivers/STM32L4xx_HAL_Driver/Src/stm32l4xx_hal_dma.c ****   }
 1060              		.loc 1 705 5 is_stmt 1 view .LVU366
 705:../Drivers/STM32L4xx_HAL_Driver/Src/stm32l4xx_hal_dma.c ****   }
 1061              		.loc 1 705 33 is_stmt 0 view .LVU367
 1062 0090 436C     		ldr	r3, [r0, #68]
 705:../Drivers/STM32L4xx_HAL_Driver/Src/stm32l4xx_hal_dma.c ****   }
 1063              		.loc 1 705 48 view .LVU368
 1064 0092 03F01C03 		and	r3, r3, #28
 705:../Drivers/STM32L4xx_HAL_Driver/Src/stm32l4xx_hal_dma.c ****   }
 1065              		.loc 1 705 10 view .LVU369
 1066 0096 0427     		movs	r7, #4
 1067 0098 9F40     		lsls	r7, r7, r3
ARM GAS  Build/stm32l4xx_hal_dma.s 			page 45


 1068              	.LVL64:
 705:../Drivers/STM32L4xx_HAL_Driver/Src/stm32l4xx_hal_dma.c ****   }
 1069              		.loc 1 705 10 view .LVU370
 1070 009a CEE7     		b	.L61
 1071              	.LVL65:
 1072              	.L71:
 718:../Drivers/STM32L4xx_HAL_Driver/Src/stm32l4xx_hal_dma.c **** 
 1073              		.loc 1 718 7 is_stmt 1 view .LVU371
 718:../Drivers/STM32L4xx_HAL_Driver/Src/stm32l4xx_hal_dma.c **** 
 1074              		.loc 1 718 50 is_stmt 0 view .LVU372
 1075 009c 0120     		movs	r0, #1
 1076 009e 00FA03F3 		lsl	r3, r0, r3
 718:../Drivers/STM32L4xx_HAL_Driver/Src/stm32l4xx_hal_dma.c **** 
 1077              		.loc 1 718 34 view .LVU373
 1078 00a2 5360     		str	r3, [r2, #4]
 721:../Drivers/STM32L4xx_HAL_Driver/Src/stm32l4xx_hal_dma.c **** 
 1079              		.loc 1 721 7 is_stmt 1 view .LVU374
 721:../Drivers/STM32L4xx_HAL_Driver/Src/stm32l4xx_hal_dma.c **** 
 1080              		.loc 1 721 23 is_stmt 0 view .LVU375
 1081 00a4 E063     		str	r0, [r4, #60]
 724:../Drivers/STM32L4xx_HAL_Driver/Src/stm32l4xx_hal_dma.c **** 
 1082              		.loc 1 724 7 is_stmt 1 view .LVU376
 724:../Drivers/STM32L4xx_HAL_Driver/Src/stm32l4xx_hal_dma.c **** 
 1083              		.loc 1 724 19 is_stmt 0 view .LVU377
 1084 00a6 84F82500 		strb	r0, [r4, #37]
 727:../Drivers/STM32L4xx_HAL_Driver/Src/stm32l4xx_hal_dma.c **** 
 1085              		.loc 1 727 7 is_stmt 1 view .LVU378
 727:../Drivers/STM32L4xx_HAL_Driver/Src/stm32l4xx_hal_dma.c **** 
 1086              		.loc 1 727 7 view .LVU379
 1087 00aa 0023     		movs	r3, #0
 1088 00ac 84F82430 		strb	r3, [r4, #36]
 727:../Drivers/STM32L4xx_HAL_Driver/Src/stm32l4xx_hal_dma.c **** 
 1089              		.loc 1 727 7 view .LVU380
 729:../Drivers/STM32L4xx_HAL_Driver/Src/stm32l4xx_hal_dma.c ****     }
 1090              		.loc 1 729 7 view .LVU381
 729:../Drivers/STM32L4xx_HAL_Driver/Src/stm32l4xx_hal_dma.c ****     }
 1091              		.loc 1 729 14 is_stmt 0 view .LVU382
 1092 00b0 B4E7     		b	.L58
 1093              	.L70:
 779:../Drivers/STM32L4xx_HAL_Driver/Src/stm32l4xx_hal_dma.c ****   {
 1094              		.loc 1 779 3 is_stmt 1 view .LVU383
 779:../Drivers/STM32L4xx_HAL_Driver/Src/stm32l4xx_hal_dma.c ****   {
 1095              		.loc 1 779 6 is_stmt 0 view .LVU384
 1096 00b2 6EB9     		cbnz	r6, .L67
 782:../Drivers/STM32L4xx_HAL_Driver/Src/stm32l4xx_hal_dma.c **** 
 1097              		.loc 1 782 5 is_stmt 1 view .LVU385
 782:../Drivers/STM32L4xx_HAL_Driver/Src/stm32l4xx_hal_dma.c **** 
 1098              		.loc 1 782 56 is_stmt 0 view .LVU386
 1099 00b4 636C     		ldr	r3, [r4, #68]
 782:../Drivers/STM32L4xx_HAL_Driver/Src/stm32l4xx_hal_dma.c **** 
 1100              		.loc 1 782 71 view .LVU387
 1101 00b6 03F01C01 		and	r1, r3, #28
 782:../Drivers/STM32L4xx_HAL_Driver/Src/stm32l4xx_hal_dma.c **** 
 1102              		.loc 1 782 48 view .LVU388
 1103 00ba 0223     		movs	r3, #2
 1104 00bc 8B40     		lsls	r3, r3, r1
 782:../Drivers/STM32L4xx_HAL_Driver/Src/stm32l4xx_hal_dma.c **** 
ARM GAS  Build/stm32l4xx_hal_dma.s 			page 46


 1105              		.loc 1 782 32 view .LVU389
 1106 00be 5360     		str	r3, [r2, #4]
 785:../Drivers/STM32L4xx_HAL_Driver/Src/stm32l4xx_hal_dma.c **** 
 1107              		.loc 1 785 5 is_stmt 1 view .LVU390
 785:../Drivers/STM32L4xx_HAL_Driver/Src/stm32l4xx_hal_dma.c **** 
 1108              		.loc 1 785 5 view .LVU391
 1109 00c0 0023     		movs	r3, #0
 1110 00c2 84F82430 		strb	r3, [r4, #36]
 785:../Drivers/STM32L4xx_HAL_Driver/Src/stm32l4xx_hal_dma.c **** 
 1111              		.loc 1 785 5 view .LVU392
 789:../Drivers/STM32L4xx_HAL_Driver/Src/stm32l4xx_hal_dma.c ****   }
 1112              		.loc 1 789 5 view .LVU393
 789:../Drivers/STM32L4xx_HAL_Driver/Src/stm32l4xx_hal_dma.c ****   }
 1113              		.loc 1 789 17 is_stmt 0 view .LVU394
 1114 00c6 0123     		movs	r3, #1
 1115 00c8 84F82530 		strb	r3, [r4, #37]
 797:../Drivers/STM32L4xx_HAL_Driver/Src/stm32l4xx_hal_dma.c **** }
 1116              		.loc 1 797 10 view .LVU395
 1117 00cc 3046     		mov	r0, r6
 1118 00ce A5E7     		b	.L58
 1119              	.L67:
 794:../Drivers/STM32L4xx_HAL_Driver/Src/stm32l4xx_hal_dma.c ****   }
 1120              		.loc 1 794 5 is_stmt 1 view .LVU396
 794:../Drivers/STM32L4xx_HAL_Driver/Src/stm32l4xx_hal_dma.c ****   }
 1121              		.loc 1 794 56 is_stmt 0 view .LVU397
 1122 00d0 616C     		ldr	r1, [r4, #68]
 794:../Drivers/STM32L4xx_HAL_Driver/Src/stm32l4xx_hal_dma.c ****   }
 1123              		.loc 1 794 71 view .LVU398
 1124 00d2 01F01C01 		and	r1, r1, #28
 794:../Drivers/STM32L4xx_HAL_Driver/Src/stm32l4xx_hal_dma.c ****   }
 1125              		.loc 1 794 48 view .LVU399
 1126 00d6 0423     		movs	r3, #4
 1127 00d8 8B40     		lsls	r3, r3, r1
 794:../Drivers/STM32L4xx_HAL_Driver/Src/stm32l4xx_hal_dma.c ****   }
 1128              		.loc 1 794 32 view .LVU400
 1129 00da 5360     		str	r3, [r2, #4]
 797:../Drivers/STM32L4xx_HAL_Driver/Src/stm32l4xx_hal_dma.c **** }
 1130              		.loc 1 797 10 view .LVU401
 1131 00dc 0020     		movs	r0, #0
 1132 00de 9DE7     		b	.L58
 1133              		.cfi_endproc
 1134              	.LFE80:
 1136              		.section	.text.HAL_DMA_IRQHandler,"ax",%progbits
 1137              		.align	1
 1138              		.global	HAL_DMA_IRQHandler
 1139              		.syntax unified
 1140              		.thumb
 1141              		.thumb_func
 1143              	HAL_DMA_IRQHandler:
 1144              	.LVL66:
 1145              	.LFB81:
 807:../Drivers/STM32L4xx_HAL_Driver/Src/stm32l4xx_hal_dma.c ****   uint32_t flag_it = hdma->DmaBaseAddress->ISR;
 1146              		.loc 1 807 1 is_stmt 1 view -0
 1147              		.cfi_startproc
 1148              		@ args = 0, pretend = 0, frame = 0
 1149              		@ frame_needed = 0, uses_anonymous_args = 0
 807:../Drivers/STM32L4xx_HAL_Driver/Src/stm32l4xx_hal_dma.c ****   uint32_t flag_it = hdma->DmaBaseAddress->ISR;
ARM GAS  Build/stm32l4xx_hal_dma.s 			page 47


 1150              		.loc 1 807 1 is_stmt 0 view .LVU403
 1151 0000 38B5     		push	{r3, r4, r5, lr}
 1152              	.LCFI15:
 1153              		.cfi_def_cfa_offset 16
 1154              		.cfi_offset 3, -16
 1155              		.cfi_offset 4, -12
 1156              		.cfi_offset 5, -8
 1157              		.cfi_offset 14, -4
 808:../Drivers/STM32L4xx_HAL_Driver/Src/stm32l4xx_hal_dma.c ****   uint32_t source_it = hdma->Instance->CCR;
 1158              		.loc 1 808 3 is_stmt 1 view .LVU404
 808:../Drivers/STM32L4xx_HAL_Driver/Src/stm32l4xx_hal_dma.c ****   uint32_t source_it = hdma->Instance->CCR;
 1159              		.loc 1 808 26 is_stmt 0 view .LVU405
 1160 0002 036C     		ldr	r3, [r0, #64]
 808:../Drivers/STM32L4xx_HAL_Driver/Src/stm32l4xx_hal_dma.c ****   uint32_t source_it = hdma->Instance->CCR;
 1161              		.loc 1 808 12 view .LVU406
 1162 0004 1968     		ldr	r1, [r3]
 1163              	.LVL67:
 809:../Drivers/STM32L4xx_HAL_Driver/Src/stm32l4xx_hal_dma.c **** 
 1164              		.loc 1 809 3 is_stmt 1 view .LVU407
 809:../Drivers/STM32L4xx_HAL_Driver/Src/stm32l4xx_hal_dma.c **** 
 1165              		.loc 1 809 28 is_stmt 0 view .LVU408
 1166 0006 0468     		ldr	r4, [r0]
 809:../Drivers/STM32L4xx_HAL_Driver/Src/stm32l4xx_hal_dma.c **** 
 1167              		.loc 1 809 12 view .LVU409
 1168 0008 2568     		ldr	r5, [r4]
 1169              	.LVL68:
 812:../Drivers/STM32L4xx_HAL_Driver/Src/stm32l4xx_hal_dma.c ****   {
 1170              		.loc 1 812 3 is_stmt 1 view .LVU410
 812:../Drivers/STM32L4xx_HAL_Driver/Src/stm32l4xx_hal_dma.c ****   {
 1171              		.loc 1 812 41 is_stmt 0 view .LVU411
 1172 000a 436C     		ldr	r3, [r0, #68]
 812:../Drivers/STM32L4xx_HAL_Driver/Src/stm32l4xx_hal_dma.c ****   {
 1173              		.loc 1 812 56 view .LVU412
 1174 000c 03F01C03 		and	r3, r3, #28
 812:../Drivers/STM32L4xx_HAL_Driver/Src/stm32l4xx_hal_dma.c ****   {
 1175              		.loc 1 812 33 view .LVU413
 1176 0010 0422     		movs	r2, #4
 1177 0012 9A40     		lsls	r2, r2, r3
 812:../Drivers/STM32L4xx_HAL_Driver/Src/stm32l4xx_hal_dma.c ****   {
 1178              		.loc 1 812 6 view .LVU414
 1179 0014 0A42     		tst	r2, r1
 1180 0016 15D0     		beq	.L73
 812:../Drivers/STM32L4xx_HAL_Driver/Src/stm32l4xx_hal_dma.c ****   {
 1181              		.loc 1 812 74 discriminator 1 view .LVU415
 1182 0018 15F0040F 		tst	r5, #4
 1183 001c 12D0     		beq	.L73
 815:../Drivers/STM32L4xx_HAL_Driver/Src/stm32l4xx_hal_dma.c ****     {
 1184              		.loc 1 815 5 is_stmt 1 view .LVU416
 815:../Drivers/STM32L4xx_HAL_Driver/Src/stm32l4xx_hal_dma.c ****     {
 1185              		.loc 1 815 24 is_stmt 0 view .LVU417
 1186 001e 2368     		ldr	r3, [r4]
 815:../Drivers/STM32L4xx_HAL_Driver/Src/stm32l4xx_hal_dma.c ****     {
 1187              		.loc 1 815 8 view .LVU418
 1188 0020 13F0200F 		tst	r3, #32
 1189 0024 03D1     		bne	.L74
 818:../Drivers/STM32L4xx_HAL_Driver/Src/stm32l4xx_hal_dma.c ****     }
 1190              		.loc 1 818 7 is_stmt 1 view .LVU419
ARM GAS  Build/stm32l4xx_hal_dma.s 			page 48


 1191 0026 2368     		ldr	r3, [r4]
 1192 0028 23F00403 		bic	r3, r3, #4
 1193 002c 2360     		str	r3, [r4]
 1194              	.L74:
 821:../Drivers/STM32L4xx_HAL_Driver/Src/stm32l4xx_hal_dma.c **** 
 1195              		.loc 1 821 5 view .LVU420
 821:../Drivers/STM32L4xx_HAL_Driver/Src/stm32l4xx_hal_dma.c **** 
 1196              		.loc 1 821 56 is_stmt 0 view .LVU421
 1197 002e 436C     		ldr	r3, [r0, #68]
 821:../Drivers/STM32L4xx_HAL_Driver/Src/stm32l4xx_hal_dma.c **** 
 1198              		.loc 1 821 71 view .LVU422
 1199 0030 03F01C02 		and	r2, r3, #28
 821:../Drivers/STM32L4xx_HAL_Driver/Src/stm32l4xx_hal_dma.c **** 
 1200              		.loc 1 821 9 view .LVU423
 1201 0034 016C     		ldr	r1, [r0, #64]
 1202              	.LVL69:
 821:../Drivers/STM32L4xx_HAL_Driver/Src/stm32l4xx_hal_dma.c **** 
 1203              		.loc 1 821 48 view .LVU424
 1204 0036 0423     		movs	r3, #4
 1205 0038 9340     		lsls	r3, r3, r2
 821:../Drivers/STM32L4xx_HAL_Driver/Src/stm32l4xx_hal_dma.c **** 
 1206              		.loc 1 821 32 view .LVU425
 1207 003a 4B60     		str	r3, [r1, #4]
 826:../Drivers/STM32L4xx_HAL_Driver/Src/stm32l4xx_hal_dma.c ****     {
 1208              		.loc 1 826 5 is_stmt 1 view .LVU426
 826:../Drivers/STM32L4xx_HAL_Driver/Src/stm32l4xx_hal_dma.c ****     {
 1209              		.loc 1 826 13 is_stmt 0 view .LVU427
 1210 003c 036B     		ldr	r3, [r0, #48]
 826:../Drivers/STM32L4xx_HAL_Driver/Src/stm32l4xx_hal_dma.c ****     {
 1211              		.loc 1 826 8 view .LVU428
 1212 003e 03B1     		cbz	r3, .L72
 829:../Drivers/STM32L4xx_HAL_Driver/Src/stm32l4xx_hal_dma.c ****     }
 1213              		.loc 1 829 7 is_stmt 1 view .LVU429
 1214 0040 9847     		blx	r3
 1215              	.LVL70:
 1216              	.L72:
 890:../Drivers/STM32L4xx_HAL_Driver/Src/stm32l4xx_hal_dma.c **** 
 1217              		.loc 1 890 1 is_stmt 0 view .LVU430
 1218 0042 38BD     		pop	{r3, r4, r5, pc}
 1219              	.LVL71:
 1220              	.L73:
 834:../Drivers/STM32L4xx_HAL_Driver/Src/stm32l4xx_hal_dma.c ****   {
 1221              		.loc 1 834 8 is_stmt 1 view .LVU431
 834:../Drivers/STM32L4xx_HAL_Driver/Src/stm32l4xx_hal_dma.c ****   {
 1222              		.loc 1 834 38 is_stmt 0 view .LVU432
 1223 0044 0222     		movs	r2, #2
 1224 0046 9A40     		lsls	r2, r2, r3
 834:../Drivers/STM32L4xx_HAL_Driver/Src/stm32l4xx_hal_dma.c ****   {
 1225              		.loc 1 834 11 view .LVU433
 1226 0048 0A42     		tst	r2, r1
 1227 004a 1CD0     		beq	.L76
 834:../Drivers/STM32L4xx_HAL_Driver/Src/stm32l4xx_hal_dma.c ****   {
 1228              		.loc 1 834 79 discriminator 1 view .LVU434
 1229 004c 15F0020F 		tst	r5, #2
 1230 0050 19D0     		beq	.L76
 836:../Drivers/STM32L4xx_HAL_Driver/Src/stm32l4xx_hal_dma.c ****     {
 1231              		.loc 1 836 5 is_stmt 1 view .LVU435
ARM GAS  Build/stm32l4xx_hal_dma.s 			page 49


 836:../Drivers/STM32L4xx_HAL_Driver/Src/stm32l4xx_hal_dma.c ****     {
 1232              		.loc 1 836 24 is_stmt 0 view .LVU436
 1233 0052 2368     		ldr	r3, [r4]
 836:../Drivers/STM32L4xx_HAL_Driver/Src/stm32l4xx_hal_dma.c ****     {
 1234              		.loc 1 836 8 view .LVU437
 1235 0054 13F0200F 		tst	r3, #32
 1236 0058 06D1     		bne	.L77
 841:../Drivers/STM32L4xx_HAL_Driver/Src/stm32l4xx_hal_dma.c **** 
 1237              		.loc 1 841 7 is_stmt 1 view .LVU438
 1238 005a 2368     		ldr	r3, [r4]
 1239 005c 23F00A03 		bic	r3, r3, #10
 1240 0060 2360     		str	r3, [r4]
 844:../Drivers/STM32L4xx_HAL_Driver/Src/stm32l4xx_hal_dma.c ****     }
 1241              		.loc 1 844 7 view .LVU439
 844:../Drivers/STM32L4xx_HAL_Driver/Src/stm32l4xx_hal_dma.c ****     }
 1242              		.loc 1 844 19 is_stmt 0 view .LVU440
 1243 0062 0123     		movs	r3, #1
 1244 0064 80F82530 		strb	r3, [r0, #37]
 1245              	.L77:
 847:../Drivers/STM32L4xx_HAL_Driver/Src/stm32l4xx_hal_dma.c **** 
 1246              		.loc 1 847 5 is_stmt 1 view .LVU441
 847:../Drivers/STM32L4xx_HAL_Driver/Src/stm32l4xx_hal_dma.c **** 
 1247              		.loc 1 847 57 is_stmt 0 view .LVU442
 1248 0068 436C     		ldr	r3, [r0, #68]
 847:../Drivers/STM32L4xx_HAL_Driver/Src/stm32l4xx_hal_dma.c **** 
 1249              		.loc 1 847 72 view .LVU443
 1250 006a 03F01C02 		and	r2, r3, #28
 847:../Drivers/STM32L4xx_HAL_Driver/Src/stm32l4xx_hal_dma.c **** 
 1251              		.loc 1 847 9 view .LVU444
 1252 006e 016C     		ldr	r1, [r0, #64]
 1253              	.LVL72:
 847:../Drivers/STM32L4xx_HAL_Driver/Src/stm32l4xx_hal_dma.c **** 
 1254              		.loc 1 847 49 view .LVU445
 1255 0070 0223     		movs	r3, #2
 1256 0072 9340     		lsls	r3, r3, r2
 847:../Drivers/STM32L4xx_HAL_Driver/Src/stm32l4xx_hal_dma.c **** 
 1257              		.loc 1 847 32 view .LVU446
 1258 0074 4B60     		str	r3, [r1, #4]
 850:../Drivers/STM32L4xx_HAL_Driver/Src/stm32l4xx_hal_dma.c **** 
 1259              		.loc 1 850 5 is_stmt 1 view .LVU447
 850:../Drivers/STM32L4xx_HAL_Driver/Src/stm32l4xx_hal_dma.c **** 
 1260              		.loc 1 850 5 view .LVU448
 1261 0076 0023     		movs	r3, #0
 1262 0078 80F82430 		strb	r3, [r0, #36]
 850:../Drivers/STM32L4xx_HAL_Driver/Src/stm32l4xx_hal_dma.c **** 
 1263              		.loc 1 850 5 view .LVU449
 852:../Drivers/STM32L4xx_HAL_Driver/Src/stm32l4xx_hal_dma.c ****     {
 1264              		.loc 1 852 5 view .LVU450
 852:../Drivers/STM32L4xx_HAL_Driver/Src/stm32l4xx_hal_dma.c ****     {
 1265              		.loc 1 852 13 is_stmt 0 view .LVU451
 1266 007c C36A     		ldr	r3, [r0, #44]
 852:../Drivers/STM32L4xx_HAL_Driver/Src/stm32l4xx_hal_dma.c ****     {
 1267              		.loc 1 852 8 view .LVU452
 1268 007e 002B     		cmp	r3, #0
 1269 0080 DFD0     		beq	.L72
 855:../Drivers/STM32L4xx_HAL_Driver/Src/stm32l4xx_hal_dma.c ****     }
 1270              		.loc 1 855 7 is_stmt 1 view .LVU453
ARM GAS  Build/stm32l4xx_hal_dma.s 			page 50


 1271 0082 9847     		blx	r3
 1272              	.LVL73:
 855:../Drivers/STM32L4xx_HAL_Driver/Src/stm32l4xx_hal_dma.c ****     }
 1273              		.loc 1 855 7 is_stmt 0 view .LVU454
 1274 0084 DDE7     		b	.L72
 1275              	.LVL74:
 1276              	.L76:
 860:../Drivers/STM32L4xx_HAL_Driver/Src/stm32l4xx_hal_dma.c ****   {
 1277              		.loc 1 860 8 is_stmt 1 view .LVU455
 860:../Drivers/STM32L4xx_HAL_Driver/Src/stm32l4xx_hal_dma.c ****   {
 1278              		.loc 1 860 38 is_stmt 0 view .LVU456
 1279 0086 0822     		movs	r2, #8
 1280 0088 02FA03F3 		lsl	r3, r2, r3
 860:../Drivers/STM32L4xx_HAL_Driver/Src/stm32l4xx_hal_dma.c ****   {
 1281              		.loc 1 860 11 view .LVU457
 1282 008c 0B42     		tst	r3, r1
 1283 008e D8D0     		beq	.L72
 860:../Drivers/STM32L4xx_HAL_Driver/Src/stm32l4xx_hal_dma.c ****   {
 1284              		.loc 1 860 79 discriminator 1 view .LVU458
 1285 0090 15F0080F 		tst	r5, #8
 1286 0094 D5D0     		beq	.L72
 865:../Drivers/STM32L4xx_HAL_Driver/Src/stm32l4xx_hal_dma.c **** 
 1287              		.loc 1 865 5 is_stmt 1 view .LVU459
 1288 0096 2368     		ldr	r3, [r4]
 1289 0098 23F00E03 		bic	r3, r3, #14
 1290 009c 2360     		str	r3, [r4]
 868:../Drivers/STM32L4xx_HAL_Driver/Src/stm32l4xx_hal_dma.c **** 
 1291              		.loc 1 868 5 view .LVU460
 868:../Drivers/STM32L4xx_HAL_Driver/Src/stm32l4xx_hal_dma.c **** 
 1292              		.loc 1 868 56 is_stmt 0 view .LVU461
 1293 009e 436C     		ldr	r3, [r0, #68]
 868:../Drivers/STM32L4xx_HAL_Driver/Src/stm32l4xx_hal_dma.c **** 
 1294              		.loc 1 868 71 view .LVU462
 1295 00a0 03F01C03 		and	r3, r3, #28
 868:../Drivers/STM32L4xx_HAL_Driver/Src/stm32l4xx_hal_dma.c **** 
 1296              		.loc 1 868 9 view .LVU463
 1297 00a4 016C     		ldr	r1, [r0, #64]
 1298              	.LVL75:
 868:../Drivers/STM32L4xx_HAL_Driver/Src/stm32l4xx_hal_dma.c **** 
 1299              		.loc 1 868 48 view .LVU464
 1300 00a6 0122     		movs	r2, #1
 1301 00a8 02FA03F3 		lsl	r3, r2, r3
 868:../Drivers/STM32L4xx_HAL_Driver/Src/stm32l4xx_hal_dma.c **** 
 1302              		.loc 1 868 32 view .LVU465
 1303 00ac 4B60     		str	r3, [r1, #4]
 871:../Drivers/STM32L4xx_HAL_Driver/Src/stm32l4xx_hal_dma.c **** 
 1304              		.loc 1 871 5 is_stmt 1 view .LVU466
 871:../Drivers/STM32L4xx_HAL_Driver/Src/stm32l4xx_hal_dma.c **** 
 1305              		.loc 1 871 21 is_stmt 0 view .LVU467
 1306 00ae C263     		str	r2, [r0, #60]
 874:../Drivers/STM32L4xx_HAL_Driver/Src/stm32l4xx_hal_dma.c **** 
 1307              		.loc 1 874 5 is_stmt 1 view .LVU468
 874:../Drivers/STM32L4xx_HAL_Driver/Src/stm32l4xx_hal_dma.c **** 
 1308              		.loc 1 874 17 is_stmt 0 view .LVU469
 1309 00b0 80F82520 		strb	r2, [r0, #37]
 877:../Drivers/STM32L4xx_HAL_Driver/Src/stm32l4xx_hal_dma.c **** 
 1310              		.loc 1 877 5 is_stmt 1 view .LVU470
ARM GAS  Build/stm32l4xx_hal_dma.s 			page 51


 877:../Drivers/STM32L4xx_HAL_Driver/Src/stm32l4xx_hal_dma.c **** 
 1311              		.loc 1 877 5 view .LVU471
 1312 00b4 0023     		movs	r3, #0
 1313 00b6 80F82430 		strb	r3, [r0, #36]
 877:../Drivers/STM32L4xx_HAL_Driver/Src/stm32l4xx_hal_dma.c **** 
 1314              		.loc 1 877 5 view .LVU472
 879:../Drivers/STM32L4xx_HAL_Driver/Src/stm32l4xx_hal_dma.c ****     {
 1315              		.loc 1 879 5 view .LVU473
 879:../Drivers/STM32L4xx_HAL_Driver/Src/stm32l4xx_hal_dma.c ****     {
 1316              		.loc 1 879 13 is_stmt 0 view .LVU474
 1317 00ba 436B     		ldr	r3, [r0, #52]
 879:../Drivers/STM32L4xx_HAL_Driver/Src/stm32l4xx_hal_dma.c ****     {
 1318              		.loc 1 879 8 view .LVU475
 1319 00bc 002B     		cmp	r3, #0
 1320 00be C0D0     		beq	.L72
 882:../Drivers/STM32L4xx_HAL_Driver/Src/stm32l4xx_hal_dma.c ****     }
 1321              		.loc 1 882 7 is_stmt 1 view .LVU476
 1322 00c0 9847     		blx	r3
 1323              	.LVL76:
 888:../Drivers/STM32L4xx_HAL_Driver/Src/stm32l4xx_hal_dma.c ****   return;
 1324              		.loc 1 888 3 view .LVU477
 889:../Drivers/STM32L4xx_HAL_Driver/Src/stm32l4xx_hal_dma.c **** }
 1325              		.loc 1 889 3 view .LVU478
 1326 00c2 BEE7     		b	.L72
 1327              		.cfi_endproc
 1328              	.LFE81:
 1330              		.section	.text.HAL_DMA_RegisterCallback,"ax",%progbits
 1331              		.align	1
 1332              		.global	HAL_DMA_RegisterCallback
 1333              		.syntax unified
 1334              		.thumb
 1335              		.thumb_func
 1337              	HAL_DMA_RegisterCallback:
 1338              	.LVL77:
 1339              	.LFB82:
 903:../Drivers/STM32L4xx_HAL_Driver/Src/stm32l4xx_hal_dma.c ****   HAL_StatusTypeDef status = HAL_OK;
 1340              		.loc 1 903 1 view -0
 1341              		.cfi_startproc
 1342              		@ args = 0, pretend = 0, frame = 0
 1343              		@ frame_needed = 0, uses_anonymous_args = 0
 1344              		@ link register save eliminated.
 903:../Drivers/STM32L4xx_HAL_Driver/Src/stm32l4xx_hal_dma.c ****   HAL_StatusTypeDef status = HAL_OK;
 1345              		.loc 1 903 1 is_stmt 0 view .LVU480
 1346 0000 0346     		mov	r3, r0
 904:../Drivers/STM32L4xx_HAL_Driver/Src/stm32l4xx_hal_dma.c **** 
 1347              		.loc 1 904 3 is_stmt 1 view .LVU481
 1348              	.LVL78:
 907:../Drivers/STM32L4xx_HAL_Driver/Src/stm32l4xx_hal_dma.c **** 
 1349              		.loc 1 907 3 view .LVU482
 907:../Drivers/STM32L4xx_HAL_Driver/Src/stm32l4xx_hal_dma.c **** 
 1350              		.loc 1 907 3 view .LVU483
 1351 0002 90F82400 		ldrb	r0, [r0, #36]	@ zero_extendqisi2
 1352              	.LVL79:
 907:../Drivers/STM32L4xx_HAL_Driver/Src/stm32l4xx_hal_dma.c **** 
 1353              		.loc 1 907 3 is_stmt 0 view .LVU484
 1354 0006 0128     		cmp	r0, #1
 1355 0008 1ED0     		beq	.L87
ARM GAS  Build/stm32l4xx_hal_dma.s 			page 52


 907:../Drivers/STM32L4xx_HAL_Driver/Src/stm32l4xx_hal_dma.c **** 
 1356              		.loc 1 907 3 is_stmt 1 discriminator 2 view .LVU485
 1357 000a 0120     		movs	r0, #1
 1358 000c 83F82400 		strb	r0, [r3, #36]
 907:../Drivers/STM32L4xx_HAL_Driver/Src/stm32l4xx_hal_dma.c **** 
 1359              		.loc 1 907 3 discriminator 2 view .LVU486
 909:../Drivers/STM32L4xx_HAL_Driver/Src/stm32l4xx_hal_dma.c ****   {
 1360              		.loc 1 909 3 discriminator 2 view .LVU487
 909:../Drivers/STM32L4xx_HAL_Driver/Src/stm32l4xx_hal_dma.c ****   {
 1361              		.loc 1 909 34 is_stmt 0 discriminator 2 view .LVU488
 1362 0010 93F82500 		ldrb	r0, [r3, #37]	@ zero_extendqisi2
 1363 0014 C0B2     		uxtb	r0, r0
 909:../Drivers/STM32L4xx_HAL_Driver/Src/stm32l4xx_hal_dma.c ****   {
 1364              		.loc 1 909 6 discriminator 2 view .LVU489
 1365 0016 0128     		cmp	r0, #1
 1366 0018 04D0     		beq	.L90
 936:../Drivers/STM32L4xx_HAL_Driver/Src/stm32l4xx_hal_dma.c ****   }
 1367              		.loc 1 936 12 view .LVU490
 1368 001a 0120     		movs	r0, #1
 1369              	.L81:
 1370              	.LVL80:
 940:../Drivers/STM32L4xx_HAL_Driver/Src/stm32l4xx_hal_dma.c **** 
 1371              		.loc 1 940 3 is_stmt 1 view .LVU491
 940:../Drivers/STM32L4xx_HAL_Driver/Src/stm32l4xx_hal_dma.c **** 
 1372              		.loc 1 940 3 view .LVU492
 1373 001c 0022     		movs	r2, #0
 1374              	.LVL81:
 940:../Drivers/STM32L4xx_HAL_Driver/Src/stm32l4xx_hal_dma.c **** 
 1375              		.loc 1 940 3 is_stmt 0 view .LVU493
 1376 001e 83F82420 		strb	r2, [r3, #36]
 940:../Drivers/STM32L4xx_HAL_Driver/Src/stm32l4xx_hal_dma.c **** 
 1377              		.loc 1 940 3 is_stmt 1 view .LVU494
 942:../Drivers/STM32L4xx_HAL_Driver/Src/stm32l4xx_hal_dma.c **** }
 1378              		.loc 1 942 3 view .LVU495
 942:../Drivers/STM32L4xx_HAL_Driver/Src/stm32l4xx_hal_dma.c **** }
 1379              		.loc 1 942 10 is_stmt 0 view .LVU496
 1380 0022 7047     		bx	lr
 1381              	.LVL82:
 1382              	.L90:
 911:../Drivers/STM32L4xx_HAL_Driver/Src/stm32l4xx_hal_dma.c ****     {
 1383              		.loc 1 911 5 is_stmt 1 view .LVU497
 1384 0024 0329     		cmp	r1, #3
 1385 0026 F9D8     		bhi	.L81
 1386 0028 DFE801F0 		tbb	[pc, r1]
 1387              	.L83:
 1388 002c 02       		.byte	(.L86-.L83)/2
 1389 002d 05       		.byte	(.L85-.L83)/2
 1390 002e 08       		.byte	(.L84-.L83)/2
 1391 002f 0B       		.byte	(.L82-.L83)/2
 1392              		.p2align 1
 1393              	.L86:
 914:../Drivers/STM32L4xx_HAL_Driver/Src/stm32l4xx_hal_dma.c ****         break;
 1394              		.loc 1 914 9 view .LVU498
 914:../Drivers/STM32L4xx_HAL_Driver/Src/stm32l4xx_hal_dma.c ****         break;
 1395              		.loc 1 914 32 is_stmt 0 view .LVU499
 1396 0030 DA62     		str	r2, [r3, #44]
 915:../Drivers/STM32L4xx_HAL_Driver/Src/stm32l4xx_hal_dma.c **** 
ARM GAS  Build/stm32l4xx_hal_dma.s 			page 53


 1397              		.loc 1 915 9 is_stmt 1 view .LVU500
 904:../Drivers/STM32L4xx_HAL_Driver/Src/stm32l4xx_hal_dma.c **** 
 1398              		.loc 1 904 21 is_stmt 0 view .LVU501
 1399 0032 0846     		mov	r0, r1
 915:../Drivers/STM32L4xx_HAL_Driver/Src/stm32l4xx_hal_dma.c **** 
 1400              		.loc 1 915 9 view .LVU502
 1401 0034 F2E7     		b	.L81
 1402              	.L85:
 918:../Drivers/STM32L4xx_HAL_Driver/Src/stm32l4xx_hal_dma.c ****         break;
 1403              		.loc 1 918 9 is_stmt 1 view .LVU503
 918:../Drivers/STM32L4xx_HAL_Driver/Src/stm32l4xx_hal_dma.c ****         break;
 1404              		.loc 1 918 36 is_stmt 0 view .LVU504
 1405 0036 1A63     		str	r2, [r3, #48]
 919:../Drivers/STM32L4xx_HAL_Driver/Src/stm32l4xx_hal_dma.c **** 
 1406              		.loc 1 919 9 is_stmt 1 view .LVU505
 904:../Drivers/STM32L4xx_HAL_Driver/Src/stm32l4xx_hal_dma.c **** 
 1407              		.loc 1 904 21 is_stmt 0 view .LVU506
 1408 0038 0020     		movs	r0, #0
 919:../Drivers/STM32L4xx_HAL_Driver/Src/stm32l4xx_hal_dma.c **** 
 1409              		.loc 1 919 9 view .LVU507
 1410 003a EFE7     		b	.L81
 1411              	.L84:
 922:../Drivers/STM32L4xx_HAL_Driver/Src/stm32l4xx_hal_dma.c ****         break;
 1412              		.loc 1 922 9 is_stmt 1 view .LVU508
 922:../Drivers/STM32L4xx_HAL_Driver/Src/stm32l4xx_hal_dma.c ****         break;
 1413              		.loc 1 922 33 is_stmt 0 view .LVU509
 1414 003c 5A63     		str	r2, [r3, #52]
 923:../Drivers/STM32L4xx_HAL_Driver/Src/stm32l4xx_hal_dma.c **** 
 1415              		.loc 1 923 9 is_stmt 1 view .LVU510
 904:../Drivers/STM32L4xx_HAL_Driver/Src/stm32l4xx_hal_dma.c **** 
 1416              		.loc 1 904 21 is_stmt 0 view .LVU511
 1417 003e 0020     		movs	r0, #0
 923:../Drivers/STM32L4xx_HAL_Driver/Src/stm32l4xx_hal_dma.c **** 
 1418              		.loc 1 923 9 view .LVU512
 1419 0040 ECE7     		b	.L81
 1420              	.L82:
 926:../Drivers/STM32L4xx_HAL_Driver/Src/stm32l4xx_hal_dma.c ****         break;
 1421              		.loc 1 926 9 is_stmt 1 view .LVU513
 926:../Drivers/STM32L4xx_HAL_Driver/Src/stm32l4xx_hal_dma.c ****         break;
 1422              		.loc 1 926 33 is_stmt 0 view .LVU514
 1423 0042 9A63     		str	r2, [r3, #56]
 927:../Drivers/STM32L4xx_HAL_Driver/Src/stm32l4xx_hal_dma.c **** 
 1424              		.loc 1 927 9 is_stmt 1 view .LVU515
 904:../Drivers/STM32L4xx_HAL_Driver/Src/stm32l4xx_hal_dma.c **** 
 1425              		.loc 1 904 21 is_stmt 0 view .LVU516
 1426 0044 0020     		movs	r0, #0
 927:../Drivers/STM32L4xx_HAL_Driver/Src/stm32l4xx_hal_dma.c **** 
 1427              		.loc 1 927 9 view .LVU517
 1428 0046 E9E7     		b	.L81
 1429              	.L87:
 907:../Drivers/STM32L4xx_HAL_Driver/Src/stm32l4xx_hal_dma.c **** 
 1430              		.loc 1 907 3 view .LVU518
 1431 0048 0220     		movs	r0, #2
 943:../Drivers/STM32L4xx_HAL_Driver/Src/stm32l4xx_hal_dma.c **** 
 1432              		.loc 1 943 1 view .LVU519
 1433 004a 7047     		bx	lr
 1434              		.cfi_endproc
ARM GAS  Build/stm32l4xx_hal_dma.s 			page 54


 1435              	.LFE82:
 1437              		.section	.text.HAL_DMA_UnRegisterCallback,"ax",%progbits
 1438              		.align	1
 1439              		.global	HAL_DMA_UnRegisterCallback
 1440              		.syntax unified
 1441              		.thumb
 1442              		.thumb_func
 1444              	HAL_DMA_UnRegisterCallback:
 1445              	.LVL83:
 1446              	.LFB83:
 954:../Drivers/STM32L4xx_HAL_Driver/Src/stm32l4xx_hal_dma.c ****   HAL_StatusTypeDef status = HAL_OK;
 1447              		.loc 1 954 1 is_stmt 1 view -0
 1448              		.cfi_startproc
 1449              		@ args = 0, pretend = 0, frame = 0
 1450              		@ frame_needed = 0, uses_anonymous_args = 0
 1451              		@ link register save eliminated.
 954:../Drivers/STM32L4xx_HAL_Driver/Src/stm32l4xx_hal_dma.c ****   HAL_StatusTypeDef status = HAL_OK;
 1452              		.loc 1 954 1 is_stmt 0 view .LVU521
 1453 0000 0346     		mov	r3, r0
 955:../Drivers/STM32L4xx_HAL_Driver/Src/stm32l4xx_hal_dma.c **** 
 1454              		.loc 1 955 3 is_stmt 1 view .LVU522
 1455              	.LVL84:
 958:../Drivers/STM32L4xx_HAL_Driver/Src/stm32l4xx_hal_dma.c **** 
 1456              		.loc 1 958 3 view .LVU523
 958:../Drivers/STM32L4xx_HAL_Driver/Src/stm32l4xx_hal_dma.c **** 
 1457              		.loc 1 958 3 view .LVU524
 1458 0002 90F82420 		ldrb	r2, [r0, #36]	@ zero_extendqisi2
 1459 0006 012A     		cmp	r2, #1
 1460 0008 26D0     		beq	.L100
 958:../Drivers/STM32L4xx_HAL_Driver/Src/stm32l4xx_hal_dma.c **** 
 1461              		.loc 1 958 3 discriminator 2 view .LVU525
 1462 000a 0122     		movs	r2, #1
 1463 000c 80F82420 		strb	r2, [r0, #36]
 958:../Drivers/STM32L4xx_HAL_Driver/Src/stm32l4xx_hal_dma.c **** 
 1464              		.loc 1 958 3 discriminator 2 view .LVU526
 960:../Drivers/STM32L4xx_HAL_Driver/Src/stm32l4xx_hal_dma.c ****   {
 1465              		.loc 1 960 3 discriminator 2 view .LVU527
 960:../Drivers/STM32L4xx_HAL_Driver/Src/stm32l4xx_hal_dma.c ****   {
 1466              		.loc 1 960 34 is_stmt 0 discriminator 2 view .LVU528
 1467 0010 90F82500 		ldrb	r0, [r0, #37]	@ zero_extendqisi2
 1468              	.LVL85:
 960:../Drivers/STM32L4xx_HAL_Driver/Src/stm32l4xx_hal_dma.c ****   {
 1469              		.loc 1 960 34 discriminator 2 view .LVU529
 1470 0014 C0B2     		uxtb	r0, r0
 960:../Drivers/STM32L4xx_HAL_Driver/Src/stm32l4xx_hal_dma.c ****   {
 1471              		.loc 1 960 6 discriminator 2 view .LVU530
 1472 0016 9042     		cmp	r0, r2
 1473 0018 04D0     		beq	.L103
 994:../Drivers/STM32L4xx_HAL_Driver/Src/stm32l4xx_hal_dma.c ****   }
 1474              		.loc 1 994 12 view .LVU531
 1475 001a 0120     		movs	r0, #1
 1476              	.L93:
 1477              	.LVL86:
 998:../Drivers/STM32L4xx_HAL_Driver/Src/stm32l4xx_hal_dma.c **** 
 1478              		.loc 1 998 3 is_stmt 1 view .LVU532
 998:../Drivers/STM32L4xx_HAL_Driver/Src/stm32l4xx_hal_dma.c **** 
 1479              		.loc 1 998 3 view .LVU533
ARM GAS  Build/stm32l4xx_hal_dma.s 			page 55


 1480 001c 0022     		movs	r2, #0
 1481 001e 83F82420 		strb	r2, [r3, #36]
 998:../Drivers/STM32L4xx_HAL_Driver/Src/stm32l4xx_hal_dma.c **** 
 1482              		.loc 1 998 3 view .LVU534
1000:../Drivers/STM32L4xx_HAL_Driver/Src/stm32l4xx_hal_dma.c **** }
 1483              		.loc 1 1000 3 view .LVU535
1000:../Drivers/STM32L4xx_HAL_Driver/Src/stm32l4xx_hal_dma.c **** }
 1484              		.loc 1 1000 10 is_stmt 0 view .LVU536
 1485 0022 7047     		bx	lr
 1486              	.LVL87:
 1487              	.L103:
 962:../Drivers/STM32L4xx_HAL_Driver/Src/stm32l4xx_hal_dma.c ****     {
 1488              		.loc 1 962 5 is_stmt 1 view .LVU537
 1489 0024 0429     		cmp	r1, #4
 1490 0026 F9D8     		bhi	.L93
 1491 0028 DFE801F0 		tbb	[pc, r1]
 1492              	.L95:
 1493 002c 03       		.byte	(.L99-.L95)/2
 1494 002d 07       		.byte	(.L98-.L95)/2
 1495 002e 0A       		.byte	(.L97-.L95)/2
 1496 002f 0D       		.byte	(.L96-.L95)/2
 1497 0030 10       		.byte	(.L94-.L95)/2
 1498 0031 00       		.p2align 1
 1499              	.L99:
 965:../Drivers/STM32L4xx_HAL_Driver/Src/stm32l4xx_hal_dma.c ****         break;
 1500              		.loc 1 965 9 view .LVU538
 965:../Drivers/STM32L4xx_HAL_Driver/Src/stm32l4xx_hal_dma.c ****         break;
 1501              		.loc 1 965 32 is_stmt 0 view .LVU539
 1502 0032 0022     		movs	r2, #0
 1503 0034 DA62     		str	r2, [r3, #44]
 966:../Drivers/STM32L4xx_HAL_Driver/Src/stm32l4xx_hal_dma.c **** 
 1504              		.loc 1 966 9 is_stmt 1 view .LVU540
 955:../Drivers/STM32L4xx_HAL_Driver/Src/stm32l4xx_hal_dma.c **** 
 1505              		.loc 1 955 21 is_stmt 0 view .LVU541
 1506 0036 0846     		mov	r0, r1
 966:../Drivers/STM32L4xx_HAL_Driver/Src/stm32l4xx_hal_dma.c **** 
 1507              		.loc 1 966 9 view .LVU542
 1508 0038 F0E7     		b	.L93
 1509              	.L98:
 969:../Drivers/STM32L4xx_HAL_Driver/Src/stm32l4xx_hal_dma.c ****         break;
 1510              		.loc 1 969 9 is_stmt 1 view .LVU543
 969:../Drivers/STM32L4xx_HAL_Driver/Src/stm32l4xx_hal_dma.c ****         break;
 1511              		.loc 1 969 36 is_stmt 0 view .LVU544
 1512 003a 0020     		movs	r0, #0
 1513 003c 1863     		str	r0, [r3, #48]
 970:../Drivers/STM32L4xx_HAL_Driver/Src/stm32l4xx_hal_dma.c **** 
 1514              		.loc 1 970 9 is_stmt 1 view .LVU545
 1515 003e EDE7     		b	.L93
 1516              	.L97:
 973:../Drivers/STM32L4xx_HAL_Driver/Src/stm32l4xx_hal_dma.c ****         break;
 1517              		.loc 1 973 9 view .LVU546
 973:../Drivers/STM32L4xx_HAL_Driver/Src/stm32l4xx_hal_dma.c ****         break;
 1518              		.loc 1 973 33 is_stmt 0 view .LVU547
 1519 0040 0020     		movs	r0, #0
 1520 0042 5863     		str	r0, [r3, #52]
 974:../Drivers/STM32L4xx_HAL_Driver/Src/stm32l4xx_hal_dma.c **** 
 1521              		.loc 1 974 9 is_stmt 1 view .LVU548
ARM GAS  Build/stm32l4xx_hal_dma.s 			page 56


 1522 0044 EAE7     		b	.L93
 1523              	.L96:
 977:../Drivers/STM32L4xx_HAL_Driver/Src/stm32l4xx_hal_dma.c ****         break;
 1524              		.loc 1 977 9 view .LVU549
 977:../Drivers/STM32L4xx_HAL_Driver/Src/stm32l4xx_hal_dma.c ****         break;
 1525              		.loc 1 977 33 is_stmt 0 view .LVU550
 1526 0046 0020     		movs	r0, #0
 1527 0048 9863     		str	r0, [r3, #56]
 978:../Drivers/STM32L4xx_HAL_Driver/Src/stm32l4xx_hal_dma.c **** 
 1528              		.loc 1 978 9 is_stmt 1 view .LVU551
 1529 004a E7E7     		b	.L93
 1530              	.L94:
 981:../Drivers/STM32L4xx_HAL_Driver/Src/stm32l4xx_hal_dma.c ****         hdma->XferHalfCpltCallback = NULL;
 1531              		.loc 1 981 9 view .LVU552
 981:../Drivers/STM32L4xx_HAL_Driver/Src/stm32l4xx_hal_dma.c ****         hdma->XferHalfCpltCallback = NULL;
 1532              		.loc 1 981 32 is_stmt 0 view .LVU553
 1533 004c 0020     		movs	r0, #0
 1534 004e D862     		str	r0, [r3, #44]
 982:../Drivers/STM32L4xx_HAL_Driver/Src/stm32l4xx_hal_dma.c ****         hdma->XferErrorCallback = NULL;
 1535              		.loc 1 982 9 is_stmt 1 view .LVU554
 982:../Drivers/STM32L4xx_HAL_Driver/Src/stm32l4xx_hal_dma.c ****         hdma->XferErrorCallback = NULL;
 1536              		.loc 1 982 36 is_stmt 0 view .LVU555
 1537 0050 1863     		str	r0, [r3, #48]
 983:../Drivers/STM32L4xx_HAL_Driver/Src/stm32l4xx_hal_dma.c ****         hdma->XferAbortCallback = NULL;
 1538              		.loc 1 983 9 is_stmt 1 view .LVU556
 983:../Drivers/STM32L4xx_HAL_Driver/Src/stm32l4xx_hal_dma.c ****         hdma->XferAbortCallback = NULL;
 1539              		.loc 1 983 33 is_stmt 0 view .LVU557
 1540 0052 5863     		str	r0, [r3, #52]
 984:../Drivers/STM32L4xx_HAL_Driver/Src/stm32l4xx_hal_dma.c ****         break;
 1541              		.loc 1 984 9 is_stmt 1 view .LVU558
 984:../Drivers/STM32L4xx_HAL_Driver/Src/stm32l4xx_hal_dma.c ****         break;
 1542              		.loc 1 984 33 is_stmt 0 view .LVU559
 1543 0054 9863     		str	r0, [r3, #56]
 985:../Drivers/STM32L4xx_HAL_Driver/Src/stm32l4xx_hal_dma.c **** 
 1544              		.loc 1 985 9 is_stmt 1 view .LVU560
 1545 0056 E1E7     		b	.L93
 1546              	.LVL88:
 1547              	.L100:
 958:../Drivers/STM32L4xx_HAL_Driver/Src/stm32l4xx_hal_dma.c **** 
 1548              		.loc 1 958 3 is_stmt 0 view .LVU561
 1549 0058 0220     		movs	r0, #2
 1550              	.LVL89:
1001:../Drivers/STM32L4xx_HAL_Driver/Src/stm32l4xx_hal_dma.c **** 
 1551              		.loc 1 1001 1 view .LVU562
 1552 005a 7047     		bx	lr
 1553              		.cfi_endproc
 1554              	.LFE83:
 1556              		.section	.text.HAL_DMA_GetState,"ax",%progbits
 1557              		.align	1
 1558              		.global	HAL_DMA_GetState
 1559              		.syntax unified
 1560              		.thumb
 1561              		.thumb_func
 1563              	HAL_DMA_GetState:
 1564              	.LVL90:
 1565              	.LFB84:
1032:../Drivers/STM32L4xx_HAL_Driver/Src/stm32l4xx_hal_dma.c ****   /* Return DMA handle state */
ARM GAS  Build/stm32l4xx_hal_dma.s 			page 57


 1566              		.loc 1 1032 1 is_stmt 1 view -0
 1567              		.cfi_startproc
 1568              		@ args = 0, pretend = 0, frame = 0
 1569              		@ frame_needed = 0, uses_anonymous_args = 0
 1570              		@ link register save eliminated.
1034:../Drivers/STM32L4xx_HAL_Driver/Src/stm32l4xx_hal_dma.c **** }
 1571              		.loc 1 1034 3 view .LVU564
1034:../Drivers/STM32L4xx_HAL_Driver/Src/stm32l4xx_hal_dma.c **** }
 1572              		.loc 1 1034 14 is_stmt 0 view .LVU565
 1573 0000 90F82500 		ldrb	r0, [r0, #37]	@ zero_extendqisi2
 1574              	.LVL91:
1035:../Drivers/STM32L4xx_HAL_Driver/Src/stm32l4xx_hal_dma.c **** 
 1575              		.loc 1 1035 1 view .LVU566
 1576 0004 7047     		bx	lr
 1577              		.cfi_endproc
 1578              	.LFE84:
 1580              		.section	.text.HAL_DMA_GetError,"ax",%progbits
 1581              		.align	1
 1582              		.global	HAL_DMA_GetError
 1583              		.syntax unified
 1584              		.thumb
 1585              		.thumb_func
 1587              	HAL_DMA_GetError:
 1588              	.LVL92:
 1589              	.LFB85:
1044:../Drivers/STM32L4xx_HAL_Driver/Src/stm32l4xx_hal_dma.c ****   return hdma->ErrorCode;
 1590              		.loc 1 1044 1 is_stmt 1 view -0
 1591              		.cfi_startproc
 1592              		@ args = 0, pretend = 0, frame = 0
 1593              		@ frame_needed = 0, uses_anonymous_args = 0
 1594              		@ link register save eliminated.
1045:../Drivers/STM32L4xx_HAL_Driver/Src/stm32l4xx_hal_dma.c **** }
 1595              		.loc 1 1045 3 view .LVU568
1045:../Drivers/STM32L4xx_HAL_Driver/Src/stm32l4xx_hal_dma.c **** }
 1596              		.loc 1 1045 14 is_stmt 0 view .LVU569
 1597 0000 C06B     		ldr	r0, [r0, #60]
 1598              	.LVL93:
1046:../Drivers/STM32L4xx_HAL_Driver/Src/stm32l4xx_hal_dma.c **** 
 1599              		.loc 1 1046 1 view .LVU570
 1600 0002 7047     		bx	lr
 1601              		.cfi_endproc
 1602              	.LFE85:
 1604              		.text
 1605              	.Letext0:
 1606              		.file 2 "/home/emanuele/st/stm32cubeide_1.15.0/plugins/com.st.stm32cube.ide.mcu.externaltools.gnu-
 1607              		.file 3 "/home/emanuele/st/stm32cubeide_1.15.0/plugins/com.st.stm32cube.ide.mcu.externaltools.gnu-
 1608              		.file 4 "../Drivers/CMSIS/Device/ST/STM32L4xx/Include/stm32l475xx.h"
 1609              		.file 5 "../Drivers/STM32L4xx_HAL_Driver/Inc/stm32l4xx_hal_def.h"
 1610              		.file 6 "../Drivers/STM32L4xx_HAL_Driver/Inc/stm32l4xx_hal_dma.h"
 1611              		.file 7 "../Drivers/STM32L4xx_HAL_Driver/Inc/stm32l4xx_hal.h"
ARM GAS  Build/stm32l4xx_hal_dma.s 			page 58


DEFINED SYMBOLS
                            *ABS*:00000000 stm32l4xx_hal_dma.c
Build/stm32l4xx_hal_dma.s:19     .text.DMA_SetConfig:00000000 $t
Build/stm32l4xx_hal_dma.s:24     .text.DMA_SetConfig:00000000 DMA_SetConfig
Build/stm32l4xx_hal_dma.s:99     .text.HAL_DMA_Init:00000000 $t
Build/stm32l4xx_hal_dma.s:105    .text.HAL_DMA_Init:00000000 HAL_DMA_Init
Build/stm32l4xx_hal_dma.s:326    .text.HAL_DMA_Init:000000f0 $d
Build/stm32l4xx_hal_dma.s:336    .text.HAL_DMA_DeInit:00000000 $t
Build/stm32l4xx_hal_dma.s:342    .text.HAL_DMA_DeInit:00000000 HAL_DMA_DeInit
Build/stm32l4xx_hal_dma.s:513    .text.HAL_DMA_DeInit:000000ac $d
Build/stm32l4xx_hal_dma.s:523    .text.HAL_DMA_Start:00000000 $t
Build/stm32l4xx_hal_dma.s:529    .text.HAL_DMA_Start:00000000 HAL_DMA_Start
Build/stm32l4xx_hal_dma.s:617    .text.HAL_DMA_Start_IT:00000000 $t
Build/stm32l4xx_hal_dma.s:623    .text.HAL_DMA_Start_IT:00000000 HAL_DMA_Start_IT
Build/stm32l4xx_hal_dma.s:734    .text.HAL_DMA_Abort:00000000 $t
Build/stm32l4xx_hal_dma.s:740    .text.HAL_DMA_Abort:00000000 HAL_DMA_Abort
Build/stm32l4xx_hal_dma.s:813    .text.HAL_DMA_Abort_IT:00000000 $t
Build/stm32l4xx_hal_dma.s:819    .text.HAL_DMA_Abort_IT:00000000 HAL_DMA_Abort_IT
Build/stm32l4xx_hal_dma.s:908    .text.HAL_DMA_PollForTransfer:00000000 $t
Build/stm32l4xx_hal_dma.s:914    .text.HAL_DMA_PollForTransfer:00000000 HAL_DMA_PollForTransfer
Build/stm32l4xx_hal_dma.s:1137   .text.HAL_DMA_IRQHandler:00000000 $t
Build/stm32l4xx_hal_dma.s:1143   .text.HAL_DMA_IRQHandler:00000000 HAL_DMA_IRQHandler
Build/stm32l4xx_hal_dma.s:1331   .text.HAL_DMA_RegisterCallback:00000000 $t
Build/stm32l4xx_hal_dma.s:1337   .text.HAL_DMA_RegisterCallback:00000000 HAL_DMA_RegisterCallback
Build/stm32l4xx_hal_dma.s:1388   .text.HAL_DMA_RegisterCallback:0000002c $d
Build/stm32l4xx_hal_dma.s:1392   .text.HAL_DMA_RegisterCallback:00000030 $t
Build/stm32l4xx_hal_dma.s:1438   .text.HAL_DMA_UnRegisterCallback:00000000 $t
Build/stm32l4xx_hal_dma.s:1444   .text.HAL_DMA_UnRegisterCallback:00000000 HAL_DMA_UnRegisterCallback
Build/stm32l4xx_hal_dma.s:1493   .text.HAL_DMA_UnRegisterCallback:0000002c $d
Build/stm32l4xx_hal_dma.s:1557   .text.HAL_DMA_GetState:00000000 $t
Build/stm32l4xx_hal_dma.s:1563   .text.HAL_DMA_GetState:00000000 HAL_DMA_GetState
Build/stm32l4xx_hal_dma.s:1581   .text.HAL_DMA_GetError:00000000 $t
Build/stm32l4xx_hal_dma.s:1587   .text.HAL_DMA_GetError:00000000 HAL_DMA_GetError
Build/stm32l4xx_hal_dma.s:1498   .text.HAL_DMA_UnRegisterCallback:00000031 $d
Build/stm32l4xx_hal_dma.s:1498   .text.HAL_DMA_UnRegisterCallback:00000032 $t

UNDEFINED SYMBOLS
HAL_GetTick
